Archive member included to satisfy reference by file (symbol)

external/rtt/librtt_nrf52840_xxAA.a(SEGGER_RTT.c.obj)
                              examples/experimental_lpn/CMakeFiles/lpn_nrf52840_xxAA_s140_6.1.0.dir/__/__/mesh/core/src/log.c.obj (SEGGER_RTT_Write)
external/rtt/librtt_nrf52840_xxAA.a(SEGGER_RTT_printf.c.obj)
                              examples/experimental_lpn/CMakeFiles/lpn_nrf52840_xxAA_s140_6.1.0.dir/__/__/mesh/core/src/log.c.obj (SEGGER_RTT_vprintf)
external/micro-ecc/libuECC_nrf52840_xxAA.a(uECC.c.obj)
                              examples/experimental_lpn/CMakeFiles/lpn_nrf52840_xxAA_s140_6.1.0.dir/__/__/mesh/prov/src/prov_utils.c.obj (uECC_secp256r1)
c:/mesh/arm_gcc/bin/../lib/gcc/arm-none-eabi/6.3.1/thumb/v7e-m/fpv4-sp/hard\libgcc.a(_aeabi_uldivmod.o)
                              examples/experimental_lpn/CMakeFiles/lpn_nrf52840_xxAA_s140_6.1.0.dir/__/common/src/rtt_input.c.obj (__aeabi_uldivmod)
c:/mesh/arm_gcc/bin/../lib/gcc/arm-none-eabi/6.3.1/thumb/v7e-m/fpv4-sp/hard\libgcc.a(_udivmoddi4.o)
                              c:/mesh/arm_gcc/bin/../lib/gcc/arm-none-eabi/6.3.1/thumb/v7e-m/fpv4-sp/hard\libgcc.a(_aeabi_uldivmod.o) (__udivmoddi4)
c:/mesh/arm_gcc/bin/../lib/gcc/arm-none-eabi/6.3.1/thumb/v7e-m/fpv4-sp/hard\libgcc.a(_dvmd_tls.o)
                              c:/mesh/arm_gcc/bin/../lib/gcc/arm-none-eabi/6.3.1/thumb/v7e-m/fpv4-sp/hard\libgcc.a(_aeabi_uldivmod.o) (__aeabi_ldiv0)
c:/mesh/arm_gcc/bin/../lib/gcc/arm-none-eabi/6.3.1/../../../../arm-none-eabi/lib/thumb/v7e-m/fpv4-sp/hard\libg_nano.a(lib_a-calloc.o)
                              examples/experimental_lpn/CMakeFiles/lpn_nrf52840_xxAA_s140_6.1.0.dir/__/__/mesh/core/src/mesh_mem_stdlib.c.obj (calloc)
c:/mesh/arm_gcc/bin/../lib/gcc/arm-none-eabi/6.3.1/../../../../arm-none-eabi/lib/thumb/v7e-m/fpv4-sp/hard\libg_nano.a(lib_a-exit.o)
                              c:/mesh/arm_gcc/bin/../lib/gcc/arm-none-eabi/6.3.1/../../../../arm-none-eabi/lib/thumb/v7e-m/fpv4-sp/hard/crt0.o (exit)
c:/mesh/arm_gcc/bin/../lib/gcc/arm-none-eabi/6.3.1/../../../../arm-none-eabi/lib/thumb/v7e-m/fpv4-sp/hard\libg_nano.a(lib_a-impure.o)
                              c:/mesh/arm_gcc/bin/../lib/gcc/arm-none-eabi/6.3.1/../../../../arm-none-eabi/lib/thumb/v7e-m/fpv4-sp/hard\libg_nano.a(lib_a-exit.o) (_global_impure_ptr)
c:/mesh/arm_gcc/bin/../lib/gcc/arm-none-eabi/6.3.1/../../../../arm-none-eabi/lib/thumb/v7e-m/fpv4-sp/hard\libg_nano.a(lib_a-init.o)
                              c:/mesh/arm_gcc/bin/../lib/gcc/arm-none-eabi/6.3.1/../../../../arm-none-eabi/lib/thumb/v7e-m/fpv4-sp/hard/crt0.o (__libc_init_array)
c:/mesh/arm_gcc/bin/../lib/gcc/arm-none-eabi/6.3.1/../../../../arm-none-eabi/lib/thumb/v7e-m/fpv4-sp/hard\libg_nano.a(lib_a-malloc.o)
                              examples/experimental_lpn/CMakeFiles/lpn_nrf52840_xxAA_s140_6.1.0.dir/__/__/mesh/core/src/mesh_mem_stdlib.c.obj (malloc)
c:/mesh/arm_gcc/bin/../lib/gcc/arm-none-eabi/6.3.1/../../../../arm-none-eabi/lib/thumb/v7e-m/fpv4-sp/hard\libg_nano.a(lib_a-memcmp.o)
                              examples/experimental_lpn/CMakeFiles/lpn_nrf52840_xxAA_s140_6.1.0.dir/C_/mesh/deps/nRF5_SDK_15.2.0_9412b96/components/ble/common/ble_advdata.c.obj (memcmp)
c:/mesh/arm_gcc/bin/../lib/gcc/arm-none-eabi/6.3.1/../../../../arm-none-eabi/lib/thumb/v7e-m/fpv4-sp/hard\libg_nano.a(lib_a-memcpy-stub.o)
                              examples/experimental_lpn/CMakeFiles/lpn_nrf52840_xxAA_s140_6.1.0.dir/__/common/src/mesh_app_utils.c.obj (memcpy)
c:/mesh/arm_gcc/bin/../lib/gcc/arm-none-eabi/6.3.1/../../../../arm-none-eabi/lib/thumb/v7e-m/fpv4-sp/hard\libg_nano.a(lib_a-memset.o)
                              c:/mesh/arm_gcc/bin/../lib/gcc/arm-none-eabi/6.3.1/../../../../arm-none-eabi/lib/thumb/v7e-m/fpv4-sp/hard/crt0.o (memset)
c:/mesh/arm_gcc/bin/../lib/gcc/arm-none-eabi/6.3.1/../../../../arm-none-eabi/lib/thumb/v7e-m/fpv4-sp/hard\libg_nano.a(lib_a-nano-callocr.o)
                              c:/mesh/arm_gcc/bin/../lib/gcc/arm-none-eabi/6.3.1/../../../../arm-none-eabi/lib/thumb/v7e-m/fpv4-sp/hard\libg_nano.a(lib_a-calloc.o) (_calloc_r)
c:/mesh/arm_gcc/bin/../lib/gcc/arm-none-eabi/6.3.1/../../../../arm-none-eabi/lib/thumb/v7e-m/fpv4-sp/hard\libg_nano.a(lib_a-nano-freer.o)
                              c:/mesh/arm_gcc/bin/../lib/gcc/arm-none-eabi/6.3.1/../../../../arm-none-eabi/lib/thumb/v7e-m/fpv4-sp/hard\libg_nano.a(lib_a-malloc.o) (_free_r)
c:/mesh/arm_gcc/bin/../lib/gcc/arm-none-eabi/6.3.1/../../../../arm-none-eabi/lib/thumb/v7e-m/fpv4-sp/hard\libg_nano.a(lib_a-nano-mallocr.o)
                              c:/mesh/arm_gcc/bin/../lib/gcc/arm-none-eabi/6.3.1/../../../../arm-none-eabi/lib/thumb/v7e-m/fpv4-sp/hard\libg_nano.a(lib_a-malloc.o) (_malloc_r)
c:/mesh/arm_gcc/bin/../lib/gcc/arm-none-eabi/6.3.1/../../../../arm-none-eabi/lib/thumb/v7e-m/fpv4-sp/hard\libg_nano.a(lib_a-sbrkr.o)
                              c:/mesh/arm_gcc/bin/../lib/gcc/arm-none-eabi/6.3.1/../../../../arm-none-eabi/lib/thumb/v7e-m/fpv4-sp/hard\libg_nano.a(lib_a-nano-mallocr.o) (_sbrk_r)
c:/mesh/arm_gcc/bin/../lib/gcc/arm-none-eabi/6.3.1/../../../../arm-none-eabi/lib/thumb/v7e-m/fpv4-sp/hard\libg_nano.a(lib_a-strcpy.o)
                              external/rtt/librtt_nrf52840_xxAA.a(SEGGER_RTT.c.obj) (strcpy)
c:/mesh/arm_gcc/bin/../lib/gcc/arm-none-eabi/6.3.1/../../../../arm-none-eabi/lib/thumb/v7e-m/fpv4-sp/hard\libg_nano.a(lib_a-strlen.o)
                              examples/experimental_lpn/CMakeFiles/lpn_nrf52840_xxAA_s140_6.1.0.dir/__/common/src/ble_softdevice_support.c.obj (strlen)
c:/mesh/arm_gcc/bin/../lib/gcc/arm-none-eabi/6.3.1/../../../../arm-none-eabi/lib/thumb/v7e-m/fpv4-sp/hard\libg_nano.a(lib_a-strrchr.o)
                              examples/experimental_lpn/CMakeFiles/lpn_nrf52840_xxAA_s140_6.1.0.dir/src/main.c.obj (strrchr)
c:/mesh/arm_gcc/bin/../lib/gcc/arm-none-eabi/6.3.1/../../../../arm-none-eabi/lib/thumb/v7e-m/fpv4-sp/hard\libg_nano.a(lib_a-mlock.o)
                              c:/mesh/arm_gcc/bin/../lib/gcc/arm-none-eabi/6.3.1/../../../../arm-none-eabi/lib/thumb/v7e-m/fpv4-sp/hard\libg_nano.a(lib_a-nano-freer.o) (__malloc_lock)
c:/mesh/arm_gcc/bin/../lib/gcc/arm-none-eabi/6.3.1/../../../../arm-none-eabi/lib/thumb/v7e-m/fpv4-sp/hard\libg_nano.a(lib_a-reent.o)
                              c:/mesh/arm_gcc/bin/../lib/gcc/arm-none-eabi/6.3.1/../../../../arm-none-eabi/lib/thumb/v7e-m/fpv4-sp/hard\libg_nano.a(lib_a-sbrkr.o) (errno)
c:/mesh/arm_gcc/bin/../lib/gcc/arm-none-eabi/6.3.1/../../../../arm-none-eabi/lib/thumb/v7e-m/fpv4-sp/hard\libg_nano.a(lib_a-strchr.o)
                              c:/mesh/arm_gcc/bin/../lib/gcc/arm-none-eabi/6.3.1/../../../../arm-none-eabi/lib/thumb/v7e-m/fpv4-sp/hard\libg_nano.a(lib_a-strrchr.o) (strchr)
c:/mesh/arm_gcc/bin/../lib/gcc/arm-none-eabi/6.3.1/../../../../arm-none-eabi/lib/thumb/v7e-m/fpv4-sp/hard\libnosys.a(sbrk.o)
                              c:/mesh/arm_gcc/bin/../lib/gcc/arm-none-eabi/6.3.1/../../../../arm-none-eabi/lib/thumb/v7e-m/fpv4-sp/hard\libg_nano.a(lib_a-sbrkr.o) (_sbrk)
c:/mesh/arm_gcc/bin/../lib/gcc/arm-none-eabi/6.3.1/../../../../arm-none-eabi/lib/thumb/v7e-m/fpv4-sp/hard\libnosys.a(_exit.o)
                              c:/mesh/arm_gcc/bin/../lib/gcc/arm-none-eabi/6.3.1/../../../../arm-none-eabi/lib/thumb/v7e-m/fpv4-sp/hard\libg_nano.a(lib_a-exit.o) (_exit)

Allocating common symbols
Common symbol       size              file

nrf_nvic_state      0xc               examples/experimental_lpn/CMakeFiles/lpn_nrf52840_xxAA_s140_6.1.0.dir/C_/mesh/deps/nRF5_SDK_15.2.0_9412b96/components/libraries/util/app_util_platform.c.obj
m_packet            0x24              examples/experimental_lpn/CMakeFiles/lpn_nrf52840_xxAA_s140_6.1.0.dir/__/__/mesh/core/src/core_tx.c.obj
errno               0x4               c:/mesh/arm_gcc/bin/../lib/gcc/arm-none-eabi/6.3.1/../../../../arm-none-eabi/lib/thumb/v7e-m/fpv4-sp/hard\libg_nano.a(lib_a-reent.o)
_SEGGER_RTT         0x78              external/rtt/librtt_nrf52840_xxAA.a(SEGGER_RTT.c.obj)

Discarded input sections

 .text          0x00000000        0x0 c:/mesh/arm_gcc/bin/../lib/gcc/arm-none-eabi/6.3.1/thumb/v7e-m/fpv4-sp/hard/crti.o
 .data          0x00000000        0x0 c:/mesh/arm_gcc/bin/../lib/gcc/arm-none-eabi/6.3.1/thumb/v7e-m/fpv4-sp/hard/crti.o
 .bss           0x00000000        0x0 c:/mesh/arm_gcc/bin/../lib/gcc/arm-none-eabi/6.3.1/thumb/v7e-m/fpv4-sp/hard/crti.o
 .data          0x00000000        0x4 c:/mesh/arm_gcc/bin/../lib/gcc/arm-none-eabi/6.3.1/thumb/v7e-m/fpv4-sp/hard/crtbegin.o
 .data          0x00000000        0x0 c:/mesh/arm_gcc/bin/../lib/gcc/arm-none-eabi/6.3.1/../../../../arm-none-eabi/lib/thumb/v7e-m/fpv4-sp/hard/crt0.o
 .bss           0x00000000        0x0 c:/mesh/arm_gcc/bin/../lib/gcc/arm-none-eabi/6.3.1/../../../../arm-none-eabi/lib/thumb/v7e-m/fpv4-sp/hard/crt0.o
 .ARM.extab     0x00000000        0x0 c:/mesh/arm_gcc/bin/../lib/gcc/arm-none-eabi/6.3.1/../../../../arm-none-eabi/lib/thumb/v7e-m/fpv4-sp/hard/crt0.o
 .text          0x00000000        0x0 examples/experimental_lpn/CMakeFiles/lpn_nrf52840_xxAA_s140_6.1.0.dir/src/main.c.obj
 .data          0x00000000        0x0 examples/experimental_lpn/CMakeFiles/lpn_nrf52840_xxAA_s140_6.1.0.dir/src/main.c.obj
 .bss           0x00000000        0x0 examples/experimental_lpn/CMakeFiles/lpn_nrf52840_xxAA_s140_6.1.0.dir/src/main.c.obj
 .text          0x00000000        0x0 examples/experimental_lpn/CMakeFiles/lpn_nrf52840_xxAA_s140_6.1.0.dir/__/__/mesh/stack/src/mesh_stack.c.obj
 .data          0x00000000        0x0 examples/experimental_lpn/CMakeFiles/lpn_nrf52840_xxAA_s140_6.1.0.dir/__/__/mesh/stack/src/mesh_stack.c.obj
 .bss           0x00000000        0x0 examples/experimental_lpn/CMakeFiles/lpn_nrf52840_xxAA_s140_6.1.0.dir/__/__/mesh/stack/src/mesh_stack.c.obj
 .text.mesh_stack_persistence_flash_usage
                0x00000000       0x36 examples/experimental_lpn/CMakeFiles/lpn_nrf52840_xxAA_s140_6.1.0.dir/__/__/mesh/stack/src/mesh_stack.c.obj
 .text.mesh_stack_health_server_get
                0x00000000        0x8 examples/experimental_lpn/CMakeFiles/lpn_nrf52840_xxAA_s140_6.1.0.dir/__/__/mesh/stack/src/mesh_stack.c.obj
 .text          0x00000000        0x0 examples/experimental_lpn/CMakeFiles/lpn_nrf52840_xxAA_s140_6.1.0.dir/__/common/src/mesh_provisionee.c.obj
 .data          0x00000000        0x0 examples/experimental_lpn/CMakeFiles/lpn_nrf52840_xxAA_s140_6.1.0.dir/__/common/src/mesh_provisionee.c.obj
 .bss           0x00000000        0x0 examples/experimental_lpn/CMakeFiles/lpn_nrf52840_xxAA_s140_6.1.0.dir/__/common/src/mesh_provisionee.c.obj
 .text.mesh_provisionee_prov_listen_stop
                0x00000000        0xc examples/experimental_lpn/CMakeFiles/lpn_nrf52840_xxAA_s140_6.1.0.dir/__/common/src/mesh_provisionee.c.obj
 .text          0x00000000        0x0 examples/experimental_lpn/CMakeFiles/lpn_nrf52840_xxAA_s140_6.1.0.dir/__/common/src/rtt_input.c.obj
 .data          0x00000000        0x0 examples/experimental_lpn/CMakeFiles/lpn_nrf52840_xxAA_s140_6.1.0.dir/__/common/src/rtt_input.c.obj
 .bss           0x00000000        0x0 examples/experimental_lpn/CMakeFiles/lpn_nrf52840_xxAA_s140_6.1.0.dir/__/common/src/rtt_input.c.obj
 .text.rtt_input_disable
                0x00000000       0x28 examples/experimental_lpn/CMakeFiles/lpn_nrf52840_xxAA_s140_6.1.0.dir/__/common/src/rtt_input.c.obj
 .text          0x00000000        0x0 examples/experimental_lpn/CMakeFiles/lpn_nrf52840_xxAA_s140_6.1.0.dir/__/common/src/simple_hal.c.obj
 .data          0x00000000        0x0 examples/experimental_lpn/CMakeFiles/lpn_nrf52840_xxAA_s140_6.1.0.dir/__/common/src/simple_hal.c.obj
 .bss           0x00000000        0x0 examples/experimental_lpn/CMakeFiles/lpn_nrf52840_xxAA_s140_6.1.0.dir/__/common/src/simple_hal.c.obj
 .text.hal_led_pin_get
                0x00000000       0x18 examples/experimental_lpn/CMakeFiles/lpn_nrf52840_xxAA_s140_6.1.0.dir/__/common/src/simple_hal.c.obj
 .text          0x00000000        0x0 examples/experimental_lpn/CMakeFiles/lpn_nrf52840_xxAA_s140_6.1.0.dir/__/common/src/mesh_app_utils.c.obj
 .data          0x00000000        0x0 examples/experimental_lpn/CMakeFiles/lpn_nrf52840_xxAA_s140_6.1.0.dir/__/common/src/mesh_app_utils.c.obj
 .bss           0x00000000        0x0 examples/experimental_lpn/CMakeFiles/lpn_nrf52840_xxAA_s140_6.1.0.dir/__/common/src/mesh_app_utils.c.obj
 .text          0x00000000        0x0 examples/experimental_lpn/CMakeFiles/lpn_nrf52840_xxAA_s140_6.1.0.dir/__/common/src/mesh_adv.c.obj
 .data          0x00000000        0x0 examples/experimental_lpn/CMakeFiles/lpn_nrf52840_xxAA_s140_6.1.0.dir/__/common/src/mesh_adv.c.obj
 .bss           0x00000000        0x0 examples/experimental_lpn/CMakeFiles/lpn_nrf52840_xxAA_s140_6.1.0.dir/__/common/src/mesh_adv.c.obj
 .text          0x00000000        0x0 examples/experimental_lpn/CMakeFiles/lpn_nrf52840_xxAA_s140_6.1.0.dir/__/common/src/ble_softdevice_support.c.obj
 .data          0x00000000        0x0 examples/experimental_lpn/CMakeFiles/lpn_nrf52840_xxAA_s140_6.1.0.dir/__/common/src/ble_softdevice_support.c.obj
 .bss           0x00000000        0x0 examples/experimental_lpn/CMakeFiles/lpn_nrf52840_xxAA_s140_6.1.0.dir/__/common/src/ble_softdevice_support.c.obj
 .text          0x00000000        0x0 examples/experimental_lpn/CMakeFiles/lpn_nrf52840_xxAA_s140_6.1.0.dir/C_/mesh/deps/nRF5_SDK_15.2.0_9412b96/components/libraries/util/app_util_platform.c.obj
 .data          0x00000000        0x0 examples/experimental_lpn/CMakeFiles/lpn_nrf52840_xxAA_s140_6.1.0.dir/C_/mesh/deps/nRF5_SDK_15.2.0_9412b96/components/libraries/util/app_util_platform.c.obj
 .bss           0x00000000        0x0 examples/experimental_lpn/CMakeFiles/lpn_nrf52840_xxAA_s140_6.1.0.dir/C_/mesh/deps/nRF5_SDK_15.2.0_9412b96/components/libraries/util/app_util_platform.c.obj
 .text.app_util_disable_irq
                0x00000000       0x10 examples/experimental_lpn/CMakeFiles/lpn_nrf52840_xxAA_s140_6.1.0.dir/C_/mesh/deps/nRF5_SDK_15.2.0_9412b96/components/libraries/util/app_util_platform.c.obj
 .text.app_util_enable_irq
                0x00000000       0x14 examples/experimental_lpn/CMakeFiles/lpn_nrf52840_xxAA_s140_6.1.0.dir/C_/mesh/deps/nRF5_SDK_15.2.0_9412b96/components/libraries/util/app_util_platform.c.obj
 .text.privilege_level_get
                0x00000000       0x1a examples/experimental_lpn/CMakeFiles/lpn_nrf52840_xxAA_s140_6.1.0.dir/C_/mesh/deps/nRF5_SDK_15.2.0_9412b96/components/libraries/util/app_util_platform.c.obj
 .text.current_int_priority_get
                0x00000000       0x38 examples/experimental_lpn/CMakeFiles/lpn_nrf52840_xxAA_s140_6.1.0.dir/C_/mesh/deps/nRF5_SDK_15.2.0_9412b96/components/libraries/util/app_util_platform.c.obj
 .bss.m_in_critical_region
                0x00000000        0x4 examples/experimental_lpn/CMakeFiles/lpn_nrf52840_xxAA_s140_6.1.0.dir/C_/mesh/deps/nRF5_SDK_15.2.0_9412b96/components/libraries/util/app_util_platform.c.obj
 .text          0x00000000        0x0 examples/experimental_lpn/CMakeFiles/lpn_nrf52840_xxAA_s140_6.1.0.dir/C_/mesh/deps/nRF5_SDK_15.2.0_9412b96/components/ble/common/ble_advdata.c.obj
 .data          0x00000000        0x0 examples/experimental_lpn/CMakeFiles/lpn_nrf52840_xxAA_s140_6.1.0.dir/C_/mesh/deps/nRF5_SDK_15.2.0_9412b96/components/ble/common/ble_advdata.c.obj
 .bss           0x00000000        0x0 examples/experimental_lpn/CMakeFiles/lpn_nrf52840_xxAA_s140_6.1.0.dir/C_/mesh/deps/nRF5_SDK_15.2.0_9412b96/components/ble/common/ble_advdata.c.obj
 .text.ble_advdata_search
                0x00000000       0x38 examples/experimental_lpn/CMakeFiles/lpn_nrf52840_xxAA_s140_6.1.0.dir/C_/mesh/deps/nRF5_SDK_15.2.0_9412b96/components/ble/common/ble_advdata.c.obj
 .text.ble_advdata_parse
                0x00000000       0x20 examples/experimental_lpn/CMakeFiles/lpn_nrf52840_xxAA_s140_6.1.0.dir/C_/mesh/deps/nRF5_SDK_15.2.0_9412b96/components/ble/common/ble_advdata.c.obj
 .text.ble_advdata_name_find
                0x00000000       0x48 examples/experimental_lpn/CMakeFiles/lpn_nrf52840_xxAA_s140_6.1.0.dir/C_/mesh/deps/nRF5_SDK_15.2.0_9412b96/components/ble/common/ble_advdata.c.obj
 .text.ble_advdata_short_name_find
                0x00000000       0x52 examples/experimental_lpn/CMakeFiles/lpn_nrf52840_xxAA_s140_6.1.0.dir/C_/mesh/deps/nRF5_SDK_15.2.0_9412b96/components/ble/common/ble_advdata.c.obj
 .text.ble_advdata_uuid_find
                0x00000000       0xb6 examples/experimental_lpn/CMakeFiles/lpn_nrf52840_xxAA_s140_6.1.0.dir/C_/mesh/deps/nRF5_SDK_15.2.0_9412b96/components/ble/common/ble_advdata.c.obj
 .text.ble_advdata_appearance_find
                0x00000000       0x40 examples/experimental_lpn/CMakeFiles/lpn_nrf52840_xxAA_s140_6.1.0.dir/C_/mesh/deps/nRF5_SDK_15.2.0_9412b96/components/ble/common/ble_advdata.c.obj
 .text          0x00000000        0x0 examples/experimental_lpn/CMakeFiles/lpn_nrf52840_xxAA_s140_6.1.0.dir/C_/mesh/deps/nRF5_SDK_15.2.0_9412b96/components/libraries/experimental_section_vars/nrf_section_iter.c.obj
 .data          0x00000000        0x0 examples/experimental_lpn/CMakeFiles/lpn_nrf52840_xxAA_s140_6.1.0.dir/C_/mesh/deps/nRF5_SDK_15.2.0_9412b96/components/libraries/experimental_section_vars/nrf_section_iter.c.obj
 .bss           0x00000000        0x0 examples/experimental_lpn/CMakeFiles/lpn_nrf52840_xxAA_s140_6.1.0.dir/C_/mesh/deps/nRF5_SDK_15.2.0_9412b96/components/libraries/experimental_section_vars/nrf_section_iter.c.obj
 .text          0x00000000        0x0 examples/experimental_lpn/CMakeFiles/lpn_nrf52840_xxAA_s140_6.1.0.dir/C_/mesh/deps/nRF5_SDK_15.2.0_9412b96/components/softdevice/common/nrf_sdh_soc.c.obj
 .data          0x00000000        0x0 examples/experimental_lpn/CMakeFiles/lpn_nrf52840_xxAA_s140_6.1.0.dir/C_/mesh/deps/nRF5_SDK_15.2.0_9412b96/components/softdevice/common/nrf_sdh_soc.c.obj
 .bss           0x00000000        0x0 examples/experimental_lpn/CMakeFiles/lpn_nrf52840_xxAA_s140_6.1.0.dir/C_/mesh/deps/nRF5_SDK_15.2.0_9412b96/components/softdevice/common/nrf_sdh_soc.c.obj
 .text          0x00000000        0x0 examples/experimental_lpn/CMakeFiles/lpn_nrf52840_xxAA_s140_6.1.0.dir/C_/mesh/deps/nRF5_SDK_15.2.0_9412b96/components/softdevice/common/nrf_sdh_ble.c.obj
 .data          0x00000000        0x0 examples/experimental_lpn/CMakeFiles/lpn_nrf52840_xxAA_s140_6.1.0.dir/C_/mesh/deps/nRF5_SDK_15.2.0_9412b96/components/softdevice/common/nrf_sdh_ble.c.obj
 .bss           0x00000000        0x0 examples/experimental_lpn/CMakeFiles/lpn_nrf52840_xxAA_s140_6.1.0.dir/C_/mesh/deps/nRF5_SDK_15.2.0_9412b96/components/softdevice/common/nrf_sdh_ble.c.obj
 .text.nrf_sdh_ble_app_ram_start_get
                0x00000000       0x14 examples/experimental_lpn/CMakeFiles/lpn_nrf52840_xxAA_s140_6.1.0.dir/C_/mesh/deps/nRF5_SDK_15.2.0_9412b96/components/softdevice/common/nrf_sdh_ble.c.obj
 .rodata.m_ram_start
                0x00000000        0x4 examples/experimental_lpn/CMakeFiles/lpn_nrf52840_xxAA_s140_6.1.0.dir/C_/mesh/deps/nRF5_SDK_15.2.0_9412b96/components/softdevice/common/nrf_sdh_ble.c.obj
 .text          0x00000000        0x0 examples/experimental_lpn/CMakeFiles/lpn_nrf52840_xxAA_s140_6.1.0.dir/C_/mesh/deps/nRF5_SDK_15.2.0_9412b96/components/softdevice/common/nrf_sdh.c.obj
 .data          0x00000000        0x0 examples/experimental_lpn/CMakeFiles/lpn_nrf52840_xxAA_s140_6.1.0.dir/C_/mesh/deps/nRF5_SDK_15.2.0_9412b96/components/softdevice/common/nrf_sdh.c.obj
 .bss           0x00000000        0x0 examples/experimental_lpn/CMakeFiles/lpn_nrf52840_xxAA_s140_6.1.0.dir/C_/mesh/deps/nRF5_SDK_15.2.0_9412b96/components/softdevice/common/nrf_sdh.c.obj
 .text.nrf_sdh_request_continue
                0x00000000       0x20 examples/experimental_lpn/CMakeFiles/lpn_nrf52840_xxAA_s140_6.1.0.dir/C_/mesh/deps/nRF5_SDK_15.2.0_9412b96/components/softdevice/common/nrf_sdh.c.obj
 .text.nrf_sdh_is_enabled
                0x00000000        0xc examples/experimental_lpn/CMakeFiles/lpn_nrf52840_xxAA_s140_6.1.0.dir/C_/mesh/deps/nRF5_SDK_15.2.0_9412b96/components/softdevice/common/nrf_sdh.c.obj
 .text.nrf_sdh_suspend
                0x00000000       0x1c examples/experimental_lpn/CMakeFiles/lpn_nrf52840_xxAA_s140_6.1.0.dir/C_/mesh/deps/nRF5_SDK_15.2.0_9412b96/components/softdevice/common/nrf_sdh.c.obj
 .text.nrf_sdh_resume
                0x00000000       0x30 examples/experimental_lpn/CMakeFiles/lpn_nrf52840_xxAA_s140_6.1.0.dir/C_/mesh/deps/nRF5_SDK_15.2.0_9412b96/components/softdevice/common/nrf_sdh.c.obj
 .text.nrf_sdh_is_suspended
                0x00000000       0x18 examples/experimental_lpn/CMakeFiles/lpn_nrf52840_xxAA_s140_6.1.0.dir/C_/mesh/deps/nRF5_SDK_15.2.0_9412b96/components/softdevice/common/nrf_sdh.c.obj
 .text          0x00000000        0x0 examples/experimental_lpn/CMakeFiles/lpn_nrf52840_xxAA_s140_6.1.0.dir/C_/mesh/deps/nRF5_SDK_15.2.0_9412b96/components/ble/common/ble_conn_params.c.obj
 .data          0x00000000        0x0 examples/experimental_lpn/CMakeFiles/lpn_nrf52840_xxAA_s140_6.1.0.dir/C_/mesh/deps/nRF5_SDK_15.2.0_9412b96/components/ble/common/ble_conn_params.c.obj
 .bss           0x00000000        0x0 examples/experimental_lpn/CMakeFiles/lpn_nrf52840_xxAA_s140_6.1.0.dir/C_/mesh/deps/nRF5_SDK_15.2.0_9412b96/components/ble/common/ble_conn_params.c.obj
 .text.ble_conn_params_stop
                0x00000000       0x24 examples/experimental_lpn/CMakeFiles/lpn_nrf52840_xxAA_s140_6.1.0.dir/C_/mesh/deps/nRF5_SDK_15.2.0_9412b96/components/ble/common/ble_conn_params.c.obj
 .text.ble_conn_params_change_conn_params
                0x00000000       0x40 examples/experimental_lpn/CMakeFiles/lpn_nrf52840_xxAA_s140_6.1.0.dir/C_/mesh/deps/nRF5_SDK_15.2.0_9412b96/components/ble/common/ble_conn_params.c.obj
 .text          0x00000000        0x0 examples/experimental_lpn/CMakeFiles/lpn_nrf52840_xxAA_s140_6.1.0.dir/C_/mesh/deps/nRF5_SDK_15.2.0_9412b96/components/libraries/atomic/nrf_atomic.c.obj
 .data          0x00000000        0x0 examples/experimental_lpn/CMakeFiles/lpn_nrf52840_xxAA_s140_6.1.0.dir/C_/mesh/deps/nRF5_SDK_15.2.0_9412b96/components/libraries/atomic/nrf_atomic.c.obj
 .bss           0x00000000        0x0 examples/experimental_lpn/CMakeFiles/lpn_nrf52840_xxAA_s140_6.1.0.dir/C_/mesh/deps/nRF5_SDK_15.2.0_9412b96/components/libraries/atomic/nrf_atomic.c.obj
 .text.nrf_atomic_u32_fetch_store
                0x00000000       0x18 examples/experimental_lpn/CMakeFiles/lpn_nrf52840_xxAA_s140_6.1.0.dir/C_/mesh/deps/nRF5_SDK_15.2.0_9412b96/components/libraries/atomic/nrf_atomic.c.obj
 .text.nrf_atomic_u32_store
                0x00000000       0x18 examples/experimental_lpn/CMakeFiles/lpn_nrf52840_xxAA_s140_6.1.0.dir/C_/mesh/deps/nRF5_SDK_15.2.0_9412b96/components/libraries/atomic/nrf_atomic.c.obj
 .text.nrf_atomic_u32_fetch_or
                0x00000000       0x1a examples/experimental_lpn/CMakeFiles/lpn_nrf52840_xxAA_s140_6.1.0.dir/C_/mesh/deps/nRF5_SDK_15.2.0_9412b96/components/libraries/atomic/nrf_atomic.c.obj
 .text.nrf_atomic_u32_or
                0x00000000       0x1a examples/experimental_lpn/CMakeFiles/lpn_nrf52840_xxAA_s140_6.1.0.dir/C_/mesh/deps/nRF5_SDK_15.2.0_9412b96/components/libraries/atomic/nrf_atomic.c.obj
 .text.nrf_atomic_u32_fetch_and
                0x00000000       0x1a examples/experimental_lpn/CMakeFiles/lpn_nrf52840_xxAA_s140_6.1.0.dir/C_/mesh/deps/nRF5_SDK_15.2.0_9412b96/components/libraries/atomic/nrf_atomic.c.obj
 .text.nrf_atomic_u32_and
                0x00000000       0x1a examples/experimental_lpn/CMakeFiles/lpn_nrf52840_xxAA_s140_6.1.0.dir/C_/mesh/deps/nRF5_SDK_15.2.0_9412b96/components/libraries/atomic/nrf_atomic.c.obj
 .text.nrf_atomic_u32_fetch_xor
                0x00000000       0x1a examples/experimental_lpn/CMakeFiles/lpn_nrf52840_xxAA_s140_6.1.0.dir/C_/mesh/deps/nRF5_SDK_15.2.0_9412b96/components/libraries/atomic/nrf_atomic.c.obj
 .text.nrf_atomic_u32_xor
                0x00000000       0x1a examples/experimental_lpn/CMakeFiles/lpn_nrf52840_xxAA_s140_6.1.0.dir/C_/mesh/deps/nRF5_SDK_15.2.0_9412b96/components/libraries/atomic/nrf_atomic.c.obj
 .text.nrf_atomic_u32_fetch_add
                0x00000000       0x1a examples/experimental_lpn/CMakeFiles/lpn_nrf52840_xxAA_s140_6.1.0.dir/C_/mesh/deps/nRF5_SDK_15.2.0_9412b96/components/libraries/atomic/nrf_atomic.c.obj
 .text.nrf_atomic_u32_add
                0x00000000       0x1a examples/experimental_lpn/CMakeFiles/lpn_nrf52840_xxAA_s140_6.1.0.dir/C_/mesh/deps/nRF5_SDK_15.2.0_9412b96/components/libraries/atomic/nrf_atomic.c.obj
 .text.nrf_atomic_u32_fetch_sub
                0x00000000       0x1a examples/experimental_lpn/CMakeFiles/lpn_nrf52840_xxAA_s140_6.1.0.dir/C_/mesh/deps/nRF5_SDK_15.2.0_9412b96/components/libraries/atomic/nrf_atomic.c.obj
 .text.nrf_atomic_u32_sub
                0x00000000       0x1a examples/experimental_lpn/CMakeFiles/lpn_nrf52840_xxAA_s140_6.1.0.dir/C_/mesh/deps/nRF5_SDK_15.2.0_9412b96/components/libraries/atomic/nrf_atomic.c.obj
 .text.nrf_atomic_u32_cmp_exch
                0x00000000       0x2a examples/experimental_lpn/CMakeFiles/lpn_nrf52840_xxAA_s140_6.1.0.dir/C_/mesh/deps/nRF5_SDK_15.2.0_9412b96/components/libraries/atomic/nrf_atomic.c.obj
 .text.nrf_atomic_u32_fetch_sub_hs
                0x00000000       0x1e examples/experimental_lpn/CMakeFiles/lpn_nrf52840_xxAA_s140_6.1.0.dir/C_/mesh/deps/nRF5_SDK_15.2.0_9412b96/components/libraries/atomic/nrf_atomic.c.obj
 .text.nrf_atomic_u32_sub_hs
                0x00000000       0x1e examples/experimental_lpn/CMakeFiles/lpn_nrf52840_xxAA_s140_6.1.0.dir/C_/mesh/deps/nRF5_SDK_15.2.0_9412b96/components/libraries/atomic/nrf_atomic.c.obj
 .text.nrf_atomic_flag_set_fetch
                0x00000000        0x6 examples/experimental_lpn/CMakeFiles/lpn_nrf52840_xxAA_s140_6.1.0.dir/C_/mesh/deps/nRF5_SDK_15.2.0_9412b96/components/libraries/atomic/nrf_atomic.c.obj
 .text.nrf_atomic_flag_set
                0x00000000        0x6 examples/experimental_lpn/CMakeFiles/lpn_nrf52840_xxAA_s140_6.1.0.dir/C_/mesh/deps/nRF5_SDK_15.2.0_9412b96/components/libraries/atomic/nrf_atomic.c.obj
 .text.nrf_atomic_flag_clear_fetch
                0x00000000        0x6 examples/experimental_lpn/CMakeFiles/lpn_nrf52840_xxAA_s140_6.1.0.dir/C_/mesh/deps/nRF5_SDK_15.2.0_9412b96/components/libraries/atomic/nrf_atomic.c.obj
 .text.nrf_atomic_flag_clear
                0x00000000        0x6 examples/experimental_lpn/CMakeFiles/lpn_nrf52840_xxAA_s140_6.1.0.dir/C_/mesh/deps/nRF5_SDK_15.2.0_9412b96/components/libraries/atomic/nrf_atomic.c.obj
 .debug_info    0x00000000     0x10c5 examples/experimental_lpn/CMakeFiles/lpn_nrf52840_xxAA_s140_6.1.0.dir/C_/mesh/deps/nRF5_SDK_15.2.0_9412b96/components/libraries/atomic/nrf_atomic.c.obj
 .debug_abbrev  0x00000000      0x2b6 examples/experimental_lpn/CMakeFiles/lpn_nrf52840_xxAA_s140_6.1.0.dir/C_/mesh/deps/nRF5_SDK_15.2.0_9412b96/components/libraries/atomic/nrf_atomic.c.obj
 .debug_loc     0x00000000      0x2c0 examples/experimental_lpn/CMakeFiles/lpn_nrf52840_xxAA_s140_6.1.0.dir/C_/mesh/deps/nRF5_SDK_15.2.0_9412b96/components/libraries/atomic/nrf_atomic.c.obj
 .debug_aranges
                0x00000000       0xb0 examples/experimental_lpn/CMakeFiles/lpn_nrf52840_xxAA_s140_6.1.0.dir/C_/mesh/deps/nRF5_SDK_15.2.0_9412b96/components/libraries/atomic/nrf_atomic.c.obj
 .debug_ranges  0x00000000       0xb8 examples/experimental_lpn/CMakeFiles/lpn_nrf52840_xxAA_s140_6.1.0.dir/C_/mesh/deps/nRF5_SDK_15.2.0_9412b96/components/libraries/atomic/nrf_atomic.c.obj
 .debug_line    0x00000000      0x3e3 examples/experimental_lpn/CMakeFiles/lpn_nrf52840_xxAA_s140_6.1.0.dir/C_/mesh/deps/nRF5_SDK_15.2.0_9412b96/components/libraries/atomic/nrf_atomic.c.obj
 .debug_str     0x00000000      0x864 examples/experimental_lpn/CMakeFiles/lpn_nrf52840_xxAA_s140_6.1.0.dir/C_/mesh/deps/nRF5_SDK_15.2.0_9412b96/components/libraries/atomic/nrf_atomic.c.obj
 .comment       0x00000000       0x80 examples/experimental_lpn/CMakeFiles/lpn_nrf52840_xxAA_s140_6.1.0.dir/C_/mesh/deps/nRF5_SDK_15.2.0_9412b96/components/libraries/atomic/nrf_atomic.c.obj
 .debug_frame   0x00000000      0x1bc examples/experimental_lpn/CMakeFiles/lpn_nrf52840_xxAA_s140_6.1.0.dir/C_/mesh/deps/nRF5_SDK_15.2.0_9412b96/components/libraries/atomic/nrf_atomic.c.obj
 .ARM.attributes
                0x00000000       0x39 examples/experimental_lpn/CMakeFiles/lpn_nrf52840_xxAA_s140_6.1.0.dir/C_/mesh/deps/nRF5_SDK_15.2.0_9412b96/components/libraries/atomic/nrf_atomic.c.obj
 .text          0x00000000        0x0 examples/experimental_lpn/CMakeFiles/lpn_nrf52840_xxAA_s140_6.1.0.dir/C_/mesh/deps/nRF5_SDK_15.2.0_9412b96/components/ble/common/ble_srv_common.c.obj
 .data          0x00000000        0x0 examples/experimental_lpn/CMakeFiles/lpn_nrf52840_xxAA_s140_6.1.0.dir/C_/mesh/deps/nRF5_SDK_15.2.0_9412b96/components/ble/common/ble_srv_common.c.obj
 .bss           0x00000000        0x0 examples/experimental_lpn/CMakeFiles/lpn_nrf52840_xxAA_s140_6.1.0.dir/C_/mesh/deps/nRF5_SDK_15.2.0_9412b96/components/ble/common/ble_srv_common.c.obj
 .text.sd_ble_gatts_characteristic_add
                0x00000000        0x4 examples/experimental_lpn/CMakeFiles/lpn_nrf52840_xxAA_s140_6.1.0.dir/C_/mesh/deps/nRF5_SDK_15.2.0_9412b96/components/ble/common/ble_srv_common.c.obj
 .text.sd_ble_gatts_descriptor_add
                0x00000000        0x4 examples/experimental_lpn/CMakeFiles/lpn_nrf52840_xxAA_s140_6.1.0.dir/C_/mesh/deps/nRF5_SDK_15.2.0_9412b96/components/ble/common/ble_srv_common.c.obj
 .text.set_security_req
                0x00000000       0x56 examples/experimental_lpn/CMakeFiles/lpn_nrf52840_xxAA_s140_6.1.0.dir/C_/mesh/deps/nRF5_SDK_15.2.0_9412b96/components/ble/common/ble_srv_common.c.obj
 .text.ble_srv_is_indication_enabled
                0x00000000        0x8 examples/experimental_lpn/CMakeFiles/lpn_nrf52840_xxAA_s140_6.1.0.dir/C_/mesh/deps/nRF5_SDK_15.2.0_9412b96/components/ble/common/ble_srv_common.c.obj
 .text.ble_srv_report_ref_encode
                0x00000000        0xc examples/experimental_lpn/CMakeFiles/lpn_nrf52840_xxAA_s140_6.1.0.dir/C_/mesh/deps/nRF5_SDK_15.2.0_9412b96/components/ble/common/ble_srv_common.c.obj
 .text.ble_srv_ascii_to_utf8
                0x00000000       0x12 examples/experimental_lpn/CMakeFiles/lpn_nrf52840_xxAA_s140_6.1.0.dir/C_/mesh/deps/nRF5_SDK_15.2.0_9412b96/components/ble/common/ble_srv_common.c.obj
 .text.characteristic_add
                0x00000000      0x158 examples/experimental_lpn/CMakeFiles/lpn_nrf52840_xxAA_s140_6.1.0.dir/C_/mesh/deps/nRF5_SDK_15.2.0_9412b96/components/ble/common/ble_srv_common.c.obj
 .text.descriptor_add
                0x00000000       0x8a examples/experimental_lpn/CMakeFiles/lpn_nrf52840_xxAA_s140_6.1.0.dir/C_/mesh/deps/nRF5_SDK_15.2.0_9412b96/components/ble/common/ble_srv_common.c.obj
 .text          0x00000000        0x0 examples/experimental_lpn/CMakeFiles/lpn_nrf52840_xxAA_s140_6.1.0.dir/__/nrf_mesh_weak.c.obj
 .data          0x00000000        0x0 examples/experimental_lpn/CMakeFiles/lpn_nrf52840_xxAA_s140_6.1.0.dir/__/nrf_mesh_weak.c.obj
 .bss           0x00000000        0x0 examples/experimental_lpn/CMakeFiles/lpn_nrf52840_xxAA_s140_6.1.0.dir/__/nrf_mesh_weak.c.obj
 .text._weak_handler_ptr
                0x00000000        0x4 examples/experimental_lpn/CMakeFiles/lpn_nrf52840_xxAA_s140_6.1.0.dir/__/nrf_mesh_weak.c.obj
 .text          0x00000000        0x0 examples/experimental_lpn/CMakeFiles/lpn_nrf52840_xxAA_s140_6.1.0.dir/__/common/src/app_error_weak.c.obj
 .data          0x00000000        0x0 examples/experimental_lpn/CMakeFiles/lpn_nrf52840_xxAA_s140_6.1.0.dir/__/common/src/app_error_weak.c.obj
 .bss           0x00000000        0x0 examples/experimental_lpn/CMakeFiles/lpn_nrf52840_xxAA_s140_6.1.0.dir/__/common/src/app_error_weak.c.obj
 .text          0x00000000        0x0 examples/experimental_lpn/CMakeFiles/lpn_nrf52840_xxAA_s140_6.1.0.dir/__/common/src/assertion_handler_weak.c.obj
 .data          0x00000000        0x0 examples/experimental_lpn/CMakeFiles/lpn_nrf52840_xxAA_s140_6.1.0.dir/__/common/src/assertion_handler_weak.c.obj
 .bss           0x00000000        0x0 examples/experimental_lpn/CMakeFiles/lpn_nrf52840_xxAA_s140_6.1.0.dir/__/common/src/assertion_handler_weak.c.obj
 .text          0x00000000        0x0 examples/experimental_lpn/CMakeFiles/lpn_nrf52840_xxAA_s140_6.1.0.dir/__/__/mesh/core/src/internal_event.c.obj
 .data          0x00000000        0x0 examples/experimental_lpn/CMakeFiles/lpn_nrf52840_xxAA_s140_6.1.0.dir/__/__/mesh/core/src/internal_event.c.obj
 .bss           0x00000000        0x0 examples/experimental_lpn/CMakeFiles/lpn_nrf52840_xxAA_s140_6.1.0.dir/__/__/mesh/core/src/internal_event.c.obj
 .debug_info    0x00000000      0x91e examples/experimental_lpn/CMakeFiles/lpn_nrf52840_xxAA_s140_6.1.0.dir/__/__/mesh/core/src/internal_event.c.obj
 .debug_abbrev  0x00000000      0x192 examples/experimental_lpn/CMakeFiles/lpn_nrf52840_xxAA_s140_6.1.0.dir/__/__/mesh/core/src/internal_event.c.obj
 .debug_aranges
                0x00000000       0x18 examples/experimental_lpn/CMakeFiles/lpn_nrf52840_xxAA_s140_6.1.0.dir/__/__/mesh/core/src/internal_event.c.obj
 .debug_line    0x00000000      0x203 examples/experimental_lpn/CMakeFiles/lpn_nrf52840_xxAA_s140_6.1.0.dir/__/__/mesh/core/src/internal_event.c.obj
 .debug_str     0x00000000      0x63c examples/experimental_lpn/CMakeFiles/lpn_nrf52840_xxAA_s140_6.1.0.dir/__/__/mesh/core/src/internal_event.c.obj
 .comment       0x00000000       0x80 examples/experimental_lpn/CMakeFiles/lpn_nrf52840_xxAA_s140_6.1.0.dir/__/__/mesh/core/src/internal_event.c.obj
 .ARM.attributes
                0x00000000       0x39 examples/experimental_lpn/CMakeFiles/lpn_nrf52840_xxAA_s140_6.1.0.dir/__/__/mesh/core/src/internal_event.c.obj
 .text          0x00000000        0x0 examples/experimental_lpn/CMakeFiles/lpn_nrf52840_xxAA_s140_6.1.0.dir/__/__/mesh/core/src/nrf_mesh_configure.c.obj
 .data          0x00000000        0x0 examples/experimental_lpn/CMakeFiles/lpn_nrf52840_xxAA_s140_6.1.0.dir/__/__/mesh/core/src/nrf_mesh_configure.c.obj
 .bss           0x00000000        0x0 examples/experimental_lpn/CMakeFiles/lpn_nrf52840_xxAA_s140_6.1.0.dir/__/__/mesh/core/src/nrf_mesh_configure.c.obj
 .text          0x00000000        0x0 examples/experimental_lpn/CMakeFiles/lpn_nrf52840_xxAA_s140_6.1.0.dir/__/__/mesh/core/src/aes.c.obj
 .data          0x00000000        0x0 examples/experimental_lpn/CMakeFiles/lpn_nrf52840_xxAA_s140_6.1.0.dir/__/__/mesh/core/src/aes.c.obj
 .bss           0x00000000        0x0 examples/experimental_lpn/CMakeFiles/lpn_nrf52840_xxAA_s140_6.1.0.dir/__/__/mesh/core/src/aes.c.obj
 .debug_info    0x00000000       0xb3 examples/experimental_lpn/CMakeFiles/lpn_nrf52840_xxAA_s140_6.1.0.dir/__/__/mesh/core/src/aes.c.obj
 .debug_abbrev  0x00000000       0x5c examples/experimental_lpn/CMakeFiles/lpn_nrf52840_xxAA_s140_6.1.0.dir/__/__/mesh/core/src/aes.c.obj
 .debug_aranges
                0x00000000       0x18 examples/experimental_lpn/CMakeFiles/lpn_nrf52840_xxAA_s140_6.1.0.dir/__/__/mesh/core/src/aes.c.obj
 .debug_line    0x00000000      0x137 examples/experimental_lpn/CMakeFiles/lpn_nrf52840_xxAA_s140_6.1.0.dir/__/__/mesh/core/src/aes.c.obj
 .debug_str     0x00000000      0x201 examples/experimental_lpn/CMakeFiles/lpn_nrf52840_xxAA_s140_6.1.0.dir/__/__/mesh/core/src/aes.c.obj
 .comment       0x00000000       0x80 examples/experimental_lpn/CMakeFiles/lpn_nrf52840_xxAA_s140_6.1.0.dir/__/__/mesh/core/src/aes.c.obj
 .ARM.attributes
                0x00000000       0x39 examples/experimental_lpn/CMakeFiles/lpn_nrf52840_xxAA_s140_6.1.0.dir/__/__/mesh/core/src/aes.c.obj
 .text          0x00000000        0x0 examples/experimental_lpn/CMakeFiles/lpn_nrf52840_xxAA_s140_6.1.0.dir/__/__/mesh/core/src/msg_cache.c.obj
 .data          0x00000000        0x0 examples/experimental_lpn/CMakeFiles/lpn_nrf52840_xxAA_s140_6.1.0.dir/__/__/mesh/core/src/msg_cache.c.obj
 .bss           0x00000000        0x0 examples/experimental_lpn/CMakeFiles/lpn_nrf52840_xxAA_s140_6.1.0.dir/__/__/mesh/core/src/msg_cache.c.obj
 .text.msg_cache_clear
                0x00000000       0x18 examples/experimental_lpn/CMakeFiles/lpn_nrf52840_xxAA_s140_6.1.0.dir/__/__/mesh/core/src/msg_cache.c.obj
 .text          0x00000000        0x0 examples/experimental_lpn/CMakeFiles/lpn_nrf52840_xxAA_s140_6.1.0.dir/__/__/mesh/core/src/transport.c.obj
 .data          0x00000000        0x0 examples/experimental_lpn/CMakeFiles/lpn_nrf52840_xxAA_s140_6.1.0.dir/__/__/mesh/core/src/transport.c.obj
 .bss           0x00000000        0x0 examples/experimental_lpn/CMakeFiles/lpn_nrf52840_xxAA_s140_6.1.0.dir/__/__/mesh/core/src/transport.c.obj
 .text.transport_opt_set
                0x00000000       0xd0 examples/experimental_lpn/CMakeFiles/lpn_nrf52840_xxAA_s140_6.1.0.dir/__/__/mesh/core/src/transport.c.obj
 .text.transport_opt_get
                0x00000000       0x68 examples/experimental_lpn/CMakeFiles/lpn_nrf52840_xxAA_s140_6.1.0.dir/__/__/mesh/core/src/transport.c.obj
 .text          0x00000000        0x0 examples/experimental_lpn/CMakeFiles/lpn_nrf52840_xxAA_s140_6.1.0.dir/__/__/mesh/core/src/event.c.obj
 .data          0x00000000        0x0 examples/experimental_lpn/CMakeFiles/lpn_nrf52840_xxAA_s140_6.1.0.dir/__/__/mesh/core/src/event.c.obj
 .bss           0x00000000        0x0 examples/experimental_lpn/CMakeFiles/lpn_nrf52840_xxAA_s140_6.1.0.dir/__/__/mesh/core/src/event.c.obj
 .text          0x00000000        0x0 examples/experimental_lpn/CMakeFiles/lpn_nrf52840_xxAA_s140_6.1.0.dir/__/__/mesh/core/src/packet_buffer.c.obj
 .data          0x00000000        0x0 examples/experimental_lpn/CMakeFiles/lpn_nrf52840_xxAA_s140_6.1.0.dir/__/__/mesh/core/src/packet_buffer.c.obj
 .bss           0x00000000        0x0 examples/experimental_lpn/CMakeFiles/lpn_nrf52840_xxAA_s140_6.1.0.dir/__/__/mesh/core/src/packet_buffer.c.obj
 .text.packet_buffer_max_packet_len_get
                0x00000000       0x20 examples/experimental_lpn/CMakeFiles/lpn_nrf52840_xxAA_s140_6.1.0.dir/__/__/mesh/core/src/packet_buffer.c.obj
 .text          0x00000000        0x0 examples/experimental_lpn/CMakeFiles/lpn_nrf52840_xxAA_s140_6.1.0.dir/__/__/mesh/core/src/flash_manager_defrag.c.obj
 .data          0x00000000        0x0 examples/experimental_lpn/CMakeFiles/lpn_nrf52840_xxAA_s140_6.1.0.dir/__/__/mesh/core/src/flash_manager_defrag.c.obj
 .bss           0x00000000        0x0 examples/experimental_lpn/CMakeFiles/lpn_nrf52840_xxAA_s140_6.1.0.dir/__/__/mesh/core/src/flash_manager_defrag.c.obj
 .text          0x00000000        0x0 examples/experimental_lpn/CMakeFiles/lpn_nrf52840_xxAA_s140_6.1.0.dir/__/__/mesh/core/src/fifo.c.obj
 .data          0x00000000        0x0 examples/experimental_lpn/CMakeFiles/lpn_nrf52840_xxAA_s140_6.1.0.dir/__/__/mesh/core/src/fifo.c.obj
 .bss           0x00000000        0x0 examples/experimental_lpn/CMakeFiles/lpn_nrf52840_xxAA_s140_6.1.0.dir/__/__/mesh/core/src/fifo.c.obj
 .text.fifo_push
                0x00000000       0x50 examples/experimental_lpn/CMakeFiles/lpn_nrf52840_xxAA_s140_6.1.0.dir/__/__/mesh/core/src/fifo.c.obj
 .text.fifo_peek_at
                0x00000000       0x50 examples/experimental_lpn/CMakeFiles/lpn_nrf52840_xxAA_s140_6.1.0.dir/__/__/mesh/core/src/fifo.c.obj
 .text.fifo_peek
                0x00000000        0x6 examples/experimental_lpn/CMakeFiles/lpn_nrf52840_xxAA_s140_6.1.0.dir/__/__/mesh/core/src/fifo.c.obj
 .text.fifo_flush
                0x00000000        0x6 examples/experimental_lpn/CMakeFiles/lpn_nrf52840_xxAA_s140_6.1.0.dir/__/__/mesh/core/src/fifo.c.obj
 .text.fifo_get_len
                0x00000000        0x8 examples/experimental_lpn/CMakeFiles/lpn_nrf52840_xxAA_s140_6.1.0.dir/__/__/mesh/core/src/fifo.c.obj
 .text.fifo_is_full
                0x00000000       0x10 examples/experimental_lpn/CMakeFiles/lpn_nrf52840_xxAA_s140_6.1.0.dir/__/__/mesh/core/src/fifo.c.obj
 .text.fifo_is_empty
                0x00000000        0xc examples/experimental_lpn/CMakeFiles/lpn_nrf52840_xxAA_s140_6.1.0.dir/__/__/mesh/core/src/fifo.c.obj
 .text          0x00000000        0x0 examples/experimental_lpn/CMakeFiles/lpn_nrf52840_xxAA_s140_6.1.0.dir/__/__/mesh/core/src/nrf_flash.c.obj
 .data          0x00000000        0x0 examples/experimental_lpn/CMakeFiles/lpn_nrf52840_xxAA_s140_6.1.0.dir/__/__/mesh/core/src/nrf_flash.c.obj
 .bss           0x00000000        0x0 examples/experimental_lpn/CMakeFiles/lpn_nrf52840_xxAA_s140_6.1.0.dir/__/__/mesh/core/src/nrf_flash.c.obj
 .text          0x00000000        0x0 examples/experimental_lpn/CMakeFiles/lpn_nrf52840_xxAA_s140_6.1.0.dir/__/__/mesh/core/src/net_state.c.obj
 .data          0x00000000        0x0 examples/experimental_lpn/CMakeFiles/lpn_nrf52840_xxAA_s140_6.1.0.dir/__/__/mesh/core/src/net_state.c.obj
 .bss           0x00000000        0x0 examples/experimental_lpn/CMakeFiles/lpn_nrf52840_xxAA_s140_6.1.0.dir/__/__/mesh/core/src/net_state.c.obj
 .text.net_state_iv_update_test_mode_set
                0x00000000        0xc examples/experimental_lpn/CMakeFiles/lpn_nrf52840_xxAA_s140_6.1.0.dir/__/__/mesh/core/src/net_state.c.obj
 .text.net_state_test_mode_transition_run
                0x00000000       0x2c examples/experimental_lpn/CMakeFiles/lpn_nrf52840_xxAA_s140_6.1.0.dir/__/__/mesh/core/src/net_state.c.obj
 .text          0x00000000        0x0 examples/experimental_lpn/CMakeFiles/lpn_nrf52840_xxAA_s140_6.1.0.dir/__/__/mesh/core/src/mesh_flash.c.obj
 .data          0x00000000        0x0 examples/experimental_lpn/CMakeFiles/lpn_nrf52840_xxAA_s140_6.1.0.dir/__/__/mesh/core/src/mesh_flash.c.obj
 .bss           0x00000000        0x0 examples/experimental_lpn/CMakeFiles/lpn_nrf52840_xxAA_s140_6.1.0.dir/__/__/mesh/core/src/mesh_flash.c.obj
 .text.mesh_flash_op_available_slots
                0x00000000       0x2c examples/experimental_lpn/CMakeFiles/lpn_nrf52840_xxAA_s140_6.1.0.dir/__/__/mesh/core/src/mesh_flash.c.obj
 .text.mesh_flash_in_progress
                0x00000000       0x34 examples/experimental_lpn/CMakeFiles/lpn_nrf52840_xxAA_s140_6.1.0.dir/__/__/mesh/core/src/mesh_flash.c.obj
 .text          0x00000000        0x0 examples/experimental_lpn/CMakeFiles/lpn_nrf52840_xxAA_s140_6.1.0.dir/__/__/mesh/core/src/nrf_mesh_utils.c.obj
 .data          0x00000000        0x0 examples/experimental_lpn/CMakeFiles/lpn_nrf52840_xxAA_s140_6.1.0.dir/__/__/mesh/core/src/nrf_mesh_utils.c.obj
 .bss           0x00000000        0x0 examples/experimental_lpn/CMakeFiles/lpn_nrf52840_xxAA_s140_6.1.0.dir/__/__/mesh/core/src/nrf_mesh_utils.c.obj
 .text.nrf_mesh_rand_get
                0x00000000       0x10 examples/experimental_lpn/CMakeFiles/lpn_nrf52840_xxAA_s140_6.1.0.dir/__/__/mesh/core/src/nrf_mesh_utils.c.obj
 .text.nrf_mesh_gap_address_type_get
                0x00000000       0x30 examples/experimental_lpn/CMakeFiles/lpn_nrf52840_xxAA_s140_6.1.0.dir/__/__/mesh/core/src/nrf_mesh_utils.c.obj
 .text          0x00000000        0x0 examples/experimental_lpn/CMakeFiles/lpn_nrf52840_xxAA_s140_6.1.0.dir/__/__/mesh/core/src/nrf_mesh.c.obj
 .data          0x00000000        0x0 examples/experimental_lpn/CMakeFiles/lpn_nrf52840_xxAA_s140_6.1.0.dir/__/__/mesh/core/src/nrf_mesh.c.obj
 .bss           0x00000000        0x0 examples/experimental_lpn/CMakeFiles/lpn_nrf52840_xxAA_s140_6.1.0.dir/__/__/mesh/core/src/nrf_mesh.c.obj
 .text.nrf_mesh_process
                0x00000000        0x4 examples/experimental_lpn/CMakeFiles/lpn_nrf52840_xxAA_s140_6.1.0.dir/__/__/mesh/core/src/nrf_mesh.c.obj
 .text.nrf_mesh_rx_cb_set
                0x00000000        0xc examples/experimental_lpn/CMakeFiles/lpn_nrf52840_xxAA_s140_6.1.0.dir/__/__/mesh/core/src/nrf_mesh.c.obj
 .text.nrf_mesh_rx_cb_clear
                0x00000000        0xc examples/experimental_lpn/CMakeFiles/lpn_nrf52840_xxAA_s140_6.1.0.dir/__/__/mesh/core/src/nrf_mesh.c.obj
 .text          0x00000000        0x0 examples/experimental_lpn/CMakeFiles/lpn_nrf52840_xxAA_s140_6.1.0.dir/__/__/mesh/core/src/queue.c.obj
 .data          0x00000000        0x0 examples/experimental_lpn/CMakeFiles/lpn_nrf52840_xxAA_s140_6.1.0.dir/__/__/mesh/core/src/queue.c.obj
 .bss           0x00000000        0x0 examples/experimental_lpn/CMakeFiles/lpn_nrf52840_xxAA_s140_6.1.0.dir/__/__/mesh/core/src/queue.c.obj
 .text          0x00000000        0x0 examples/experimental_lpn/CMakeFiles/lpn_nrf52840_xxAA_s140_6.1.0.dir/__/__/mesh/core/src/hal.c.obj
 .data          0x00000000        0x0 examples/experimental_lpn/CMakeFiles/lpn_nrf52840_xxAA_s140_6.1.0.dir/__/__/mesh/core/src/hal.c.obj
 .bss           0x00000000        0x0 examples/experimental_lpn/CMakeFiles/lpn_nrf52840_xxAA_s140_6.1.0.dir/__/__/mesh/core/src/hal.c.obj
 .text          0x00000000        0x0 examples/experimental_lpn/CMakeFiles/lpn_nrf52840_xxAA_s140_6.1.0.dir/__/__/mesh/core/src/aes_cmac.c.obj
 .data          0x00000000        0x0 examples/experimental_lpn/CMakeFiles/lpn_nrf52840_xxAA_s140_6.1.0.dir/__/__/mesh/core/src/aes_cmac.c.obj
 .bss           0x00000000        0x0 examples/experimental_lpn/CMakeFiles/lpn_nrf52840_xxAA_s140_6.1.0.dir/__/__/mesh/core/src/aes_cmac.c.obj
 .text          0x00000000        0x0 examples/experimental_lpn/CMakeFiles/lpn_nrf52840_xxAA_s140_6.1.0.dir/__/__/mesh/core/src/timer_scheduler.c.obj
 .data          0x00000000        0x0 examples/experimental_lpn/CMakeFiles/lpn_nrf52840_xxAA_s140_6.1.0.dir/__/__/mesh/core/src/timer_scheduler.c.obj
 .bss           0x00000000        0x0 examples/experimental_lpn/CMakeFiles/lpn_nrf52840_xxAA_s140_6.1.0.dir/__/__/mesh/core/src/timer_scheduler.c.obj
 .text          0x00000000        0x0 examples/experimental_lpn/CMakeFiles/lpn_nrf52840_xxAA_s140_6.1.0.dir/__/__/mesh/core/src/timer.c.obj
 .data          0x00000000        0x0 examples/experimental_lpn/CMakeFiles/lpn_nrf52840_xxAA_s140_6.1.0.dir/__/__/mesh/core/src/timer.c.obj
 .bss           0x00000000        0x0 examples/experimental_lpn/CMakeFiles/lpn_nrf52840_xxAA_s140_6.1.0.dir/__/__/mesh/core/src/timer.c.obj
 .text          0x00000000        0x0 examples/experimental_lpn/CMakeFiles/lpn_nrf52840_xxAA_s140_6.1.0.dir/__/__/mesh/core/src/rand.c.obj
 .data          0x00000000        0x0 examples/experimental_lpn/CMakeFiles/lpn_nrf52840_xxAA_s140_6.1.0.dir/__/__/mesh/core/src/rand.c.obj
 .bss           0x00000000        0x0 examples/experimental_lpn/CMakeFiles/lpn_nrf52840_xxAA_s140_6.1.0.dir/__/__/mesh/core/src/rand.c.obj
 .text          0x00000000        0x0 examples/experimental_lpn/CMakeFiles/lpn_nrf52840_xxAA_s140_6.1.0.dir/__/__/mesh/core/src/nrf_mesh_opt.c.obj
 .data          0x00000000        0x0 examples/experimental_lpn/CMakeFiles/lpn_nrf52840_xxAA_s140_6.1.0.dir/__/__/mesh/core/src/nrf_mesh_opt.c.obj
 .bss           0x00000000        0x0 examples/experimental_lpn/CMakeFiles/lpn_nrf52840_xxAA_s140_6.1.0.dir/__/__/mesh/core/src/nrf_mesh_opt.c.obj
 .text.nrf_mesh_opt_set
                0x00000000       0x26 examples/experimental_lpn/CMakeFiles/lpn_nrf52840_xxAA_s140_6.1.0.dir/__/__/mesh/core/src/nrf_mesh_opt.c.obj
 .text.nrf_mesh_opt_get
                0x00000000       0x26 examples/experimental_lpn/CMakeFiles/lpn_nrf52840_xxAA_s140_6.1.0.dir/__/__/mesh/core/src/nrf_mesh_opt.c.obj
 .debug_info    0x00000000      0xb2e examples/experimental_lpn/CMakeFiles/lpn_nrf52840_xxAA_s140_6.1.0.dir/__/__/mesh/core/src/nrf_mesh_opt.c.obj
 .debug_abbrev  0x00000000      0x24a examples/experimental_lpn/CMakeFiles/lpn_nrf52840_xxAA_s140_6.1.0.dir/__/__/mesh/core/src/nrf_mesh_opt.c.obj
 .debug_loc     0x00000000      0x194 examples/experimental_lpn/CMakeFiles/lpn_nrf52840_xxAA_s140_6.1.0.dir/__/__/mesh/core/src/nrf_mesh_opt.c.obj
 .debug_aranges
                0x00000000       0x28 examples/experimental_lpn/CMakeFiles/lpn_nrf52840_xxAA_s140_6.1.0.dir/__/__/mesh/core/src/nrf_mesh_opt.c.obj
 .debug_ranges  0x00000000       0x18 examples/experimental_lpn/CMakeFiles/lpn_nrf52840_xxAA_s140_6.1.0.dir/__/__/mesh/core/src/nrf_mesh_opt.c.obj
 .debug_line    0x00000000      0x2b7 examples/experimental_lpn/CMakeFiles/lpn_nrf52840_xxAA_s140_6.1.0.dir/__/__/mesh/core/src/nrf_mesh_opt.c.obj
 .debug_str     0x00000000      0x96c examples/experimental_lpn/CMakeFiles/lpn_nrf52840_xxAA_s140_6.1.0.dir/__/__/mesh/core/src/nrf_mesh_opt.c.obj
 .comment       0x00000000       0x80 examples/experimental_lpn/CMakeFiles/lpn_nrf52840_xxAA_s140_6.1.0.dir/__/__/mesh/core/src/nrf_mesh_opt.c.obj
 .debug_frame   0x00000000       0x30 examples/experimental_lpn/CMakeFiles/lpn_nrf52840_xxAA_s140_6.1.0.dir/__/__/mesh/core/src/nrf_mesh_opt.c.obj
 .ARM.attributes
                0x00000000       0x39 examples/experimental_lpn/CMakeFiles/lpn_nrf52840_xxAA_s140_6.1.0.dir/__/__/mesh/core/src/nrf_mesh_opt.c.obj
 .text          0x00000000        0x0 examples/experimental_lpn/CMakeFiles/lpn_nrf52840_xxAA_s140_6.1.0.dir/__/__/mesh/core/src/mesh_opt.c.obj
 .data          0x00000000        0x0 examples/experimental_lpn/CMakeFiles/lpn_nrf52840_xxAA_s140_6.1.0.dir/__/__/mesh/core/src/mesh_opt.c.obj
 .bss           0x00000000        0x0 examples/experimental_lpn/CMakeFiles/lpn_nrf52840_xxAA_s140_6.1.0.dir/__/__/mesh/core/src/mesh_opt.c.obj
 .text          0x00000000        0x0 examples/experimental_lpn/CMakeFiles/lpn_nrf52840_xxAA_s140_6.1.0.dir/__/__/mesh/core/src/timeslot.c.obj
 .data          0x00000000        0x0 examples/experimental_lpn/CMakeFiles/lpn_nrf52840_xxAA_s140_6.1.0.dir/__/__/mesh/core/src/timeslot.c.obj
 .bss           0x00000000        0x0 examples/experimental_lpn/CMakeFiles/lpn_nrf52840_xxAA_s140_6.1.0.dir/__/__/mesh/core/src/timeslot.c.obj
 .text.timeslot_state_listener
                0x00000000        0x2 examples/experimental_lpn/CMakeFiles/lpn_nrf52840_xxAA_s140_6.1.0.dir/__/__/mesh/core/src/timeslot.c.obj
 .text.timeslot_end_time_get
                0x00000000       0x14 examples/experimental_lpn/CMakeFiles/lpn_nrf52840_xxAA_s140_6.1.0.dir/__/__/mesh/core/src/timeslot.c.obj
 .text.timeslot_is_in_ts
                0x00000000        0xc examples/experimental_lpn/CMakeFiles/lpn_nrf52840_xxAA_s140_6.1.0.dir/__/__/mesh/core/src/timeslot.c.obj
 .text.timeslot_count_get
                0x00000000        0xc examples/experimental_lpn/CMakeFiles/lpn_nrf52840_xxAA_s140_6.1.0.dir/__/__/mesh/core/src/timeslot.c.obj
 .text          0x00000000        0x0 examples/experimental_lpn/CMakeFiles/lpn_nrf52840_xxAA_s140_6.1.0.dir/__/__/mesh/core/src/timeslot_timer.c.obj
 .data          0x00000000        0x0 examples/experimental_lpn/CMakeFiles/lpn_nrf52840_xxAA_s140_6.1.0.dir/__/__/mesh/core/src/timeslot_timer.c.obj
 .bss           0x00000000        0x0 examples/experimental_lpn/CMakeFiles/lpn_nrf52840_xxAA_s140_6.1.0.dir/__/__/mesh/core/src/timeslot_timer.c.obj
 .text.ts_timer_order_cb_ppi
                0x00000000       0x94 examples/experimental_lpn/CMakeFiles/lpn_nrf52840_xxAA_s140_6.1.0.dir/__/__/mesh/core/src/timeslot_timer.c.obj
 .text.ts_timer_order_ppi
                0x00000000       0x94 examples/experimental_lpn/CMakeFiles/lpn_nrf52840_xxAA_s140_6.1.0.dir/__/__/mesh/core/src/timeslot_timer.c.obj
 .text.ts_timer_abort
                0x00000000       0x70 examples/experimental_lpn/CMakeFiles/lpn_nrf52840_xxAA_s140_6.1.0.dir/__/__/mesh/core/src/timeslot_timer.c.obj
 .text.ts_timer_start_get
                0x00000000        0xc examples/experimental_lpn/CMakeFiles/lpn_nrf52840_xxAA_s140_6.1.0.dir/__/__/mesh/core/src/timeslot_timer.c.obj
 .text          0x00000000        0x0 examples/experimental_lpn/CMakeFiles/lpn_nrf52840_xxAA_s140_6.1.0.dir/__/__/mesh/core/src/bearer_event.c.obj
 .data          0x00000000        0x0 examples/experimental_lpn/CMakeFiles/lpn_nrf52840_xxAA_s140_6.1.0.dir/__/__/mesh/core/src/bearer_event.c.obj
 .bss           0x00000000        0x0 examples/experimental_lpn/CMakeFiles/lpn_nrf52840_xxAA_s140_6.1.0.dir/__/__/mesh/core/src/bearer_event.c.obj
 .text.bearer_event_generic_post
                0x00000000       0x34 examples/experimental_lpn/CMakeFiles/lpn_nrf52840_xxAA_s140_6.1.0.dir/__/__/mesh/core/src/bearer_event.c.obj
 .text.bearer_event_timer_sch_post
                0x00000000       0x38 examples/experimental_lpn/CMakeFiles/lpn_nrf52840_xxAA_s140_6.1.0.dir/__/__/mesh/core/src/bearer_event.c.obj
 .text          0x00000000        0x0 examples/experimental_lpn/CMakeFiles/lpn_nrf52840_xxAA_s140_6.1.0.dir/__/__/mesh/core/src/enc.c.obj
 .data          0x00000000        0x0 examples/experimental_lpn/CMakeFiles/lpn_nrf52840_xxAA_s140_6.1.0.dir/__/__/mesh/core/src/enc.c.obj
 .bss           0x00000000        0x0 examples/experimental_lpn/CMakeFiles/lpn_nrf52840_xxAA_s140_6.1.0.dir/__/__/mesh/core/src/enc.c.obj
 .text.enc_key_generate
                0x00000000        0x6 examples/experimental_lpn/CMakeFiles/lpn_nrf52840_xxAA_s140_6.1.0.dir/__/__/mesh/core/src/enc.c.obj
 .text          0x00000000        0x0 examples/experimental_lpn/CMakeFiles/lpn_nrf52840_xxAA_s140_6.1.0.dir/__/__/mesh/core/src/network.c.obj
 .data          0x00000000        0x0 examples/experimental_lpn/CMakeFiles/lpn_nrf52840_xxAA_s140_6.1.0.dir/__/__/mesh/core/src/network.c.obj
 .bss           0x00000000        0x0 examples/experimental_lpn/CMakeFiles/lpn_nrf52840_xxAA_s140_6.1.0.dir/__/__/mesh/core/src/network.c.obj
 .text.network_packet_discard
                0x00000000       0x1e examples/experimental_lpn/CMakeFiles/lpn_nrf52840_xxAA_s140_6.1.0.dir/__/__/mesh/core/src/network.c.obj
 .text.network_opt_set
                0x00000000       0xc0 examples/experimental_lpn/CMakeFiles/lpn_nrf52840_xxAA_s140_6.1.0.dir/__/__/mesh/core/src/network.c.obj
 .text.network_opt_get
                0x00000000       0x88 examples/experimental_lpn/CMakeFiles/lpn_nrf52840_xxAA_s140_6.1.0.dir/__/__/mesh/core/src/network.c.obj
 .text          0x00000000        0x0 examples/experimental_lpn/CMakeFiles/lpn_nrf52840_xxAA_s140_6.1.0.dir/__/__/mesh/core/src/net_packet.c.obj
 .data          0x00000000        0x0 examples/experimental_lpn/CMakeFiles/lpn_nrf52840_xxAA_s140_6.1.0.dir/__/__/mesh/core/src/net_packet.c.obj
 .bss           0x00000000        0x0 examples/experimental_lpn/CMakeFiles/lpn_nrf52840_xxAA_s140_6.1.0.dir/__/__/mesh/core/src/net_packet.c.obj
 .text.net_packet_enc_start_get
                0x00000000        0x4 examples/experimental_lpn/CMakeFiles/lpn_nrf52840_xxAA_s140_6.1.0.dir/__/__/mesh/core/src/net_packet.c.obj
 .text          0x00000000        0x0 examples/experimental_lpn/CMakeFiles/lpn_nrf52840_xxAA_s140_6.1.0.dir/__/__/mesh/core/src/msqueue.c.obj
 .data          0x00000000        0x0 examples/experimental_lpn/CMakeFiles/lpn_nrf52840_xxAA_s140_6.1.0.dir/__/__/mesh/core/src/msqueue.c.obj
 .bss           0x00000000        0x0 examples/experimental_lpn/CMakeFiles/lpn_nrf52840_xxAA_s140_6.1.0.dir/__/__/mesh/core/src/msqueue.c.obj
 .text          0x00000000        0x0 examples/experimental_lpn/CMakeFiles/lpn_nrf52840_xxAA_s140_6.1.0.dir/__/__/mesh/core/src/nrf_mesh_keygen.c.obj
 .data          0x00000000        0x0 examples/experimental_lpn/CMakeFiles/lpn_nrf52840_xxAA_s140_6.1.0.dir/__/__/mesh/core/src/nrf_mesh_keygen.c.obj
 .bss           0x00000000        0x0 examples/experimental_lpn/CMakeFiles/lpn_nrf52840_xxAA_s140_6.1.0.dir/__/__/mesh/core/src/nrf_mesh_keygen.c.obj
 .text          0x00000000        0x0 examples/experimental_lpn/CMakeFiles/lpn_nrf52840_xxAA_s140_6.1.0.dir/__/__/mesh/core/src/cache.c.obj
 .data          0x00000000        0x0 examples/experimental_lpn/CMakeFiles/lpn_nrf52840_xxAA_s140_6.1.0.dir/__/__/mesh/core/src/cache.c.obj
 .bss           0x00000000        0x0 examples/experimental_lpn/CMakeFiles/lpn_nrf52840_xxAA_s140_6.1.0.dir/__/__/mesh/core/src/cache.c.obj
 .text.cache_erase_elem
                0x00000000       0x4c examples/experimental_lpn/CMakeFiles/lpn_nrf52840_xxAA_s140_6.1.0.dir/__/__/mesh/core/src/cache.c.obj
 .text          0x00000000        0x0 examples/experimental_lpn/CMakeFiles/lpn_nrf52840_xxAA_s140_6.1.0.dir/__/__/mesh/core/src/list.c.obj
 .data          0x00000000        0x0 examples/experimental_lpn/CMakeFiles/lpn_nrf52840_xxAA_s140_6.1.0.dir/__/__/mesh/core/src/list.c.obj
 .bss           0x00000000        0x0 examples/experimental_lpn/CMakeFiles/lpn_nrf52840_xxAA_s140_6.1.0.dir/__/__/mesh/core/src/list.c.obj
 .text.list_size_get
                0x00000000       0x12 examples/experimental_lpn/CMakeFiles/lpn_nrf52840_xxAA_s140_6.1.0.dir/__/__/mesh/core/src/list.c.obj
 .text.list_sorted_add
                0x00000000       0x6c examples/experimental_lpn/CMakeFiles/lpn_nrf52840_xxAA_s140_6.1.0.dir/__/__/mesh/core/src/list.c.obj
 .text          0x00000000        0x0 examples/experimental_lpn/CMakeFiles/lpn_nrf52840_xxAA_s140_6.1.0.dir/__/__/mesh/core/src/log.c.obj
 .data          0x00000000        0x0 examples/experimental_lpn/CMakeFiles/lpn_nrf52840_xxAA_s140_6.1.0.dir/__/__/mesh/core/src/log.c.obj
 .bss           0x00000000        0x0 examples/experimental_lpn/CMakeFiles/lpn_nrf52840_xxAA_s140_6.1.0.dir/__/__/mesh/core/src/log.c.obj
 .text.log_callback_logview
                0x00000000       0x38 examples/experimental_lpn/CMakeFiles/lpn_nrf52840_xxAA_s140_6.1.0.dir/__/__/mesh/core/src/log.c.obj
 .text.log_set_callback
                0x00000000        0xc examples/experimental_lpn/CMakeFiles/lpn_nrf52840_xxAA_s140_6.1.0.dir/__/__/mesh/core/src/log.c.obj
 .rodata.log_callback_logview.str1.1
                0x00000000        0xf examples/experimental_lpn/CMakeFiles/lpn_nrf52840_xxAA_s140_6.1.0.dir/__/__/mesh/core/src/log.c.obj
 .text          0x00000000        0x0 examples/experimental_lpn/CMakeFiles/lpn_nrf52840_xxAA_s140_6.1.0.dir/__/__/mesh/core/src/flash_manager.c.obj
 .data          0x00000000        0x0 examples/experimental_lpn/CMakeFiles/lpn_nrf52840_xxAA_s140_6.1.0.dir/__/__/mesh/core/src/flash_manager.c.obj
 .bss           0x00000000        0x0 examples/experimental_lpn/CMakeFiles/lpn_nrf52840_xxAA_s140_6.1.0.dir/__/__/mesh/core/src/flash_manager.c.obj
 .text.flash_manager_entry_get
                0x00000000       0x3c examples/experimental_lpn/CMakeFiles/lpn_nrf52840_xxAA_s140_6.1.0.dir/__/__/mesh/core/src/flash_manager.c.obj
 .text.flash_manager_entry_next_get
                0x00000000       0x60 examples/experimental_lpn/CMakeFiles/lpn_nrf52840_xxAA_s140_6.1.0.dir/__/__/mesh/core/src/flash_manager.c.obj
 .text.flash_manager_entry_release
                0x00000000       0x2c examples/experimental_lpn/CMakeFiles/lpn_nrf52840_xxAA_s140_6.1.0.dir/__/__/mesh/core/src/flash_manager.c.obj
 .text          0x00000000        0x0 examples/experimental_lpn/CMakeFiles/lpn_nrf52840_xxAA_s140_6.1.0.dir/__/__/mesh/core/src/ccm_soft.c.obj
 .data          0x00000000        0x0 examples/experimental_lpn/CMakeFiles/lpn_nrf52840_xxAA_s140_6.1.0.dir/__/__/mesh/core/src/ccm_soft.c.obj
 .bss           0x00000000        0x0 examples/experimental_lpn/CMakeFiles/lpn_nrf52840_xxAA_s140_6.1.0.dir/__/__/mesh/core/src/ccm_soft.c.obj
 .text          0x00000000        0x0 examples/experimental_lpn/CMakeFiles/lpn_nrf52840_xxAA_s140_6.1.0.dir/__/__/mesh/core/src/toolchain.c.obj
 .data          0x00000000        0x0 examples/experimental_lpn/CMakeFiles/lpn_nrf52840_xxAA_s140_6.1.0.dir/__/__/mesh/core/src/toolchain.c.obj
 .bss           0x00000000        0x0 examples/experimental_lpn/CMakeFiles/lpn_nrf52840_xxAA_s140_6.1.0.dir/__/__/mesh/core/src/toolchain.c.obj
 .debug_info    0x00000000       0xb3 examples/experimental_lpn/CMakeFiles/lpn_nrf52840_xxAA_s140_6.1.0.dir/__/__/mesh/core/src/toolchain.c.obj
 .debug_abbrev  0x00000000       0x5c examples/experimental_lpn/CMakeFiles/lpn_nrf52840_xxAA_s140_6.1.0.dir/__/__/mesh/core/src/toolchain.c.obj
 .debug_aranges
                0x00000000       0x18 examples/experimental_lpn/CMakeFiles/lpn_nrf52840_xxAA_s140_6.1.0.dir/__/__/mesh/core/src/toolchain.c.obj
 .debug_line    0x00000000      0x137 examples/experimental_lpn/CMakeFiles/lpn_nrf52840_xxAA_s140_6.1.0.dir/__/__/mesh/core/src/toolchain.c.obj
 .debug_str     0x00000000      0x207 examples/experimental_lpn/CMakeFiles/lpn_nrf52840_xxAA_s140_6.1.0.dir/__/__/mesh/core/src/toolchain.c.obj
 .comment       0x00000000       0x80 examples/experimental_lpn/CMakeFiles/lpn_nrf52840_xxAA_s140_6.1.0.dir/__/__/mesh/core/src/toolchain.c.obj
 .ARM.attributes
                0x00000000       0x39 examples/experimental_lpn/CMakeFiles/lpn_nrf52840_xxAA_s140_6.1.0.dir/__/__/mesh/core/src/toolchain.c.obj
 .text          0x00000000        0x0 examples/experimental_lpn/CMakeFiles/lpn_nrf52840_xxAA_s140_6.1.0.dir/__/__/mesh/core/src/replay_cache.c.obj
 .data          0x00000000        0x0 examples/experimental_lpn/CMakeFiles/lpn_nrf52840_xxAA_s140_6.1.0.dir/__/__/mesh/core/src/replay_cache.c.obj
 .bss           0x00000000        0x0 examples/experimental_lpn/CMakeFiles/lpn_nrf52840_xxAA_s140_6.1.0.dir/__/__/mesh/core/src/replay_cache.c.obj
 .text.replay_cache_on_iv_update
                0x00000000       0x24 examples/experimental_lpn/CMakeFiles/lpn_nrf52840_xxAA_s140_6.1.0.dir/__/__/mesh/core/src/replay_cache.c.obj
 .text          0x00000000        0x0 examples/experimental_lpn/CMakeFiles/lpn_nrf52840_xxAA_s140_6.1.0.dir/__/__/mesh/core/src/beacon.c.obj
 .data          0x00000000        0x0 examples/experimental_lpn/CMakeFiles/lpn_nrf52840_xxAA_s140_6.1.0.dir/__/__/mesh/core/src/beacon.c.obj
 .bss           0x00000000        0x0 examples/experimental_lpn/CMakeFiles/lpn_nrf52840_xxAA_s140_6.1.0.dir/__/__/mesh/core/src/beacon.c.obj
 .text          0x00000000        0x0 examples/experimental_lpn/CMakeFiles/lpn_nrf52840_xxAA_s140_6.1.0.dir/__/__/mesh/core/src/flash_manager_internal.c.obj
 .data          0x00000000        0x0 examples/experimental_lpn/CMakeFiles/lpn_nrf52840_xxAA_s140_6.1.0.dir/__/__/mesh/core/src/flash_manager_internal.c.obj
 .bss           0x00000000        0x0 examples/experimental_lpn/CMakeFiles/lpn_nrf52840_xxAA_s140_6.1.0.dir/__/__/mesh/core/src/flash_manager_internal.c.obj
 .text          0x00000000        0x0 examples/experimental_lpn/CMakeFiles/lpn_nrf52840_xxAA_s140_6.1.0.dir/__/__/mesh/core/src/core_tx.c.obj
 .data          0x00000000        0x0 examples/experimental_lpn/CMakeFiles/lpn_nrf52840_xxAA_s140_6.1.0.dir/__/__/mesh/core/src/core_tx.c.obj
 .bss           0x00000000        0x0 examples/experimental_lpn/CMakeFiles/lpn_nrf52840_xxAA_s140_6.1.0.dir/__/__/mesh/core/src/core_tx.c.obj
 .text.core_tx_bearer_type_get
                0x00000000       0x1c examples/experimental_lpn/CMakeFiles/lpn_nrf52840_xxAA_s140_6.1.0.dir/__/__/mesh/core/src/core_tx.c.obj
 .text.core_tx_bearer_count_get
                0x00000000        0xc examples/experimental_lpn/CMakeFiles/lpn_nrf52840_xxAA_s140_6.1.0.dir/__/__/mesh/core/src/core_tx.c.obj
 .text          0x00000000        0x0 examples/experimental_lpn/CMakeFiles/lpn_nrf52840_xxAA_s140_6.1.0.dir/__/__/mesh/core/src/heartbeat.c.obj
 .data          0x00000000        0x0 examples/experimental_lpn/CMakeFiles/lpn_nrf52840_xxAA_s140_6.1.0.dir/__/__/mesh/core/src/heartbeat.c.obj
 .bss           0x00000000        0x0 examples/experimental_lpn/CMakeFiles/lpn_nrf52840_xxAA_s140_6.1.0.dir/__/__/mesh/core/src/heartbeat.c.obj
 .text          0x00000000        0x0 examples/experimental_lpn/CMakeFiles/lpn_nrf52840_xxAA_s140_6.1.0.dir/__/__/mesh/core/src/net_beacon.c.obj
 .data          0x00000000        0x0 examples/experimental_lpn/CMakeFiles/lpn_nrf52840_xxAA_s140_6.1.0.dir/__/__/mesh/core/src/net_beacon.c.obj
 .bss           0x00000000        0x0 examples/experimental_lpn/CMakeFiles/lpn_nrf52840_xxAA_s140_6.1.0.dir/__/__/mesh/core/src/net_beacon.c.obj
 .text.net_beacon_enable
                0x00000000       0x28 examples/experimental_lpn/CMakeFiles/lpn_nrf52840_xxAA_s140_6.1.0.dir/__/__/mesh/core/src/net_beacon.c.obj
 .text          0x00000000        0x0 examples/experimental_lpn/CMakeFiles/lpn_nrf52840_xxAA_s140_6.1.0.dir/__/__/mesh/core/src/mesh_config.c.obj
 .data          0x00000000        0x0 examples/experimental_lpn/CMakeFiles/lpn_nrf52840_xxAA_s140_6.1.0.dir/__/__/mesh/core/src/mesh_config.c.obj
 .bss           0x00000000        0x0 examples/experimental_lpn/CMakeFiles/lpn_nrf52840_xxAA_s140_6.1.0.dir/__/__/mesh/core/src/mesh_config.c.obj
 .text.mesh_config_power_down
                0x00000000        0x6 examples/experimental_lpn/CMakeFiles/lpn_nrf52840_xxAA_s140_6.1.0.dir/__/__/mesh/core/src/mesh_config.c.obj
 .text.mesh_config_entry_available_id
                0x00000000       0x36 examples/experimental_lpn/CMakeFiles/lpn_nrf52840_xxAA_s140_6.1.0.dir/__/__/mesh/core/src/mesh_config.c.obj
 .text.mesh_config_entry_delete
                0x00000000       0x74 examples/experimental_lpn/CMakeFiles/lpn_nrf52840_xxAA_s140_6.1.0.dir/__/__/mesh/core/src/mesh_config.c.obj
 .text.mesh_config_power_down_time_get
                0x00000000        0x4 examples/experimental_lpn/CMakeFiles/lpn_nrf52840_xxAA_s140_6.1.0.dir/__/__/mesh/core/src/mesh_config.c.obj
 .text          0x00000000        0x0 examples/experimental_lpn/CMakeFiles/lpn_nrf52840_xxAA_s140_6.1.0.dir/__/__/mesh/core/src/fsm.c.obj
 .data          0x00000000        0x0 examples/experimental_lpn/CMakeFiles/lpn_nrf52840_xxAA_s140_6.1.0.dir/__/__/mesh/core/src/fsm.c.obj
 .bss           0x00000000        0x0 examples/experimental_lpn/CMakeFiles/lpn_nrf52840_xxAA_s140_6.1.0.dir/__/__/mesh/core/src/fsm.c.obj
 .text          0x00000000        0x0 examples/experimental_lpn/CMakeFiles/lpn_nrf52840_xxAA_s140_6.1.0.dir/__/__/mesh/core/src/mesh_config_backend.c.obj
 .data          0x00000000        0x0 examples/experimental_lpn/CMakeFiles/lpn_nrf52840_xxAA_s140_6.1.0.dir/__/__/mesh/core/src/mesh_config_backend.c.obj
 .bss           0x00000000        0x0 examples/experimental_lpn/CMakeFiles/lpn_nrf52840_xxAA_s140_6.1.0.dir/__/__/mesh/core/src/mesh_config_backend.c.obj
 .text.mesh_config_backend_read
                0x00000000       0x58 examples/experimental_lpn/CMakeFiles/lpn_nrf52840_xxAA_s140_6.1.0.dir/__/__/mesh/core/src/mesh_config_backend.c.obj
 .text.mesh_config_backend_power_down_time_get
                0x00000000        0xc examples/experimental_lpn/CMakeFiles/lpn_nrf52840_xxAA_s140_6.1.0.dir/__/__/mesh/core/src/mesh_config_backend.c.obj
 .text          0x00000000        0x0 examples/experimental_lpn/CMakeFiles/lpn_nrf52840_xxAA_s140_6.1.0.dir/__/__/mesh/core/src/mesh_config_flashman_glue.c.obj
 .data          0x00000000        0x0 examples/experimental_lpn/CMakeFiles/lpn_nrf52840_xxAA_s140_6.1.0.dir/__/__/mesh/core/src/mesh_config_flashman_glue.c.obj
 .bss           0x00000000        0x0 examples/experimental_lpn/CMakeFiles/lpn_nrf52840_xxAA_s140_6.1.0.dir/__/__/mesh/core/src/mesh_config_flashman_glue.c.obj
 .text.mesh_config_backend_record_read
                0x00000000       0x34 examples/experimental_lpn/CMakeFiles/lpn_nrf52840_xxAA_s140_6.1.0.dir/__/__/mesh/core/src/mesh_config_flashman_glue.c.obj
 .text.mesh_config_backend_flash_usage_get
                0x00000000       0x24 examples/experimental_lpn/CMakeFiles/lpn_nrf52840_xxAA_s140_6.1.0.dir/__/__/mesh/core/src/mesh_config_flashman_glue.c.obj
 .text          0x00000000        0x0 examples/experimental_lpn/CMakeFiles/lpn_nrf52840_xxAA_s140_6.1.0.dir/__/__/mesh/core/src/lpn.c.obj
 .data          0x00000000        0x0 examples/experimental_lpn/CMakeFiles/lpn_nrf52840_xxAA_s140_6.1.0.dir/__/__/mesh/core/src/lpn.c.obj
 .bss           0x00000000        0x0 examples/experimental_lpn/CMakeFiles/lpn_nrf52840_xxAA_s140_6.1.0.dir/__/__/mesh/core/src/lpn.c.obj
 .text.mesh_lpn_poll_interval_set
                0x00000000       0x2c examples/experimental_lpn/CMakeFiles/lpn_nrf52840_xxAA_s140_6.1.0.dir/__/__/mesh/core/src/lpn.c.obj
 .text          0x00000000        0x0 examples/experimental_lpn/CMakeFiles/lpn_nrf52840_xxAA_s140_6.1.0.dir/__/__/mesh/core/src/core_tx_lpn.c.obj
 .data          0x00000000        0x0 examples/experimental_lpn/CMakeFiles/lpn_nrf52840_xxAA_s140_6.1.0.dir/__/__/mesh/core/src/core_tx_lpn.c.obj
 .bss           0x00000000        0x0 examples/experimental_lpn/CMakeFiles/lpn_nrf52840_xxAA_s140_6.1.0.dir/__/__/mesh/core/src/core_tx_lpn.c.obj
 .text          0x00000000        0x0 examples/experimental_lpn/CMakeFiles/lpn_nrf52840_xxAA_s140_6.1.0.dir/__/__/mesh/core/src/mesh_lpn_subman.c.obj
 .data          0x00000000        0x0 examples/experimental_lpn/CMakeFiles/lpn_nrf52840_xxAA_s140_6.1.0.dir/__/__/mesh/core/src/mesh_lpn_subman.c.obj
 .bss           0x00000000        0x0 examples/experimental_lpn/CMakeFiles/lpn_nrf52840_xxAA_s140_6.1.0.dir/__/__/mesh/core/src/mesh_lpn_subman.c.obj
 .text          0x00000000        0x0 examples/experimental_lpn/CMakeFiles/lpn_nrf52840_xxAA_s140_6.1.0.dir/__/__/mesh/core/src/core_tx_adv.c.obj
 .data          0x00000000        0x0 examples/experimental_lpn/CMakeFiles/lpn_nrf52840_xxAA_s140_6.1.0.dir/__/__/mesh/core/src/core_tx_adv.c.obj
 .bss           0x00000000        0x0 examples/experimental_lpn/CMakeFiles/lpn_nrf52840_xxAA_s140_6.1.0.dir/__/__/mesh/core/src/core_tx_adv.c.obj
 .text.mesh_opt_core_adv_delete
                0x00000000       0x24 examples/experimental_lpn/CMakeFiles/lpn_nrf52840_xxAA_s140_6.1.0.dir/__/__/mesh/core/src/core_tx_adv.c.obj
 .text.mesh_opt_core_adv_addr_set
                0x00000000       0x24 examples/experimental_lpn/CMakeFiles/lpn_nrf52840_xxAA_s140_6.1.0.dir/__/__/mesh/core/src/core_tx_adv.c.obj
 .text.mesh_opt_core_adv_addr_get
                0x00000000       0x24 examples/experimental_lpn/CMakeFiles/lpn_nrf52840_xxAA_s140_6.1.0.dir/__/__/mesh/core/src/core_tx_adv.c.obj
 .text.mesh_opt_core_adv_addr_delete
                0x00000000       0x24 examples/experimental_lpn/CMakeFiles/lpn_nrf52840_xxAA_s140_6.1.0.dir/__/__/mesh/core/src/core_tx_adv.c.obj
 .text.mesh_opt_core_tx_power_set
                0x00000000       0x2c examples/experimental_lpn/CMakeFiles/lpn_nrf52840_xxAA_s140_6.1.0.dir/__/__/mesh/core/src/core_tx_adv.c.obj
 .text.mesh_opt_core_tx_power_get
                0x00000000       0x24 examples/experimental_lpn/CMakeFiles/lpn_nrf52840_xxAA_s140_6.1.0.dir/__/__/mesh/core/src/core_tx_adv.c.obj
 .text.mesh_opt_core_tx_power_delete
                0x00000000       0x24 examples/experimental_lpn/CMakeFiles/lpn_nrf52840_xxAA_s140_6.1.0.dir/__/__/mesh/core/src/core_tx_adv.c.obj
 .text          0x00000000        0x0 examples/experimental_lpn/CMakeFiles/lpn_nrf52840_xxAA_s140_6.1.0.dir/__/__/mesh/core/src/mesh_mem_stdlib.c.obj
 .data          0x00000000        0x0 examples/experimental_lpn/CMakeFiles/lpn_nrf52840_xxAA_s140_6.1.0.dir/__/__/mesh/core/src/mesh_mem_stdlib.c.obj
 .bss           0x00000000        0x0 examples/experimental_lpn/CMakeFiles/lpn_nrf52840_xxAA_s140_6.1.0.dir/__/__/mesh/core/src/mesh_mem_stdlib.c.obj
 .text.mesh_mem_calloc
                0x00000000        0x4 examples/experimental_lpn/CMakeFiles/lpn_nrf52840_xxAA_s140_6.1.0.dir/__/__/mesh/core/src/mesh_mem_stdlib.c.obj
 .text          0x00000000        0x0 examples/experimental_lpn/CMakeFiles/lpn_nrf52840_xxAA_s140_6.1.0.dir/__/__/mesh/bearer/src/ad_listener.c.obj
 .data          0x00000000        0x0 examples/experimental_lpn/CMakeFiles/lpn_nrf52840_xxAA_s140_6.1.0.dir/__/__/mesh/bearer/src/ad_listener.c.obj
 .bss           0x00000000        0x0 examples/experimental_lpn/CMakeFiles/lpn_nrf52840_xxAA_s140_6.1.0.dir/__/__/mesh/bearer/src/ad_listener.c.obj
 .text.ad_listener_unsubscribe
                0x00000000       0x6c examples/experimental_lpn/CMakeFiles/lpn_nrf52840_xxAA_s140_6.1.0.dir/__/__/mesh/bearer/src/ad_listener.c.obj
 .text          0x00000000        0x0 examples/experimental_lpn/CMakeFiles/lpn_nrf52840_xxAA_s140_6.1.0.dir/__/__/mesh/bearer/src/ad_type_filter.c.obj
 .data          0x00000000        0x0 examples/experimental_lpn/CMakeFiles/lpn_nrf52840_xxAA_s140_6.1.0.dir/__/__/mesh/bearer/src/ad_type_filter.c.obj
 .bss           0x00000000        0x0 examples/experimental_lpn/CMakeFiles/lpn_nrf52840_xxAA_s140_6.1.0.dir/__/__/mesh/bearer/src/ad_type_filter.c.obj
 .text.bearer_adtype_remove
                0x00000000       0x20 examples/experimental_lpn/CMakeFiles/lpn_nrf52840_xxAA_s140_6.1.0.dir/__/__/mesh/bearer/src/ad_type_filter.c.obj
 .text.bearer_adtype_clear
                0x00000000       0x10 examples/experimental_lpn/CMakeFiles/lpn_nrf52840_xxAA_s140_6.1.0.dir/__/__/mesh/bearer/src/ad_type_filter.c.obj
 .text.bearer_invalid_length_amount_get
                0x00000000        0xc examples/experimental_lpn/CMakeFiles/lpn_nrf52840_xxAA_s140_6.1.0.dir/__/__/mesh/bearer/src/ad_type_filter.c.obj
 .text.bearer_adtype_filtered_amount_get
                0x00000000        0xc examples/experimental_lpn/CMakeFiles/lpn_nrf52840_xxAA_s140_6.1.0.dir/__/__/mesh/bearer/src/ad_type_filter.c.obj
 .text          0x00000000        0x0 examples/experimental_lpn/CMakeFiles/lpn_nrf52840_xxAA_s140_6.1.0.dir/__/__/mesh/bearer/src/adv_packet_filter.c.obj
 .data          0x00000000        0x0 examples/experimental_lpn/CMakeFiles/lpn_nrf52840_xxAA_s140_6.1.0.dir/__/__/mesh/bearer/src/adv_packet_filter.c.obj
 .bss           0x00000000        0x0 examples/experimental_lpn/CMakeFiles/lpn_nrf52840_xxAA_s140_6.1.0.dir/__/__/mesh/bearer/src/adv_packet_filter.c.obj
 .text.adv_filter_handle
                0x00000000       0x3c examples/experimental_lpn/CMakeFiles/lpn_nrf52840_xxAA_s140_6.1.0.dir/__/__/mesh/bearer/src/adv_packet_filter.c.obj
 .text.bearer_adv_packet_filtering_set
                0x00000000       0x1c examples/experimental_lpn/CMakeFiles/lpn_nrf52840_xxAA_s140_6.1.0.dir/__/__/mesh/bearer/src/adv_packet_filter.c.obj
 .text.bearer_adv_packet_remove
                0x00000000       0x18 examples/experimental_lpn/CMakeFiles/lpn_nrf52840_xxAA_s140_6.1.0.dir/__/__/mesh/bearer/src/adv_packet_filter.c.obj
 .text.bearer_adv_packet_add
                0x00000000       0x14 examples/experimental_lpn/CMakeFiles/lpn_nrf52840_xxAA_s140_6.1.0.dir/__/__/mesh/bearer/src/adv_packet_filter.c.obj
 .text.bearer_adv_packet_clear
                0x00000000        0xc examples/experimental_lpn/CMakeFiles/lpn_nrf52840_xxAA_s140_6.1.0.dir/__/__/mesh/bearer/src/adv_packet_filter.c.obj
 .text.bearer_adv_packet_filter_mode_set
                0x00000000       0x18 examples/experimental_lpn/CMakeFiles/lpn_nrf52840_xxAA_s140_6.1.0.dir/__/__/mesh/bearer/src/adv_packet_filter.c.obj
 .text.bearer_adv_packet_filtered_amount_get
                0x00000000        0xc examples/experimental_lpn/CMakeFiles/lpn_nrf52840_xxAA_s140_6.1.0.dir/__/__/mesh/bearer/src/adv_packet_filter.c.obj
 .bss.m_adv_packet_filter
                0x00000000       0x14 examples/experimental_lpn/CMakeFiles/lpn_nrf52840_xxAA_s140_6.1.0.dir/__/__/mesh/bearer/src/adv_packet_filter.c.obj
 .debug_info    0x00000000      0xdce examples/experimental_lpn/CMakeFiles/lpn_nrf52840_xxAA_s140_6.1.0.dir/__/__/mesh/bearer/src/adv_packet_filter.c.obj
 .debug_abbrev  0x00000000      0x2c9 examples/experimental_lpn/CMakeFiles/lpn_nrf52840_xxAA_s140_6.1.0.dir/__/__/mesh/bearer/src/adv_packet_filter.c.obj
 .debug_loc     0x00000000      0x1c0 examples/experimental_lpn/CMakeFiles/lpn_nrf52840_xxAA_s140_6.1.0.dir/__/__/mesh/bearer/src/adv_packet_filter.c.obj
 .debug_aranges
                0x00000000       0x50 examples/experimental_lpn/CMakeFiles/lpn_nrf52840_xxAA_s140_6.1.0.dir/__/__/mesh/bearer/src/adv_packet_filter.c.obj
 .debug_ranges  0x00000000       0x40 examples/experimental_lpn/CMakeFiles/lpn_nrf52840_xxAA_s140_6.1.0.dir/__/__/mesh/bearer/src/adv_packet_filter.c.obj
 .debug_line    0x00000000      0x3ce examples/experimental_lpn/CMakeFiles/lpn_nrf52840_xxAA_s140_6.1.0.dir/__/__/mesh/bearer/src/adv_packet_filter.c.obj
 .debug_str     0x00000000      0xa6e examples/experimental_lpn/CMakeFiles/lpn_nrf52840_xxAA_s140_6.1.0.dir/__/__/mesh/bearer/src/adv_packet_filter.c.obj
 .comment       0x00000000       0x80 examples/experimental_lpn/CMakeFiles/lpn_nrf52840_xxAA_s140_6.1.0.dir/__/__/mesh/bearer/src/adv_packet_filter.c.obj
 .debug_frame   0x00000000       0x88 examples/experimental_lpn/CMakeFiles/lpn_nrf52840_xxAA_s140_6.1.0.dir/__/__/mesh/bearer/src/adv_packet_filter.c.obj
 .ARM.attributes
                0x00000000       0x39 examples/experimental_lpn/CMakeFiles/lpn_nrf52840_xxAA_s140_6.1.0.dir/__/__/mesh/bearer/src/adv_packet_filter.c.obj
 .text          0x00000000        0x0 examples/experimental_lpn/CMakeFiles/lpn_nrf52840_xxAA_s140_6.1.0.dir/__/__/mesh/bearer/src/advertiser.c.obj
 .data          0x00000000        0x0 examples/experimental_lpn/CMakeFiles/lpn_nrf52840_xxAA_s140_6.1.0.dir/__/__/mesh/bearer/src/advertiser.c.obj
 .bss           0x00000000        0x0 examples/experimental_lpn/CMakeFiles/lpn_nrf52840_xxAA_s140_6.1.0.dir/__/__/mesh/bearer/src/advertiser.c.obj
 .text.advertiser_channels_set
                0x00000000       0x60 examples/experimental_lpn/CMakeFiles/lpn_nrf52840_xxAA_s140_6.1.0.dir/__/__/mesh/bearer/src/advertiser.c.obj
 .text.advertiser_config_set
                0x00000000       0x3a examples/experimental_lpn/CMakeFiles/lpn_nrf52840_xxAA_s140_6.1.0.dir/__/__/mesh/bearer/src/advertiser.c.obj
 .text.advertiser_config_get
                0x00000000       0x20 examples/experimental_lpn/CMakeFiles/lpn_nrf52840_xxAA_s140_6.1.0.dir/__/__/mesh/bearer/src/advertiser.c.obj
 .text.advertiser_flush
                0x00000000       0x1e examples/experimental_lpn/CMakeFiles/lpn_nrf52840_xxAA_s140_6.1.0.dir/__/__/mesh/bearer/src/advertiser.c.obj
 .text          0x00000000        0x0 examples/experimental_lpn/CMakeFiles/lpn_nrf52840_xxAA_s140_6.1.0.dir/__/__/mesh/bearer/src/bearer_handler.c.obj
 .data          0x00000000        0x0 examples/experimental_lpn/CMakeFiles/lpn_nrf52840_xxAA_s140_6.1.0.dir/__/__/mesh/bearer/src/bearer_handler.c.obj
 .bss           0x00000000        0x0 examples/experimental_lpn/CMakeFiles/lpn_nrf52840_xxAA_s140_6.1.0.dir/__/__/mesh/bearer/src/bearer_handler.c.obj
 .text.bearer_handler_action_fire
                0x00000000       0x64 examples/experimental_lpn/CMakeFiles/lpn_nrf52840_xxAA_s140_6.1.0.dir/__/__/mesh/bearer/src/bearer_handler.c.obj
 .text          0x00000000        0x0 examples/experimental_lpn/CMakeFiles/lpn_nrf52840_xxAA_s140_6.1.0.dir/__/__/mesh/bearer/src/broadcast.c.obj
 .data          0x00000000        0x0 examples/experimental_lpn/CMakeFiles/lpn_nrf52840_xxAA_s140_6.1.0.dir/__/__/mesh/bearer/src/broadcast.c.obj
 .bss           0x00000000        0x0 examples/experimental_lpn/CMakeFiles/lpn_nrf52840_xxAA_s140_6.1.0.dir/__/__/mesh/bearer/src/broadcast.c.obj
 .text          0x00000000        0x0 examples/experimental_lpn/CMakeFiles/lpn_nrf52840_xxAA_s140_6.1.0.dir/__/__/mesh/bearer/src/filter_engine.c.obj
 .data          0x00000000        0x0 examples/experimental_lpn/CMakeFiles/lpn_nrf52840_xxAA_s140_6.1.0.dir/__/__/mesh/bearer/src/filter_engine.c.obj
 .bss           0x00000000        0x0 examples/experimental_lpn/CMakeFiles/lpn_nrf52840_xxAA_s140_6.1.0.dir/__/__/mesh/bearer/src/filter_engine.c.obj
 .text.fen_accepted_amount_get
                0x00000000        0xc examples/experimental_lpn/CMakeFiles/lpn_nrf52840_xxAA_s140_6.1.0.dir/__/__/mesh/bearer/src/filter_engine.c.obj
 .text          0x00000000        0x0 examples/experimental_lpn/CMakeFiles/lpn_nrf52840_xxAA_s140_6.1.0.dir/__/__/mesh/bearer/src/gap_address_filter.c.obj
 .data          0x00000000        0x0 examples/experimental_lpn/CMakeFiles/lpn_nrf52840_xxAA_s140_6.1.0.dir/__/__/mesh/bearer/src/gap_address_filter.c.obj
 .bss           0x00000000        0x0 examples/experimental_lpn/CMakeFiles/lpn_nrf52840_xxAA_s140_6.1.0.dir/__/__/mesh/bearer/src/gap_address_filter.c.obj
 .text.gap_address_filter_handle
                0x00000000       0xa6 examples/experimental_lpn/CMakeFiles/lpn_nrf52840_xxAA_s140_6.1.0.dir/__/__/mesh/bearer/src/gap_address_filter.c.obj
 .text.gap_addr_filter_set
                0x00000000       0x40 examples/experimental_lpn/CMakeFiles/lpn_nrf52840_xxAA_s140_6.1.0.dir/__/__/mesh/bearer/src/gap_address_filter.c.obj
 .text.bearer_filter_gap_addr_whitelist_set
                0x00000000        0x6 examples/experimental_lpn/CMakeFiles/lpn_nrf52840_xxAA_s140_6.1.0.dir/__/__/mesh/bearer/src/gap_address_filter.c.obj
 .text.bearer_filter_gap_addr_blacklist_set
                0x00000000        0x6 examples/experimental_lpn/CMakeFiles/lpn_nrf52840_xxAA_s140_6.1.0.dir/__/__/mesh/bearer/src/gap_address_filter.c.obj
 .text.bearer_filter_gap_addr_range_set
                0x00000000       0x38 examples/experimental_lpn/CMakeFiles/lpn_nrf52840_xxAA_s140_6.1.0.dir/__/__/mesh/bearer/src/gap_address_filter.c.obj
 .text.bearer_filter_gap_addr_clear
                0x00000000       0x20 examples/experimental_lpn/CMakeFiles/lpn_nrf52840_xxAA_s140_6.1.0.dir/__/__/mesh/bearer/src/gap_address_filter.c.obj
 .text.bearer_gap_addr_filtered_amount_get
                0x00000000        0xc examples/experimental_lpn/CMakeFiles/lpn_nrf52840_xxAA_s140_6.1.0.dir/__/__/mesh/bearer/src/gap_address_filter.c.obj
 .bss.m_addr_filter
                0x00000000       0x18 examples/experimental_lpn/CMakeFiles/lpn_nrf52840_xxAA_s140_6.1.0.dir/__/__/mesh/bearer/src/gap_address_filter.c.obj
 .debug_info    0x00000000      0xef2 examples/experimental_lpn/CMakeFiles/lpn_nrf52840_xxAA_s140_6.1.0.dir/__/__/mesh/bearer/src/gap_address_filter.c.obj
 .debug_abbrev  0x00000000      0x2f4 examples/experimental_lpn/CMakeFiles/lpn_nrf52840_xxAA_s140_6.1.0.dir/__/__/mesh/bearer/src/gap_address_filter.c.obj
 .debug_loc     0x00000000      0x3e8 examples/experimental_lpn/CMakeFiles/lpn_nrf52840_xxAA_s140_6.1.0.dir/__/__/mesh/bearer/src/gap_address_filter.c.obj
 .debug_aranges
                0x00000000       0x50 examples/experimental_lpn/CMakeFiles/lpn_nrf52840_xxAA_s140_6.1.0.dir/__/__/mesh/bearer/src/gap_address_filter.c.obj
 .debug_ranges  0x00000000       0x58 examples/experimental_lpn/CMakeFiles/lpn_nrf52840_xxAA_s140_6.1.0.dir/__/__/mesh/bearer/src/gap_address_filter.c.obj
 .debug_line    0x00000000      0x426 examples/experimental_lpn/CMakeFiles/lpn_nrf52840_xxAA_s140_6.1.0.dir/__/__/mesh/bearer/src/gap_address_filter.c.obj
 .debug_str     0x00000000      0x9c8 examples/experimental_lpn/CMakeFiles/lpn_nrf52840_xxAA_s140_6.1.0.dir/__/__/mesh/bearer/src/gap_address_filter.c.obj
 .comment       0x00000000       0x80 examples/experimental_lpn/CMakeFiles/lpn_nrf52840_xxAA_s140_6.1.0.dir/__/__/mesh/bearer/src/gap_address_filter.c.obj
 .debug_frame   0x00000000       0xb4 examples/experimental_lpn/CMakeFiles/lpn_nrf52840_xxAA_s140_6.1.0.dir/__/__/mesh/bearer/src/gap_address_filter.c.obj
 .ARM.attributes
                0x00000000       0x39 examples/experimental_lpn/CMakeFiles/lpn_nrf52840_xxAA_s140_6.1.0.dir/__/__/mesh/bearer/src/gap_address_filter.c.obj
 .text          0x00000000        0x0 examples/experimental_lpn/CMakeFiles/lpn_nrf52840_xxAA_s140_6.1.0.dir/__/__/mesh/bearer/src/radio_config.c.obj
 .data          0x00000000        0x0 examples/experimental_lpn/CMakeFiles/lpn_nrf52840_xxAA_s140_6.1.0.dir/__/__/mesh/bearer/src/radio_config.c.obj
 .bss           0x00000000        0x0 examples/experimental_lpn/CMakeFiles/lpn_nrf52840_xxAA_s140_6.1.0.dir/__/__/mesh/bearer/src/radio_config.c.obj
 .text.radio_config_access_addr_get
                0x00000000       0x4c examples/experimental_lpn/CMakeFiles/lpn_nrf52840_xxAA_s140_6.1.0.dir/__/__/mesh/bearer/src/radio_config.c.obj
 .text          0x00000000        0x0 examples/experimental_lpn/CMakeFiles/lpn_nrf52840_xxAA_s140_6.1.0.dir/__/__/mesh/bearer/src/rssi_filter.c.obj
 .data          0x00000000        0x0 examples/experimental_lpn/CMakeFiles/lpn_nrf52840_xxAA_s140_6.1.0.dir/__/__/mesh/bearer/src/rssi_filter.c.obj
 .bss           0x00000000        0x0 examples/experimental_lpn/CMakeFiles/lpn_nrf52840_xxAA_s140_6.1.0.dir/__/__/mesh/bearer/src/rssi_filter.c.obj
 .text.rssi_filter_handle
                0x00000000       0x20 examples/experimental_lpn/CMakeFiles/lpn_nrf52840_xxAA_s140_6.1.0.dir/__/__/mesh/bearer/src/rssi_filter.c.obj
 .text.bearer_rssi_filtering_set
                0x00000000       0x34 examples/experimental_lpn/CMakeFiles/lpn_nrf52840_xxAA_s140_6.1.0.dir/__/__/mesh/bearer/src/rssi_filter.c.obj
 .text.bearer_rssi_filtered_amount_get
                0x00000000        0xc examples/experimental_lpn/CMakeFiles/lpn_nrf52840_xxAA_s140_6.1.0.dir/__/__/mesh/bearer/src/rssi_filter.c.obj
 .bss.m_rssi_filter
                0x00000000       0x18 examples/experimental_lpn/CMakeFiles/lpn_nrf52840_xxAA_s140_6.1.0.dir/__/__/mesh/bearer/src/rssi_filter.c.obj
 .debug_info    0x00000000      0xcaa examples/experimental_lpn/CMakeFiles/lpn_nrf52840_xxAA_s140_6.1.0.dir/__/__/mesh/bearer/src/rssi_filter.c.obj
 .debug_abbrev  0x00000000      0x28e examples/experimental_lpn/CMakeFiles/lpn_nrf52840_xxAA_s140_6.1.0.dir/__/__/mesh/bearer/src/rssi_filter.c.obj
 .debug_loc     0x00000000       0xb3 examples/experimental_lpn/CMakeFiles/lpn_nrf52840_xxAA_s140_6.1.0.dir/__/__/mesh/bearer/src/rssi_filter.c.obj
 .debug_aranges
                0x00000000       0x30 examples/experimental_lpn/CMakeFiles/lpn_nrf52840_xxAA_s140_6.1.0.dir/__/__/mesh/bearer/src/rssi_filter.c.obj
 .debug_ranges  0x00000000       0x20 examples/experimental_lpn/CMakeFiles/lpn_nrf52840_xxAA_s140_6.1.0.dir/__/__/mesh/bearer/src/rssi_filter.c.obj
 .debug_line    0x00000000      0x343 examples/experimental_lpn/CMakeFiles/lpn_nrf52840_xxAA_s140_6.1.0.dir/__/__/mesh/bearer/src/rssi_filter.c.obj
 .debug_str     0x00000000      0x883 examples/experimental_lpn/CMakeFiles/lpn_nrf52840_xxAA_s140_6.1.0.dir/__/__/mesh/bearer/src/rssi_filter.c.obj
 .comment       0x00000000       0x80 examples/experimental_lpn/CMakeFiles/lpn_nrf52840_xxAA_s140_6.1.0.dir/__/__/mesh/bearer/src/rssi_filter.c.obj
 .debug_frame   0x00000000       0x54 examples/experimental_lpn/CMakeFiles/lpn_nrf52840_xxAA_s140_6.1.0.dir/__/__/mesh/bearer/src/rssi_filter.c.obj
 .ARM.attributes
                0x00000000       0x39 examples/experimental_lpn/CMakeFiles/lpn_nrf52840_xxAA_s140_6.1.0.dir/__/__/mesh/bearer/src/rssi_filter.c.obj
 .text          0x00000000        0x0 examples/experimental_lpn/CMakeFiles/lpn_nrf52840_xxAA_s140_6.1.0.dir/__/__/mesh/bearer/src/scanner.c.obj
 .data          0x00000000        0x0 examples/experimental_lpn/CMakeFiles/lpn_nrf52840_xxAA_s140_6.1.0.dir/__/__/mesh/bearer/src/scanner.c.obj
 .bss           0x00000000        0x0 examples/experimental_lpn/CMakeFiles/lpn_nrf52840_xxAA_s140_6.1.0.dir/__/__/mesh/bearer/src/scanner.c.obj
 .text.scanner_rx_callback_set
                0x00000000       0x20 examples/experimental_lpn/CMakeFiles/lpn_nrf52840_xxAA_s140_6.1.0.dir/__/__/mesh/bearer/src/scanner.c.obj
 .text.scanner_stats_get
                0x00000000        0x8 examples/experimental_lpn/CMakeFiles/lpn_nrf52840_xxAA_s140_6.1.0.dir/__/__/mesh/bearer/src/scanner.c.obj
 .text.scanner_config_radio_mode_set
                0x00000000       0x10 examples/experimental_lpn/CMakeFiles/lpn_nrf52840_xxAA_s140_6.1.0.dir/__/__/mesh/bearer/src/scanner.c.obj
 .text          0x00000000        0x0 examples/experimental_lpn/CMakeFiles/lpn_nrf52840_xxAA_s140_6.1.0.dir/__/__/mesh/bearer/src/mesh_pa_lna.c.obj
 .data          0x00000000        0x0 examples/experimental_lpn/CMakeFiles/lpn_nrf52840_xxAA_s140_6.1.0.dir/__/__/mesh/bearer/src/mesh_pa_lna.c.obj
 .bss           0x00000000        0x0 examples/experimental_lpn/CMakeFiles/lpn_nrf52840_xxAA_s140_6.1.0.dir/__/__/mesh/bearer/src/mesh_pa_lna.c.obj
 .text.unlikely.pin_init
                0x00000000       0x32 examples/experimental_lpn/CMakeFiles/lpn_nrf52840_xxAA_s140_6.1.0.dir/__/__/mesh/bearer/src/mesh_pa_lna.c.obj
 .text.mesh_pa_lna_gpiote_enable
                0x00000000       0x68 examples/experimental_lpn/CMakeFiles/lpn_nrf52840_xxAA_s140_6.1.0.dir/__/__/mesh/bearer/src/mesh_pa_lna.c.obj
 .text.mesh_pa_lna_gpiote_params_get
                0x00000000       0x10 examples/experimental_lpn/CMakeFiles/lpn_nrf52840_xxAA_s140_6.1.0.dir/__/__/mesh/bearer/src/mesh_pa_lna.c.obj
 .text.mesh_pa_lna_gpiote_disable
                0x00000000       0x20 examples/experimental_lpn/CMakeFiles/lpn_nrf52840_xxAA_s140_6.1.0.dir/__/__/mesh/bearer/src/mesh_pa_lna.c.obj
 .text          0x00000000        0x0 examples/experimental_lpn/CMakeFiles/lpn_nrf52840_xxAA_s140_6.1.0.dir/__/__/mesh/gatt/src/mesh_gatt.c.obj
 .data          0x00000000        0x0 examples/experimental_lpn/CMakeFiles/lpn_nrf52840_xxAA_s140_6.1.0.dir/__/__/mesh/gatt/src/mesh_gatt.c.obj
 .bss           0x00000000        0x0 examples/experimental_lpn/CMakeFiles/lpn_nrf52840_xxAA_s140_6.1.0.dir/__/__/mesh/gatt/src/mesh_gatt.c.obj
 .text          0x00000000        0x0 examples/experimental_lpn/CMakeFiles/lpn_nrf52840_xxAA_s140_6.1.0.dir/__/__/mesh/gatt/src/proxy.c.obj
 .data          0x00000000        0x0 examples/experimental_lpn/CMakeFiles/lpn_nrf52840_xxAA_s140_6.1.0.dir/__/__/mesh/gatt/src/proxy.c.obj
 .bss           0x00000000        0x0 examples/experimental_lpn/CMakeFiles/lpn_nrf52840_xxAA_s140_6.1.0.dir/__/__/mesh/gatt/src/proxy.c.obj
 .text.proxy_enable
                0x00000000        0x6 examples/experimental_lpn/CMakeFiles/lpn_nrf52840_xxAA_s140_6.1.0.dir/__/__/mesh/gatt/src/proxy.c.obj
 .text.proxy_disable
                0x00000000        0x6 examples/experimental_lpn/CMakeFiles/lpn_nrf52840_xxAA_s140_6.1.0.dir/__/__/mesh/gatt/src/proxy.c.obj
 .text.mesh_opt_gatt_proxy_get
                0x00000000       0x10 examples/experimental_lpn/CMakeFiles/lpn_nrf52840_xxAA_s140_6.1.0.dir/__/__/mesh/gatt/src/proxy.c.obj
 .text          0x00000000        0x0 examples/experimental_lpn/CMakeFiles/lpn_nrf52840_xxAA_s140_6.1.0.dir/__/__/mesh/gatt/src/proxy_filter.c.obj
 .data          0x00000000        0x0 examples/experimental_lpn/CMakeFiles/lpn_nrf52840_xxAA_s140_6.1.0.dir/__/__/mesh/gatt/src/proxy_filter.c.obj
 .bss           0x00000000        0x0 examples/experimental_lpn/CMakeFiles/lpn_nrf52840_xxAA_s140_6.1.0.dir/__/__/mesh/gatt/src/proxy_filter.c.obj
 .text          0x00000000        0x0 examples/experimental_lpn/CMakeFiles/lpn_nrf52840_xxAA_s140_6.1.0.dir/__/__/models/model_spec/generic_onoff/src/generic_onoff_client.c.obj
 .data          0x00000000        0x0 examples/experimental_lpn/CMakeFiles/lpn_nrf52840_xxAA_s140_6.1.0.dir/__/__/models/model_spec/generic_onoff/src/generic_onoff_client.c.obj
 .bss           0x00000000        0x0 examples/experimental_lpn/CMakeFiles/lpn_nrf52840_xxAA_s140_6.1.0.dir/__/__/models/model_spec/generic_onoff/src/generic_onoff_client.c.obj
 .text.generic_onoff_client_set
                0x00000000       0xa4 examples/experimental_lpn/CMakeFiles/lpn_nrf52840_xxAA_s140_6.1.0.dir/__/__/models/model_spec/generic_onoff/src/generic_onoff_client.c.obj
 .text.generic_onoff_client_get
                0x00000000       0x5c examples/experimental_lpn/CMakeFiles/lpn_nrf52840_xxAA_s140_6.1.0.dir/__/__/models/model_spec/generic_onoff/src/generic_onoff_client.c.obj
 .text          0x00000000        0x0 examples/experimental_lpn/CMakeFiles/lpn_nrf52840_xxAA_s140_6.1.0.dir/__/__/models/model_spec/common/src/model_common.c.obj
 .data          0x00000000        0x0 examples/experimental_lpn/CMakeFiles/lpn_nrf52840_xxAA_s140_6.1.0.dir/__/__/models/model_spec/common/src/model_common.c.obj
 .bss           0x00000000        0x0 examples/experimental_lpn/CMakeFiles/lpn_nrf52840_xxAA_s140_6.1.0.dir/__/__/models/model_spec/common/src/model_common.c.obj
 .text.model_tid_timer_cb
                0x00000000        0x6 examples/experimental_lpn/CMakeFiles/lpn_nrf52840_xxAA_s140_6.1.0.dir/__/__/models/model_spec/common/src/model_common.c.obj
 .text.timeout_update_and_schedule
                0x00000000       0x7c examples/experimental_lpn/CMakeFiles/lpn_nrf52840_xxAA_s140_6.1.0.dir/__/__/models/model_spec/common/src/model_common.c.obj
 .text.model_timer_cb
                0x00000000       0x4a examples/experimental_lpn/CMakeFiles/lpn_nrf52840_xxAA_s140_6.1.0.dir/__/__/models/model_spec/common/src/model_common.c.obj
 .text.model_tid_validate
                0x00000000       0x5c examples/experimental_lpn/CMakeFiles/lpn_nrf52840_xxAA_s140_6.1.0.dir/__/__/models/model_spec/common/src/model_common.c.obj
 .text.model_transaction_is_new
                0x00000000        0x4 examples/experimental_lpn/CMakeFiles/lpn_nrf52840_xxAA_s140_6.1.0.dir/__/__/models/model_spec/common/src/model_common.c.obj
 .text.model_transition_time_is_valid
                0x00000000        0xc examples/experimental_lpn/CMakeFiles/lpn_nrf52840_xxAA_s140_6.1.0.dir/__/__/models/model_spec/common/src/model_common.c.obj
 .text.model_delay_decode
                0x00000000        0x6 examples/experimental_lpn/CMakeFiles/lpn_nrf52840_xxAA_s140_6.1.0.dir/__/__/models/model_spec/common/src/model_common.c.obj
 .text.model_timer_elapsed_ticks_get
                0x00000000        0x6 examples/experimental_lpn/CMakeFiles/lpn_nrf52840_xxAA_s140_6.1.0.dir/__/__/models/model_spec/common/src/model_common.c.obj
 .text.model_timer_schedule
                0x00000000       0x50 examples/experimental_lpn/CMakeFiles/lpn_nrf52840_xxAA_s140_6.1.0.dir/__/__/models/model_spec/common/src/model_common.c.obj
 .text.model_timer_abort
                0x00000000       0x24 examples/experimental_lpn/CMakeFiles/lpn_nrf52840_xxAA_s140_6.1.0.dir/__/__/models/model_spec/common/src/model_common.c.obj
 .text.model_timer_create
                0x00000000       0x1c examples/experimental_lpn/CMakeFiles/lpn_nrf52840_xxAA_s140_6.1.0.dir/__/__/models/model_spec/common/src/model_common.c.obj
 .text          0x00000000        0x0 examples/experimental_lpn/CMakeFiles/lpn_nrf52840_xxAA_s140_6.1.0.dir/__/__/models/foundation/config/src/composition_data.c.obj
 .data          0x00000000        0x0 examples/experimental_lpn/CMakeFiles/lpn_nrf52840_xxAA_s140_6.1.0.dir/__/__/models/foundation/config/src/composition_data.c.obj
 .bss           0x00000000        0x0 examples/experimental_lpn/CMakeFiles/lpn_nrf52840_xxAA_s140_6.1.0.dir/__/__/models/foundation/config/src/composition_data.c.obj
 .text          0x00000000        0x0 examples/experimental_lpn/CMakeFiles/lpn_nrf52840_xxAA_s140_6.1.0.dir/__/__/models/foundation/config/src/config_server.c.obj
 .data          0x00000000        0x0 examples/experimental_lpn/CMakeFiles/lpn_nrf52840_xxAA_s140_6.1.0.dir/__/__/models/foundation/config/src/config_server.c.obj
 .bss           0x00000000        0x0 examples/experimental_lpn/CMakeFiles/lpn_nrf52840_xxAA_s140_6.1.0.dir/__/__/models/foundation/config/src/config_server.c.obj
 .text          0x00000000        0x0 examples/experimental_lpn/CMakeFiles/lpn_nrf52840_xxAA_s140_6.1.0.dir/__/__/models/foundation/config/src/packed_index_list.c.obj
 .data          0x00000000        0x0 examples/experimental_lpn/CMakeFiles/lpn_nrf52840_xxAA_s140_6.1.0.dir/__/__/models/foundation/config/src/packed_index_list.c.obj
 .bss           0x00000000        0x0 examples/experimental_lpn/CMakeFiles/lpn_nrf52840_xxAA_s140_6.1.0.dir/__/__/models/foundation/config/src/packed_index_list.c.obj
 .text          0x00000000        0x0 examples/experimental_lpn/CMakeFiles/lpn_nrf52840_xxAA_s140_6.1.0.dir/__/__/models/foundation/health/src/health_server.c.obj
 .data          0x00000000        0x0 examples/experimental_lpn/CMakeFiles/lpn_nrf52840_xxAA_s140_6.1.0.dir/__/__/models/foundation/health/src/health_server.c.obj
 .bss           0x00000000        0x0 examples/experimental_lpn/CMakeFiles/lpn_nrf52840_xxAA_s140_6.1.0.dir/__/__/models/foundation/health/src/health_server.c.obj
 .text.health_server_fault_is_set
                0x00000000       0x1c examples/experimental_lpn/CMakeFiles/lpn_nrf52840_xxAA_s140_6.1.0.dir/__/__/models/foundation/health/src/health_server.c.obj
 .text.health_server_fault_count_get
                0x00000000       0x2c examples/experimental_lpn/CMakeFiles/lpn_nrf52840_xxAA_s140_6.1.0.dir/__/__/models/foundation/health/src/health_server.c.obj
 .text.health_server_fault_register
                0x00000000       0xca examples/experimental_lpn/CMakeFiles/lpn_nrf52840_xxAA_s140_6.1.0.dir/__/__/models/foundation/health/src/health_server.c.obj
 .text.health_server_fault_clear
                0x00000000       0x48 examples/experimental_lpn/CMakeFiles/lpn_nrf52840_xxAA_s140_6.1.0.dir/__/__/models/foundation/health/src/health_server.c.obj
 .text.health_server_attention_get
                0x00000000        0x6 examples/experimental_lpn/CMakeFiles/lpn_nrf52840_xxAA_s140_6.1.0.dir/__/__/models/foundation/health/src/health_server.c.obj
 .text.health_server_attention_set
                0x00000000        0x4 examples/experimental_lpn/CMakeFiles/lpn_nrf52840_xxAA_s140_6.1.0.dir/__/__/models/foundation/health/src/health_server.c.obj
 .text          0x00000000        0x0 examples/experimental_lpn/CMakeFiles/lpn_nrf52840_xxAA_s140_6.1.0.dir/__/__/mesh/access/src/access_publish.c.obj
 .data          0x00000000        0x0 examples/experimental_lpn/CMakeFiles/lpn_nrf52840_xxAA_s140_6.1.0.dir/__/__/mesh/access/src/access_publish.c.obj
 .bss           0x00000000        0x0 examples/experimental_lpn/CMakeFiles/lpn_nrf52840_xxAA_s140_6.1.0.dir/__/__/mesh/access/src/access_publish.c.obj
 .text          0x00000000        0x0 examples/experimental_lpn/CMakeFiles/lpn_nrf52840_xxAA_s140_6.1.0.dir/__/__/mesh/access/src/access.c.obj
 .data          0x00000000        0x0 examples/experimental_lpn/CMakeFiles/lpn_nrf52840_xxAA_s140_6.1.0.dir/__/__/mesh/access/src/access.c.obj
 .bss           0x00000000        0x0 examples/experimental_lpn/CMakeFiles/lpn_nrf52840_xxAA_s140_6.1.0.dir/__/__/mesh/access/src/access.c.obj
 .text.access_model_element_index_get
                0x00000000       0x28 examples/experimental_lpn/CMakeFiles/lpn_nrf52840_xxAA_s140_6.1.0.dir/__/__/mesh/access/src/access.c.obj
 .text.access_model_subscription_list_dealloc
                0x00000000       0xb8 examples/experimental_lpn/CMakeFiles/lpn_nrf52840_xxAA_s140_6.1.0.dir/__/__/mesh/access/src/access.c.obj
 .text.access_model_subscription_lists_share
                0x00000000       0x4c examples/experimental_lpn/CMakeFiles/lpn_nrf52840_xxAA_s140_6.1.0.dir/__/__/mesh/access/src/access.c.obj
 .text.access_element_location_set
                0x00000000       0x2c examples/experimental_lpn/CMakeFiles/lpn_nrf52840_xxAA_s140_6.1.0.dir/__/__/mesh/access/src/access.c.obj
 .text          0x00000000        0x0 examples/experimental_lpn/CMakeFiles/lpn_nrf52840_xxAA_s140_6.1.0.dir/__/__/mesh/access/src/access_reliable.c.obj
 .data          0x00000000        0x0 examples/experimental_lpn/CMakeFiles/lpn_nrf52840_xxAA_s140_6.1.0.dir/__/__/mesh/access/src/access_reliable.c.obj
 .bss           0x00000000        0x0 examples/experimental_lpn/CMakeFiles/lpn_nrf52840_xxAA_s140_6.1.0.dir/__/__/mesh/access/src/access_reliable.c.obj
 .text.access_reliable_model_is_free
                0x00000000       0x28 examples/experimental_lpn/CMakeFiles/lpn_nrf52840_xxAA_s140_6.1.0.dir/__/__/mesh/access/src/access_reliable.c.obj
 .text.access_model_reliable_publish
                0x00000000      0x198 examples/experimental_lpn/CMakeFiles/lpn_nrf52840_xxAA_s140_6.1.0.dir/__/__/mesh/access/src/access_reliable.c.obj
 .text          0x00000000        0x0 examples/experimental_lpn/CMakeFiles/lpn_nrf52840_xxAA_s140_6.1.0.dir/__/__/mesh/access/src/access_loopback.c.obj
 .data          0x00000000        0x0 examples/experimental_lpn/CMakeFiles/lpn_nrf52840_xxAA_s140_6.1.0.dir/__/__/mesh/access/src/access_loopback.c.obj
 .bss           0x00000000        0x0 examples/experimental_lpn/CMakeFiles/lpn_nrf52840_xxAA_s140_6.1.0.dir/__/__/mesh/access/src/access_loopback.c.obj
 .text          0x00000000        0x0 examples/experimental_lpn/CMakeFiles/lpn_nrf52840_xxAA_s140_6.1.0.dir/__/__/mesh/access/src/device_state_manager.c.obj
 .data          0x00000000        0x0 examples/experimental_lpn/CMakeFiles/lpn_nrf52840_xxAA_s140_6.1.0.dir/__/__/mesh/access/src/device_state_manager.c.obj
 .bss           0x00000000        0x0 examples/experimental_lpn/CMakeFiles/lpn_nrf52840_xxAA_s140_6.1.0.dir/__/__/mesh/access/src/device_state_manager.c.obj
 .text.dsm_has_unflashed_data
                0x00000000       0x24 examples/experimental_lpn/CMakeFiles/lpn_nrf52840_xxAA_s140_6.1.0.dir/__/__/mesh/access/src/device_state_manager.c.obj
 .text.dsm_address_subscription_get
                0x00000000       0x34 examples/experimental_lpn/CMakeFiles/lpn_nrf52840_xxAA_s140_6.1.0.dir/__/__/mesh/access/src/device_state_manager.c.obj
 .text.dsm_address_subscription_count_get
                0x00000000       0x58 examples/experimental_lpn/CMakeFiles/lpn_nrf52840_xxAA_s140_6.1.0.dir/__/__/mesh/access/src/device_state_manager.c.obj
 .text.dsm_address_get_all
                0x00000000       0x64 examples/experimental_lpn/CMakeFiles/lpn_nrf52840_xxAA_s140_6.1.0.dir/__/__/mesh/access/src/device_state_manager.c.obj
 .text.dsm_subnet_handle_to_netkey_index
                0x00000000       0x30 examples/experimental_lpn/CMakeFiles/lpn_nrf52840_xxAA_s140_6.1.0.dir/__/__/mesh/access/src/device_state_manager.c.obj
 .text.dsm_subnet_key_get
                0x00000000       0x44 examples/experimental_lpn/CMakeFiles/lpn_nrf52840_xxAA_s140_6.1.0.dir/__/__/mesh/access/src/device_state_manager.c.obj
 .text.dsm_devkey_delete
                0x00000000       0x38 examples/experimental_lpn/CMakeFiles/lpn_nrf52840_xxAA_s140_6.1.0.dir/__/__/mesh/access/src/device_state_manager.c.obj
 .text          0x00000000        0x0 examples/experimental_lpn/CMakeFiles/lpn_nrf52840_xxAA_s140_6.1.0.dir/__/__/external/app_timer/app_timer_mesh.c.obj
 .data          0x00000000        0x0 examples/experimental_lpn/CMakeFiles/lpn_nrf52840_xxAA_s140_6.1.0.dir/__/__/external/app_timer/app_timer_mesh.c.obj
 .bss           0x00000000        0x0 examples/experimental_lpn/CMakeFiles/lpn_nrf52840_xxAA_s140_6.1.0.dir/__/__/external/app_timer/app_timer_mesh.c.obj
 .text.nrf_mesh_timer_tail_handle
                0x00000000        0x2 examples/experimental_lpn/CMakeFiles/lpn_nrf52840_xxAA_s140_6.1.0.dir/__/__/external/app_timer/app_timer_mesh.c.obj
 .text.nrf_mesh_timer_ovfw_handle
                0x00000000       0x10 examples/experimental_lpn/CMakeFiles/lpn_nrf52840_xxAA_s140_6.1.0.dir/__/__/external/app_timer/app_timer_mesh.c.obj
 .text.app_timer_stop_all
                0x00000000       0x18 examples/experimental_lpn/CMakeFiles/lpn_nrf52840_xxAA_s140_6.1.0.dir/__/__/external/app_timer/app_timer_mesh.c.obj
 .text.app_timer_cnt_get
                0x00000000        0xc examples/experimental_lpn/CMakeFiles/lpn_nrf52840_xxAA_s140_6.1.0.dir/__/__/external/app_timer/app_timer_mesh.c.obj
 .text.app_timer_cnt_diff_compute
                0x00000000        0x8 examples/experimental_lpn/CMakeFiles/lpn_nrf52840_xxAA_s140_6.1.0.dir/__/__/external/app_timer/app_timer_mesh.c.obj
 .text.app_timer_pause
                0x00000000        0xc examples/experimental_lpn/CMakeFiles/lpn_nrf52840_xxAA_s140_6.1.0.dir/__/__/external/app_timer/app_timer_mesh.c.obj
 .text.app_timer_resume
                0x00000000        0xc examples/experimental_lpn/CMakeFiles/lpn_nrf52840_xxAA_s140_6.1.0.dir/__/__/external/app_timer/app_timer_mesh.c.obj
 .text          0x00000000        0x0 examples/experimental_lpn/CMakeFiles/lpn_nrf52840_xxAA_s140_6.1.0.dir/__/__/mesh/prov/src/prov_provisionee.c.obj
 .data          0x00000000        0x0 examples/experimental_lpn/CMakeFiles/lpn_nrf52840_xxAA_s140_6.1.0.dir/__/__/mesh/prov/src/prov_provisionee.c.obj
 .bss           0x00000000        0x0 examples/experimental_lpn/CMakeFiles/lpn_nrf52840_xxAA_s140_6.1.0.dir/__/__/mesh/prov/src/prov_provisionee.c.obj
 .text.prov_provisionee_shared_secret
                0x00000000       0x28 examples/experimental_lpn/CMakeFiles/lpn_nrf52840_xxAA_s140_6.1.0.dir/__/__/mesh/prov/src/prov_provisionee.c.obj
 .text          0x00000000        0x0 examples/experimental_lpn/CMakeFiles/lpn_nrf52840_xxAA_s140_6.1.0.dir/__/__/mesh/prov/src/nrf_mesh_prov.c.obj
 .data          0x00000000        0x0 examples/experimental_lpn/CMakeFiles/lpn_nrf52840_xxAA_s140_6.1.0.dir/__/__/mesh/prov/src/nrf_mesh_prov.c.obj
 .bss           0x00000000        0x0 examples/experimental_lpn/CMakeFiles/lpn_nrf52840_xxAA_s140_6.1.0.dir/__/__/mesh/prov/src/nrf_mesh_prov.c.obj
 .text.nrf_mesh_prov_provision
                0x00000000       0x5c examples/experimental_lpn/CMakeFiles/lpn_nrf52840_xxAA_s140_6.1.0.dir/__/__/mesh/prov/src/nrf_mesh_prov.c.obj
 .text.nrf_mesh_prov_oob_use
                0x00000000       0x18 examples/experimental_lpn/CMakeFiles/lpn_nrf52840_xxAA_s140_6.1.0.dir/__/__/mesh/prov/src/nrf_mesh_prov.c.obj
 .text.nrf_mesh_prov_shared_secret_provide
                0x00000000        0xe examples/experimental_lpn/CMakeFiles/lpn_nrf52840_xxAA_s140_6.1.0.dir/__/__/mesh/prov/src/nrf_mesh_prov.c.obj
 .text.nrf_mesh_prov_pubkey_provide
                0x00000000       0x10 examples/experimental_lpn/CMakeFiles/lpn_nrf52840_xxAA_s140_6.1.0.dir/__/__/mesh/prov/src/nrf_mesh_prov.c.obj
 .text.nrf_mesh_prov_scan_start
                0x00000000       0x10 examples/experimental_lpn/CMakeFiles/lpn_nrf52840_xxAA_s140_6.1.0.dir/__/__/mesh/prov/src/nrf_mesh_prov.c.obj
 .text.nrf_mesh_prov_scan_stop
                0x00000000        0x4 examples/experimental_lpn/CMakeFiles/lpn_nrf52840_xxAA_s140_6.1.0.dir/__/__/mesh/prov/src/nrf_mesh_prov.c.obj
 .text          0x00000000        0x0 examples/experimental_lpn/CMakeFiles/lpn_nrf52840_xxAA_s140_6.1.0.dir/__/__/mesh/prov/src/provisioning.c.obj
 .data          0x00000000        0x0 examples/experimental_lpn/CMakeFiles/lpn_nrf52840_xxAA_s140_6.1.0.dir/__/__/mesh/prov/src/provisioning.c.obj
 .bss           0x00000000        0x0 examples/experimental_lpn/CMakeFiles/lpn_nrf52840_xxAA_s140_6.1.0.dir/__/__/mesh/prov/src/provisioning.c.obj
 .text.prov_tx_invite
                0x00000000       0x28 examples/experimental_lpn/CMakeFiles/lpn_nrf52840_xxAA_s140_6.1.0.dir/__/__/mesh/prov/src/provisioning.c.obj
 .text.prov_tx_start
                0x00000000       0x20 examples/experimental_lpn/CMakeFiles/lpn_nrf52840_xxAA_s140_6.1.0.dir/__/__/mesh/prov/src/provisioning.c.obj
 .text.prov_tx_data
                0x00000000        0x6 examples/experimental_lpn/CMakeFiles/lpn_nrf52840_xxAA_s140_6.1.0.dir/__/__/mesh/prov/src/provisioning.c.obj
 .text.prov_tx  0x00000000        0x4 examples/experimental_lpn/CMakeFiles/lpn_nrf52840_xxAA_s140_6.1.0.dir/__/__/mesh/prov/src/provisioning.c.obj
 .text          0x00000000        0x0 examples/experimental_lpn/CMakeFiles/lpn_nrf52840_xxAA_s140_6.1.0.dir/__/__/mesh/prov/src/prov_beacon.c.obj
 .data          0x00000000        0x0 examples/experimental_lpn/CMakeFiles/lpn_nrf52840_xxAA_s140_6.1.0.dir/__/__/mesh/prov/src/prov_beacon.c.obj
 .bss           0x00000000        0x0 examples/experimental_lpn/CMakeFiles/lpn_nrf52840_xxAA_s140_6.1.0.dir/__/__/mesh/prov/src/prov_beacon.c.obj
 .text.prov_beacon_unprov_build
                0x00000000       0x54 examples/experimental_lpn/CMakeFiles/lpn_nrf52840_xxAA_s140_6.1.0.dir/__/__/mesh/prov/src/prov_beacon.c.obj
 .text.prov_beacon_scan_start
                0x00000000       0x18 examples/experimental_lpn/CMakeFiles/lpn_nrf52840_xxAA_s140_6.1.0.dir/__/__/mesh/prov/src/prov_beacon.c.obj
 .text.prov_beacon_scan_stop
                0x00000000        0xc examples/experimental_lpn/CMakeFiles/lpn_nrf52840_xxAA_s140_6.1.0.dir/__/__/mesh/prov/src/prov_beacon.c.obj
 .text          0x00000000        0x0 examples/experimental_lpn/CMakeFiles/lpn_nrf52840_xxAA_s140_6.1.0.dir/__/__/mesh/prov/src/prov_utils.c.obj
 .data          0x00000000        0x0 examples/experimental_lpn/CMakeFiles/lpn_nrf52840_xxAA_s140_6.1.0.dir/__/__/mesh/prov/src/prov_utils.c.obj
 .bss           0x00000000        0x0 examples/experimental_lpn/CMakeFiles/lpn_nrf52840_xxAA_s140_6.1.0.dir/__/__/mesh/prov/src/prov_utils.c.obj
 .text.mesh_opt_prov_ecdh_offloading_set
                0x00000000       0x1c examples/experimental_lpn/CMakeFiles/lpn_nrf52840_xxAA_s140_6.1.0.dir/__/__/mesh/prov/src/prov_utils.c.obj
 .text.prov_utils_opt_set
                0x00000000       0x14 examples/experimental_lpn/CMakeFiles/lpn_nrf52840_xxAA_s140_6.1.0.dir/__/__/mesh/prov/src/prov_utils.c.obj
 .text.prov_utils_opt_get
                0x00000000       0x14 examples/experimental_lpn/CMakeFiles/lpn_nrf52840_xxAA_s140_6.1.0.dir/__/__/mesh/prov/src/prov_utils.c.obj
 .text          0x00000000        0x0 examples/experimental_lpn/CMakeFiles/lpn_nrf52840_xxAA_s140_6.1.0.dir/__/__/mesh/prov/src/nrf_mesh_prov_bearer_gatt.c.obj
 .data          0x00000000        0x0 examples/experimental_lpn/CMakeFiles/lpn_nrf52840_xxAA_s140_6.1.0.dir/__/__/mesh/prov/src/nrf_mesh_prov_bearer_gatt.c.obj
 .bss           0x00000000        0x0 examples/experimental_lpn/CMakeFiles/lpn_nrf52840_xxAA_s140_6.1.0.dir/__/__/mesh/prov/src/nrf_mesh_prov_bearer_gatt.c.obj
 .text          0x00000000        0x0 examples/experimental_lpn/CMakeFiles/lpn_nrf52840_xxAA_s140_6.1.0.dir/C_/mesh/deps/nRF5_SDK_15.2.0_9412b96/modules/nrfx/mdk/system_nrf52840.c.obj
 .data          0x00000000        0x0 examples/experimental_lpn/CMakeFiles/lpn_nrf52840_xxAA_s140_6.1.0.dir/C_/mesh/deps/nRF5_SDK_15.2.0_9412b96/modules/nrfx/mdk/system_nrf52840.c.obj
 .bss           0x00000000        0x0 examples/experimental_lpn/CMakeFiles/lpn_nrf52840_xxAA_s140_6.1.0.dir/C_/mesh/deps/nRF5_SDK_15.2.0_9412b96/modules/nrfx/mdk/system_nrf52840.c.obj
 .text.SystemCoreClockUpdate
                0x00000000       0x10 examples/experimental_lpn/CMakeFiles/lpn_nrf52840_xxAA_s140_6.1.0.dir/C_/mesh/deps/nRF5_SDK_15.2.0_9412b96/modules/nrfx/mdk/system_nrf52840.c.obj
 .data          0x00000000        0x0 examples/experimental_lpn/CMakeFiles/lpn_nrf52840_xxAA_s140_6.1.0.dir/C_/mesh/deps/nRF5_SDK_15.2.0_9412b96/modules/nrfx/mdk/gcc_startup_nrf52840.S.obj
 .bss           0x00000000        0x0 examples/experimental_lpn/CMakeFiles/lpn_nrf52840_xxAA_s140_6.1.0.dir/C_/mesh/deps/nRF5_SDK_15.2.0_9412b96/modules/nrfx/mdk/gcc_startup_nrf52840.S.obj
 .text          0x00000000        0x0 examples/experimental_lpn/CMakeFiles/lpn_nrf52840_xxAA_s140_6.1.0.dir/C_/mesh/deps/nRF5_SDK_15.2.0_9412b96/components/libraries/util/app_error.c.obj
 .data          0x00000000        0x0 examples/experimental_lpn/CMakeFiles/lpn_nrf52840_xxAA_s140_6.1.0.dir/C_/mesh/deps/nRF5_SDK_15.2.0_9412b96/components/libraries/util/app_error.c.obj
 .bss           0x00000000        0x0 examples/experimental_lpn/CMakeFiles/lpn_nrf52840_xxAA_s140_6.1.0.dir/C_/mesh/deps/nRF5_SDK_15.2.0_9412b96/components/libraries/util/app_error.c.obj
 .text.app_error_save_and_stop
                0x00000000       0x58 examples/experimental_lpn/CMakeFiles/lpn_nrf52840_xxAA_s140_6.1.0.dir/C_/mesh/deps/nRF5_SDK_15.2.0_9412b96/components/libraries/util/app_error.c.obj
 .bss.m_error_data.8119
                0x00000000       0x20 examples/experimental_lpn/CMakeFiles/lpn_nrf52840_xxAA_s140_6.1.0.dir/C_/mesh/deps/nRF5_SDK_15.2.0_9412b96/components/libraries/util/app_error.c.obj
 .text          0x00000000        0x0 examples/experimental_lpn/CMakeFiles/lpn_nrf52840_xxAA_s140_6.1.0.dir/C_/mesh/deps/nRF5_SDK_15.2.0_9412b96/components/libraries/util/app_error_handler_gcc.c.obj
 .data          0x00000000        0x0 examples/experimental_lpn/CMakeFiles/lpn_nrf52840_xxAA_s140_6.1.0.dir/C_/mesh/deps/nRF5_SDK_15.2.0_9412b96/components/libraries/util/app_error_handler_gcc.c.obj
 .bss           0x00000000        0x0 examples/experimental_lpn/CMakeFiles/lpn_nrf52840_xxAA_s140_6.1.0.dir/C_/mesh/deps/nRF5_SDK_15.2.0_9412b96/components/libraries/util/app_error_handler_gcc.c.obj
 .text          0x00000000        0x0 external/rtt/librtt_nrf52840_xxAA.a(SEGGER_RTT.c.obj)
 .data          0x00000000        0x0 external/rtt/librtt_nrf52840_xxAA.a(SEGGER_RTT.c.obj)
 .bss           0x00000000        0x0 external/rtt/librtt_nrf52840_xxAA.a(SEGGER_RTT.c.obj)
 .text._PostTerminalSwitch.constprop.0
                0x00000000       0x28 external/rtt/librtt_nrf52840_xxAA.a(SEGGER_RTT.c.obj)
 .text.SEGGER_RTT_WriteSkipNoLock
                0x00000000       0xb4 external/rtt/librtt_nrf52840_xxAA.a(SEGGER_RTT.c.obj)
 .text.SEGGER_RTT_WriteString
                0x00000000       0x1a external/rtt/librtt_nrf52840_xxAA.a(SEGGER_RTT.c.obj)
 .text.SEGGER_RTT_WaitKey
                0x00000000        0xc external/rtt/librtt_nrf52840_xxAA.a(SEGGER_RTT.c.obj)
 .text.SEGGER_RTT_HasKey
                0x00000000       0x1c external/rtt/librtt_nrf52840_xxAA.a(SEGGER_RTT.c.obj)
 .text.SEGGER_RTT_HasData
                0x00000000       0x14 external/rtt/librtt_nrf52840_xxAA.a(SEGGER_RTT.c.obj)
 .text.SEGGER_RTT_AllocDownBuffer
                0x00000000       0x68 external/rtt/librtt_nrf52840_xxAA.a(SEGGER_RTT.c.obj)
 .text.SEGGER_RTT_AllocUpBuffer
                0x00000000       0x70 external/rtt/librtt_nrf52840_xxAA.a(SEGGER_RTT.c.obj)
 .text.SEGGER_RTT_ConfigUpBuffer
                0x00000000       0x68 external/rtt/librtt_nrf52840_xxAA.a(SEGGER_RTT.c.obj)
 .text.SEGGER_RTT_ConfigDownBuffer
                0x00000000       0x60 external/rtt/librtt_nrf52840_xxAA.a(SEGGER_RTT.c.obj)
 .text.SEGGER_RTT_SetNameUpBuffer
                0x00000000       0x3c external/rtt/librtt_nrf52840_xxAA.a(SEGGER_RTT.c.obj)
 .text.SEGGER_RTT_SetNameDownBuffer
                0x00000000       0x3c external/rtt/librtt_nrf52840_xxAA.a(SEGGER_RTT.c.obj)
 .text.SEGGER_RTT_Init
                0x00000000       0x10 external/rtt/librtt_nrf52840_xxAA.a(SEGGER_RTT.c.obj)
 .text.SEGGER_RTT_SetTerminal
                0x00000000       0x84 external/rtt/librtt_nrf52840_xxAA.a(SEGGER_RTT.c.obj)
 .text.SEGGER_RTT_TerminalOut
                0x00000000       0xa0 external/rtt/librtt_nrf52840_xxAA.a(SEGGER_RTT.c.obj)
 .bss._ActiveTerminal
                0x00000000        0x1 external/rtt/librtt_nrf52840_xxAA.a(SEGGER_RTT.c.obj)
 .rodata._aTerminalId
                0x00000000       0x10 external/rtt/librtt_nrf52840_xxAA.a(SEGGER_RTT.c.obj)
 .text          0x00000000        0x0 external/rtt/librtt_nrf52840_xxAA.a(SEGGER_RTT_printf.c.obj)
 .data          0x00000000        0x0 external/rtt/librtt_nrf52840_xxAA.a(SEGGER_RTT_printf.c.obj)
 .bss           0x00000000        0x0 external/rtt/librtt_nrf52840_xxAA.a(SEGGER_RTT_printf.c.obj)
 .text          0x00000000        0x0 external/micro-ecc/libuECC_nrf52840_xxAA.a(uECC.c.obj)
 .data          0x00000000        0x0 external/micro-ecc/libuECC_nrf52840_xxAA.a(uECC.c.obj)
 .bss           0x00000000        0x0 external/micro-ecc/libuECC_nrf52840_xxAA.a(uECC.c.obj)
 .text.uECC_vli_modMult
                0x00000000      0x148 external/micro-ecc/libuECC_nrf52840_xxAA.a(uECC.c.obj)
 .text.HMAC_init
                0x00000000       0x46 external/micro-ecc/libuECC_nrf52840_xxAA.a(uECC.c.obj)
 .text.HMAC_update
                0x00000000        0x4 external/micro-ecc/libuECC_nrf52840_xxAA.a(uECC.c.obj)
 .text.HMAC_finish
                0x00000000       0x62 external/micro-ecc/libuECC_nrf52840_xxAA.a(uECC.c.obj)
 .text.update_V
                0x00000000       0x24 external/micro-ecc/libuECC_nrf52840_xxAA.a(uECC.c.obj)
 .text.bits2int
                0x00000000       0x88 external/micro-ecc/libuECC_nrf52840_xxAA.a(uECC.c.obj)
 .text.uECC_sign_with_k
                0x00000000      0x17c external/micro-ecc/libuECC_nrf52840_xxAA.a(uECC.c.obj)
 .text.uECC_set_rng
                0x00000000        0xc external/micro-ecc/libuECC_nrf52840_xxAA.a(uECC.c.obj)
 .text.uECC_get_rng
                0x00000000        0xc external/micro-ecc/libuECC_nrf52840_xxAA.a(uECC.c.obj)
 .text.uECC_curve_private_key_size
                0x00000000        0xe external/micro-ecc/libuECC_nrf52840_xxAA.a(uECC.c.obj)
 .text.uECC_curve_public_key_size
                0x00000000        0x8 external/micro-ecc/libuECC_nrf52840_xxAA.a(uECC.c.obj)
 .text.uECC_compute_public_key
                0x00000000       0x7e external/micro-ecc/libuECC_nrf52840_xxAA.a(uECC.c.obj)
 .text.uECC_sign
                0x00000000       0x56 external/micro-ecc/libuECC_nrf52840_xxAA.a(uECC.c.obj)
 .text.uECC_sign_deterministic
                0x00000000      0x192 external/micro-ecc/libuECC_nrf52840_xxAA.a(uECC.c.obj)
 .text.uECC_verify
                0x00000000      0x2f0 external/micro-ecc/libuECC_nrf52840_xxAA.a(uECC.c.obj)
 .data          0x00000000        0x0 c:/mesh/arm_gcc/bin/../lib/gcc/arm-none-eabi/6.3.1/thumb/v7e-m/fpv4-sp/hard\libgcc.a(_aeabi_uldivmod.o)
 .bss           0x00000000        0x0 c:/mesh/arm_gcc/bin/../lib/gcc/arm-none-eabi/6.3.1/thumb/v7e-m/fpv4-sp/hard\libgcc.a(_aeabi_uldivmod.o)
 .data          0x00000000        0x0 c:/mesh/arm_gcc/bin/../lib/gcc/arm-none-eabi/6.3.1/thumb/v7e-m/fpv4-sp/hard\libgcc.a(_udivmoddi4.o)
 .bss           0x00000000        0x0 c:/mesh/arm_gcc/bin/../lib/gcc/arm-none-eabi/6.3.1/thumb/v7e-m/fpv4-sp/hard\libgcc.a(_udivmoddi4.o)
 .ARM.extab     0x00000000        0x0 c:/mesh/arm_gcc/bin/../lib/gcc/arm-none-eabi/6.3.1/thumb/v7e-m/fpv4-sp/hard\libgcc.a(_udivmoddi4.o)
 .data          0x00000000        0x0 c:/mesh/arm_gcc/bin/../lib/gcc/arm-none-eabi/6.3.1/thumb/v7e-m/fpv4-sp/hard\libgcc.a(_dvmd_tls.o)
 .bss           0x00000000        0x0 c:/mesh/arm_gcc/bin/../lib/gcc/arm-none-eabi/6.3.1/thumb/v7e-m/fpv4-sp/hard\libgcc.a(_dvmd_tls.o)
 .text          0x00000000        0x0 c:/mesh/arm_gcc/bin/../lib/gcc/arm-none-eabi/6.3.1/../../../../arm-none-eabi/lib/thumb/v7e-m/fpv4-sp/hard\libg_nano.a(lib_a-calloc.o)
 .data          0x00000000        0x0 c:/mesh/arm_gcc/bin/../lib/gcc/arm-none-eabi/6.3.1/../../../../arm-none-eabi/lib/thumb/v7e-m/fpv4-sp/hard\libg_nano.a(lib_a-calloc.o)
 .bss           0x00000000        0x0 c:/mesh/arm_gcc/bin/../lib/gcc/arm-none-eabi/6.3.1/../../../../arm-none-eabi/lib/thumb/v7e-m/fpv4-sp/hard\libg_nano.a(lib_a-calloc.o)
 .text.calloc   0x00000000       0x10 c:/mesh/arm_gcc/bin/../lib/gcc/arm-none-eabi/6.3.1/../../../../arm-none-eabi/lib/thumb/v7e-m/fpv4-sp/hard\libg_nano.a(lib_a-calloc.o)
 .debug_frame   0x00000000       0x20 c:/mesh/arm_gcc/bin/../lib/gcc/arm-none-eabi/6.3.1/../../../../arm-none-eabi/lib/thumb/v7e-m/fpv4-sp/hard\libg_nano.a(lib_a-calloc.o)
 .ARM.attributes
                0x00000000       0x34 c:/mesh/arm_gcc/bin/../lib/gcc/arm-none-eabi/6.3.1/../../../../arm-none-eabi/lib/thumb/v7e-m/fpv4-sp/hard\libg_nano.a(lib_a-calloc.o)
 .text          0x00000000        0x0 c:/mesh/arm_gcc/bin/../lib/gcc/arm-none-eabi/6.3.1/../../../../arm-none-eabi/lib/thumb/v7e-m/fpv4-sp/hard\libg_nano.a(lib_a-exit.o)
 .data          0x00000000        0x0 c:/mesh/arm_gcc/bin/../lib/gcc/arm-none-eabi/6.3.1/../../../../arm-none-eabi/lib/thumb/v7e-m/fpv4-sp/hard\libg_nano.a(lib_a-exit.o)
 .bss           0x00000000        0x0 c:/mesh/arm_gcc/bin/../lib/gcc/arm-none-eabi/6.3.1/../../../../arm-none-eabi/lib/thumb/v7e-m/fpv4-sp/hard\libg_nano.a(lib_a-exit.o)
 .text          0x00000000        0x0 c:/mesh/arm_gcc/bin/../lib/gcc/arm-none-eabi/6.3.1/../../../../arm-none-eabi/lib/thumb/v7e-m/fpv4-sp/hard\libg_nano.a(lib_a-impure.o)
 .data          0x00000000        0x0 c:/mesh/arm_gcc/bin/../lib/gcc/arm-none-eabi/6.3.1/../../../../arm-none-eabi/lib/thumb/v7e-m/fpv4-sp/hard\libg_nano.a(lib_a-impure.o)
 .bss           0x00000000        0x0 c:/mesh/arm_gcc/bin/../lib/gcc/arm-none-eabi/6.3.1/../../../../arm-none-eabi/lib/thumb/v7e-m/fpv4-sp/hard\libg_nano.a(lib_a-impure.o)
 .text          0x00000000        0x0 c:/mesh/arm_gcc/bin/../lib/gcc/arm-none-eabi/6.3.1/../../../../arm-none-eabi/lib/thumb/v7e-m/fpv4-sp/hard\libg_nano.a(lib_a-init.o)
 .data          0x00000000        0x0 c:/mesh/arm_gcc/bin/../lib/gcc/arm-none-eabi/6.3.1/../../../../arm-none-eabi/lib/thumb/v7e-m/fpv4-sp/hard\libg_nano.a(lib_a-init.o)
 .bss           0x00000000        0x0 c:/mesh/arm_gcc/bin/../lib/gcc/arm-none-eabi/6.3.1/../../../../arm-none-eabi/lib/thumb/v7e-m/fpv4-sp/hard\libg_nano.a(lib_a-init.o)
 .text          0x00000000        0x0 c:/mesh/arm_gcc/bin/../lib/gcc/arm-none-eabi/6.3.1/../../../../arm-none-eabi/lib/thumb/v7e-m/fpv4-sp/hard\libg_nano.a(lib_a-malloc.o)
 .data          0x00000000        0x0 c:/mesh/arm_gcc/bin/../lib/gcc/arm-none-eabi/6.3.1/../../../../arm-none-eabi/lib/thumb/v7e-m/fpv4-sp/hard\libg_nano.a(lib_a-malloc.o)
 .bss           0x00000000        0x0 c:/mesh/arm_gcc/bin/../lib/gcc/arm-none-eabi/6.3.1/../../../../arm-none-eabi/lib/thumb/v7e-m/fpv4-sp/hard\libg_nano.a(lib_a-malloc.o)
 .text          0x00000000        0x0 c:/mesh/arm_gcc/bin/../lib/gcc/arm-none-eabi/6.3.1/../../../../arm-none-eabi/lib/thumb/v7e-m/fpv4-sp/hard\libg_nano.a(lib_a-memcmp.o)
 .data          0x00000000        0x0 c:/mesh/arm_gcc/bin/../lib/gcc/arm-none-eabi/6.3.1/../../../../arm-none-eabi/lib/thumb/v7e-m/fpv4-sp/hard\libg_nano.a(lib_a-memcmp.o)
 .bss           0x00000000        0x0 c:/mesh/arm_gcc/bin/../lib/gcc/arm-none-eabi/6.3.1/../../../../arm-none-eabi/lib/thumb/v7e-m/fpv4-sp/hard\libg_nano.a(lib_a-memcmp.o)
 .text          0x00000000        0x0 c:/mesh/arm_gcc/bin/../lib/gcc/arm-none-eabi/6.3.1/../../../../arm-none-eabi/lib/thumb/v7e-m/fpv4-sp/hard\libg_nano.a(lib_a-memcpy-stub.o)
 .data          0x00000000        0x0 c:/mesh/arm_gcc/bin/../lib/gcc/arm-none-eabi/6.3.1/../../../../arm-none-eabi/lib/thumb/v7e-m/fpv4-sp/hard\libg_nano.a(lib_a-memcpy-stub.o)
 .bss           0x00000000        0x0 c:/mesh/arm_gcc/bin/../lib/gcc/arm-none-eabi/6.3.1/../../../../arm-none-eabi/lib/thumb/v7e-m/fpv4-sp/hard\libg_nano.a(lib_a-memcpy-stub.o)
 .text          0x00000000        0x0 c:/mesh/arm_gcc/bin/../lib/gcc/arm-none-eabi/6.3.1/../../../../arm-none-eabi/lib/thumb/v7e-m/fpv4-sp/hard\libg_nano.a(lib_a-memset.o)
 .data          0x00000000        0x0 c:/mesh/arm_gcc/bin/../lib/gcc/arm-none-eabi/6.3.1/../../../../arm-none-eabi/lib/thumb/v7e-m/fpv4-sp/hard\libg_nano.a(lib_a-memset.o)
 .bss           0x00000000        0x0 c:/mesh/arm_gcc/bin/../lib/gcc/arm-none-eabi/6.3.1/../../../../arm-none-eabi/lib/thumb/v7e-m/fpv4-sp/hard\libg_nano.a(lib_a-memset.o)
 .text          0x00000000        0x0 c:/mesh/arm_gcc/bin/../lib/gcc/arm-none-eabi/6.3.1/../../../../arm-none-eabi/lib/thumb/v7e-m/fpv4-sp/hard\libg_nano.a(lib_a-nano-callocr.o)
 .data          0x00000000        0x0 c:/mesh/arm_gcc/bin/../lib/gcc/arm-none-eabi/6.3.1/../../../../arm-none-eabi/lib/thumb/v7e-m/fpv4-sp/hard\libg_nano.a(lib_a-nano-callocr.o)
 .bss           0x00000000        0x0 c:/mesh/arm_gcc/bin/../lib/gcc/arm-none-eabi/6.3.1/../../../../arm-none-eabi/lib/thumb/v7e-m/fpv4-sp/hard\libg_nano.a(lib_a-nano-callocr.o)
 .text._calloc_r
                0x00000000       0x1c c:/mesh/arm_gcc/bin/../lib/gcc/arm-none-eabi/6.3.1/../../../../arm-none-eabi/lib/thumb/v7e-m/fpv4-sp/hard\libg_nano.a(lib_a-nano-callocr.o)
 .debug_frame   0x00000000       0x2c c:/mesh/arm_gcc/bin/../lib/gcc/arm-none-eabi/6.3.1/../../../../arm-none-eabi/lib/thumb/v7e-m/fpv4-sp/hard\libg_nano.a(lib_a-nano-callocr.o)
 .ARM.attributes
                0x00000000       0x34 c:/mesh/arm_gcc/bin/../lib/gcc/arm-none-eabi/6.3.1/../../../../arm-none-eabi/lib/thumb/v7e-m/fpv4-sp/hard\libg_nano.a(lib_a-nano-callocr.o)
 .text          0x00000000        0x0 c:/mesh/arm_gcc/bin/../lib/gcc/arm-none-eabi/6.3.1/../../../../arm-none-eabi/lib/thumb/v7e-m/fpv4-sp/hard\libg_nano.a(lib_a-nano-freer.o)
 .data          0x00000000        0x0 c:/mesh/arm_gcc/bin/../lib/gcc/arm-none-eabi/6.3.1/../../../../arm-none-eabi/lib/thumb/v7e-m/fpv4-sp/hard\libg_nano.a(lib_a-nano-freer.o)
 .bss           0x00000000        0x0 c:/mesh/arm_gcc/bin/../lib/gcc/arm-none-eabi/6.3.1/../../../../arm-none-eabi/lib/thumb/v7e-m/fpv4-sp/hard\libg_nano.a(lib_a-nano-freer.o)
 .text          0x00000000        0x0 c:/mesh/arm_gcc/bin/../lib/gcc/arm-none-eabi/6.3.1/../../../../arm-none-eabi/lib/thumb/v7e-m/fpv4-sp/hard\libg_nano.a(lib_a-nano-mallocr.o)
 .data          0x00000000        0x0 c:/mesh/arm_gcc/bin/../lib/gcc/arm-none-eabi/6.3.1/../../../../arm-none-eabi/lib/thumb/v7e-m/fpv4-sp/hard\libg_nano.a(lib_a-nano-mallocr.o)
 .bss           0x00000000        0x0 c:/mesh/arm_gcc/bin/../lib/gcc/arm-none-eabi/6.3.1/../../../../arm-none-eabi/lib/thumb/v7e-m/fpv4-sp/hard\libg_nano.a(lib_a-nano-mallocr.o)
 .text          0x00000000        0x0 c:/mesh/arm_gcc/bin/../lib/gcc/arm-none-eabi/6.3.1/../../../../arm-none-eabi/lib/thumb/v7e-m/fpv4-sp/hard\libg_nano.a(lib_a-sbrkr.o)
 .data          0x00000000        0x0 c:/mesh/arm_gcc/bin/../lib/gcc/arm-none-eabi/6.3.1/../../../../arm-none-eabi/lib/thumb/v7e-m/fpv4-sp/hard\libg_nano.a(lib_a-sbrkr.o)
 .bss           0x00000000        0x0 c:/mesh/arm_gcc/bin/../lib/gcc/arm-none-eabi/6.3.1/../../../../arm-none-eabi/lib/thumb/v7e-m/fpv4-sp/hard\libg_nano.a(lib_a-sbrkr.o)
 .text          0x00000000        0x0 c:/mesh/arm_gcc/bin/../lib/gcc/arm-none-eabi/6.3.1/../../../../arm-none-eabi/lib/thumb/v7e-m/fpv4-sp/hard\libg_nano.a(lib_a-strcpy.o)
 .data          0x00000000        0x0 c:/mesh/arm_gcc/bin/../lib/gcc/arm-none-eabi/6.3.1/../../../../arm-none-eabi/lib/thumb/v7e-m/fpv4-sp/hard\libg_nano.a(lib_a-strcpy.o)
 .bss           0x00000000        0x0 c:/mesh/arm_gcc/bin/../lib/gcc/arm-none-eabi/6.3.1/../../../../arm-none-eabi/lib/thumb/v7e-m/fpv4-sp/hard\libg_nano.a(lib_a-strcpy.o)
 .data          0x00000000        0x0 c:/mesh/arm_gcc/bin/../lib/gcc/arm-none-eabi/6.3.1/../../../../arm-none-eabi/lib/thumb/v7e-m/fpv4-sp/hard\libg_nano.a(lib_a-strlen.o)
 .bss           0x00000000        0x0 c:/mesh/arm_gcc/bin/../lib/gcc/arm-none-eabi/6.3.1/../../../../arm-none-eabi/lib/thumb/v7e-m/fpv4-sp/hard\libg_nano.a(lib_a-strlen.o)
 .text          0x00000000        0x0 c:/mesh/arm_gcc/bin/../lib/gcc/arm-none-eabi/6.3.1/../../../../arm-none-eabi/lib/thumb/v7e-m/fpv4-sp/hard\libg_nano.a(lib_a-strrchr.o)
 .data          0x00000000        0x0 c:/mesh/arm_gcc/bin/../lib/gcc/arm-none-eabi/6.3.1/../../../../arm-none-eabi/lib/thumb/v7e-m/fpv4-sp/hard\libg_nano.a(lib_a-strrchr.o)
 .bss           0x00000000        0x0 c:/mesh/arm_gcc/bin/../lib/gcc/arm-none-eabi/6.3.1/../../../../arm-none-eabi/lib/thumb/v7e-m/fpv4-sp/hard\libg_nano.a(lib_a-strrchr.o)
 .text          0x00000000        0x0 c:/mesh/arm_gcc/bin/../lib/gcc/arm-none-eabi/6.3.1/../../../../arm-none-eabi/lib/thumb/v7e-m/fpv4-sp/hard\libg_nano.a(lib_a-mlock.o)
 .data          0x00000000        0x0 c:/mesh/arm_gcc/bin/../lib/gcc/arm-none-eabi/6.3.1/../../../../arm-none-eabi/lib/thumb/v7e-m/fpv4-sp/hard\libg_nano.a(lib_a-mlock.o)
 .bss           0x00000000        0x0 c:/mesh/arm_gcc/bin/../lib/gcc/arm-none-eabi/6.3.1/../../../../arm-none-eabi/lib/thumb/v7e-m/fpv4-sp/hard\libg_nano.a(lib_a-mlock.o)
 .text          0x00000000        0x0 c:/mesh/arm_gcc/bin/../lib/gcc/arm-none-eabi/6.3.1/../../../../arm-none-eabi/lib/thumb/v7e-m/fpv4-sp/hard\libg_nano.a(lib_a-reent.o)
 .data          0x00000000        0x0 c:/mesh/arm_gcc/bin/../lib/gcc/arm-none-eabi/6.3.1/../../../../arm-none-eabi/lib/thumb/v7e-m/fpv4-sp/hard\libg_nano.a(lib_a-reent.o)
 .bss           0x00000000        0x0 c:/mesh/arm_gcc/bin/../lib/gcc/arm-none-eabi/6.3.1/../../../../arm-none-eabi/lib/thumb/v7e-m/fpv4-sp/hard\libg_nano.a(lib_a-reent.o)
 .text.cleanup_glue
                0x00000000       0x1a c:/mesh/arm_gcc/bin/../lib/gcc/arm-none-eabi/6.3.1/../../../../arm-none-eabi/lib/thumb/v7e-m/fpv4-sp/hard\libg_nano.a(lib_a-reent.o)
 .text._reclaim_reent
                0x00000000       0xb8 c:/mesh/arm_gcc/bin/../lib/gcc/arm-none-eabi/6.3.1/../../../../arm-none-eabi/lib/thumb/v7e-m/fpv4-sp/hard\libg_nano.a(lib_a-reent.o)
 .text          0x00000000        0x0 c:/mesh/arm_gcc/bin/../lib/gcc/arm-none-eabi/6.3.1/../../../../arm-none-eabi/lib/thumb/v7e-m/fpv4-sp/hard\libg_nano.a(lib_a-strchr.o)
 .data          0x00000000        0x0 c:/mesh/arm_gcc/bin/../lib/gcc/arm-none-eabi/6.3.1/../../../../arm-none-eabi/lib/thumb/v7e-m/fpv4-sp/hard\libg_nano.a(lib_a-strchr.o)
 .bss           0x00000000        0x0 c:/mesh/arm_gcc/bin/../lib/gcc/arm-none-eabi/6.3.1/../../../../arm-none-eabi/lib/thumb/v7e-m/fpv4-sp/hard\libg_nano.a(lib_a-strchr.o)
 .text          0x00000000        0x0 c:/mesh/arm_gcc/bin/../lib/gcc/arm-none-eabi/6.3.1/thumb/v7e-m/fpv4-sp/hard/crtend.o
 .data          0x00000000        0x0 c:/mesh/arm_gcc/bin/../lib/gcc/arm-none-eabi/6.3.1/thumb/v7e-m/fpv4-sp/hard/crtend.o
 .bss           0x00000000        0x0 c:/mesh/arm_gcc/bin/../lib/gcc/arm-none-eabi/6.3.1/thumb/v7e-m/fpv4-sp/hard/crtend.o
 .text          0x00000000        0x0 c:/mesh/arm_gcc/bin/../lib/gcc/arm-none-eabi/6.3.1/thumb/v7e-m/fpv4-sp/hard/crtn.o
 .data          0x00000000        0x0 c:/mesh/arm_gcc/bin/../lib/gcc/arm-none-eabi/6.3.1/thumb/v7e-m/fpv4-sp/hard/crtn.o
 .bss           0x00000000        0x0 c:/mesh/arm_gcc/bin/../lib/gcc/arm-none-eabi/6.3.1/thumb/v7e-m/fpv4-sp/hard/crtn.o
 .text          0x00000000        0x0 c:/mesh/arm_gcc/bin/../lib/gcc/arm-none-eabi/6.3.1/../../../../arm-none-eabi/lib/thumb/v7e-m/fpv4-sp/hard\libnosys.a(sbrk.o)
 .data          0x00000000        0x0 c:/mesh/arm_gcc/bin/../lib/gcc/arm-none-eabi/6.3.1/../../../../arm-none-eabi/lib/thumb/v7e-m/fpv4-sp/hard\libnosys.a(sbrk.o)
 .bss           0x00000000        0x0 c:/mesh/arm_gcc/bin/../lib/gcc/arm-none-eabi/6.3.1/../../../../arm-none-eabi/lib/thumb/v7e-m/fpv4-sp/hard\libnosys.a(sbrk.o)
 .text          0x00000000        0x0 c:/mesh/arm_gcc/bin/../lib/gcc/arm-none-eabi/6.3.1/../../../../arm-none-eabi/lib/thumb/v7e-m/fpv4-sp/hard\libnosys.a(_exit.o)
 .data          0x00000000        0x0 c:/mesh/arm_gcc/bin/../lib/gcc/arm-none-eabi/6.3.1/../../../../arm-none-eabi/lib/thumb/v7e-m/fpv4-sp/hard\libnosys.a(_exit.o)
 .bss           0x00000000        0x0 c:/mesh/arm_gcc/bin/../lib/gcc/arm-none-eabi/6.3.1/../../../../arm-none-eabi/lib/thumb/v7e-m/fpv4-sp/hard\libnosys.a(_exit.o)

Memory Configuration

Name             Origin             Length             Attributes
FLASH            0x00026000         0x000d1000         xr
RAM              0x20002da0         0x0003cf60         xrw
*default*        0x00000000         0xffffffff

Linker script and memory map


.text           0x00026000    0x180c4
 *(.isr_vector)
 .isr_vector    0x00026000      0x200 examples/experimental_lpn/CMakeFiles/lpn_nrf52840_xxAA_s140_6.1.0.dir/C_/mesh/deps/nRF5_SDK_15.2.0_9412b96/modules/nrfx/mdk/gcc_startup_nrf52840.S.obj
                0x00026000                __isr_vector
 *(.text*)
 .text          0x00026200       0x6c c:/mesh/arm_gcc/bin/../lib/gcc/arm-none-eabi/6.3.1/thumb/v7e-m/fpv4-sp/hard/crtbegin.o
 .text          0x0002626c       0x74 c:/mesh/arm_gcc/bin/../lib/gcc/arm-none-eabi/6.3.1/../../../../arm-none-eabi/lib/thumb/v7e-m/fpv4-sp/hard/crt0.o
                0x0002626c                _start
                0x0002626c                _mainCRTStartup
 .text.sd_power_dcdc_mode_set
                0x000262e0        0x4 examples/experimental_lpn/CMakeFiles/lpn_nrf52840_xxAA_s140_6.1.0.dir/src/main.c.obj
 .text.sd_app_evt_wait
                0x000262e4        0x4 examples/experimental_lpn/CMakeFiles/lpn_nrf52840_xxAA_s140_6.1.0.dir/src/main.c.obj
 .text.app_generic_onoff_client_status_cb
                0x000262e8       0xd0 examples/experimental_lpn/CMakeFiles/lpn_nrf52840_xxAA_s140_6.1.0.dir/src/main.c.obj
 .text.send_app_state
                0x000263b8      0x164 examples/experimental_lpn/CMakeFiles/lpn_nrf52840_xxAA_s140_6.1.0.dir/src/main.c.obj
 .text.state_on_timer_handler
                0x0002651c        0x6 examples/experimental_lpn/CMakeFiles/lpn_nrf52840_xxAA_s140_6.1.0.dir/src/main.c.obj
 *fill*         0x00026522        0x2 
 .text.node_reset
                0x00026524       0x74 examples/experimental_lpn/CMakeFiles/lpn_nrf52840_xxAA_s140_6.1.0.dir/src/main.c.obj
 .text.button_event_handler
                0x00026598      0x320 examples/experimental_lpn/CMakeFiles/lpn_nrf52840_xxAA_s140_6.1.0.dir/src/main.c.obj
 .text.rtt_input_handler
                0x000268b8        0xc examples/experimental_lpn/CMakeFiles/lpn_nrf52840_xxAA_s140_6.1.0.dir/src/main.c.obj
 .text.config_server_evt_cb
                0x000268c4        0xc examples/experimental_lpn/CMakeFiles/lpn_nrf52840_xxAA_s140_6.1.0.dir/src/main.c.obj
 .text.app_mesh_core_event_cb
                0x000268d0      0x288 examples/experimental_lpn/CMakeFiles/lpn_nrf52840_xxAA_s140_6.1.0.dir/src/main.c.obj
 .text.models_init_cb
                0x00026b58       0x98 examples/experimental_lpn/CMakeFiles/lpn_nrf52840_xxAA_s140_6.1.0.dir/src/main.c.obj
 .text.start    0x00026bf0      0x124 examples/experimental_lpn/CMakeFiles/lpn_nrf52840_xxAA_s140_6.1.0.dir/src/main.c.obj
 .text.device_identification_start_cb
                0x00026d14       0x22 examples/experimental_lpn/CMakeFiles/lpn_nrf52840_xxAA_s140_6.1.0.dir/src/main.c.obj
 .text.provisioning_aborted_cb
                0x00026d36        0x4 examples/experimental_lpn/CMakeFiles/lpn_nrf52840_xxAA_s140_6.1.0.dir/src/main.c.obj
 *fill*         0x00026d3a        0x2 
 .text.provisioning_complete_cb
                0x00026d3c       0xdc examples/experimental_lpn/CMakeFiles/lpn_nrf52840_xxAA_s140_6.1.0.dir/src/main.c.obj
 .text.app_gen_onoff_client_publish_interval_cb
                0x00026e18       0x64 examples/experimental_lpn/CMakeFiles/lpn_nrf52840_xxAA_s140_6.1.0.dir/src/main.c.obj
 .text.startup.main
                0x00026e7c      0x134 examples/experimental_lpn/CMakeFiles/lpn_nrf52840_xxAA_s140_6.1.0.dir/src/main.c.obj
                0x00026e7c                main
 .text.mesh_evt_handler
                0x00026fb0        0xe examples/experimental_lpn/CMakeFiles/lpn_nrf52840_xxAA_s140_6.1.0.dir/__/__/mesh/stack/src/mesh_stack.c.obj
 .text.mesh_stack_provisioning_data_store
                0x00026fbe       0x6c examples/experimental_lpn/CMakeFiles/lpn_nrf52840_xxAA_s140_6.1.0.dir/__/__/mesh/stack/src/mesh_stack.c.obj
                0x00026fbe                mesh_stack_provisioning_data_store
 .text.mesh_stack_config_clear
                0x0002702a       0x12 examples/experimental_lpn/CMakeFiles/lpn_nrf52840_xxAA_s140_6.1.0.dir/__/__/mesh/stack/src/mesh_stack.c.obj
                0x0002702a                mesh_stack_config_clear
 .text.mesh_stack_is_device_provisioned
                0x0002703c       0x18 examples/experimental_lpn/CMakeFiles/lpn_nrf52840_xxAA_s140_6.1.0.dir/__/__/mesh/stack/src/mesh_stack.c.obj
                0x0002703c                mesh_stack_is_device_provisioned
 .text.mesh_stack_init
                0x00027054       0x6c examples/experimental_lpn/CMakeFiles/lpn_nrf52840_xxAA_s140_6.1.0.dir/__/__/mesh/stack/src/mesh_stack.c.obj
                0x00027054                mesh_stack_init
 .text.mesh_stack_start
                0x000270c0       0x1a examples/experimental_lpn/CMakeFiles/lpn_nrf52840_xxAA_s140_6.1.0.dir/__/__/mesh/stack/src/mesh_stack.c.obj
                0x000270c0                mesh_stack_start
 *fill*         0x000270da        0x2 
 .text.mesh_stack_device_reset
                0x000270dc       0x20 examples/experimental_lpn/CMakeFiles/lpn_nrf52840_xxAA_s140_6.1.0.dir/__/__/mesh/stack/src/mesh_stack.c.obj
                0x000270dc                mesh_stack_device_reset
 .text.provisionee_start
                0x000270fc       0x18 examples/experimental_lpn/CMakeFiles/lpn_nrf52840_xxAA_s140_6.1.0.dir/__/common/src/mesh_provisionee.c.obj
 .text.prov_evt_handler
                0x00027114       0xbc examples/experimental_lpn/CMakeFiles/lpn_nrf52840_xxAA_s140_6.1.0.dir/__/common/src/mesh_provisionee.c.obj
 .text.sd_state_evt_handler
                0x000271d0       0xa8 examples/experimental_lpn/CMakeFiles/lpn_nrf52840_xxAA_s140_6.1.0.dir/__/common/src/mesh_provisionee.c.obj
 .text.mesh_evt_handler
                0x00027278       0x2c examples/experimental_lpn/CMakeFiles/lpn_nrf52840_xxAA_s140_6.1.0.dir/__/common/src/mesh_provisionee.c.obj
 .text.mesh_provisionee_prov_start
                0x000272a4       0x88 examples/experimental_lpn/CMakeFiles/lpn_nrf52840_xxAA_s140_6.1.0.dir/__/common/src/mesh_provisionee.c.obj
                0x000272a4                mesh_provisionee_prov_start
 .text.timeout_handler
                0x0002732c       0x1c examples/experimental_lpn/CMakeFiles/lpn_nrf52840_xxAA_s140_6.1.0.dir/__/common/src/rtt_input.c.obj
                0x0002732c                timeout_handler
 .text.rtt_input_enable
                0x00027348       0x6c examples/experimental_lpn/CMakeFiles/lpn_nrf52840_xxAA_s140_6.1.0.dir/__/common/src/rtt_input.c.obj
                0x00027348                rtt_input_enable
 .text.led_timeout_handler
                0x000273b4       0x48 examples/experimental_lpn/CMakeFiles/lpn_nrf52840_xxAA_s140_6.1.0.dir/__/common/src/simple_hal.c.obj
 .text.hal_led_pin_set
                0x000273fc       0x16 examples/experimental_lpn/CMakeFiles/lpn_nrf52840_xxAA_s140_6.1.0.dir/__/common/src/simple_hal.c.obj
                0x000273fc                hal_led_pin_set
 .text.hal_led_mask_set
                0x00027412       0x12 examples/experimental_lpn/CMakeFiles/lpn_nrf52840_xxAA_s140_6.1.0.dir/__/common/src/simple_hal.c.obj
                0x00027412                hal_led_mask_set
 .text.hal_led_blink_ms
                0x00027424       0x68 examples/experimental_lpn/CMakeFiles/lpn_nrf52840_xxAA_s140_6.1.0.dir/__/common/src/simple_hal.c.obj
                0x00027424                hal_led_blink_ms
 .text.hal_led_blink_stop
                0x0002748c       0x20 examples/experimental_lpn/CMakeFiles/lpn_nrf52840_xxAA_s140_6.1.0.dir/__/common/src/simple_hal.c.obj
                0x0002748c                hal_led_blink_stop
 .text.hal_leds_init
                0x000274ac       0x58 examples/experimental_lpn/CMakeFiles/lpn_nrf52840_xxAA_s140_6.1.0.dir/__/common/src/simple_hal.c.obj
                0x000274ac                hal_leds_init
 .text.hal_buttons_init
                0x00027504       0x50 examples/experimental_lpn/CMakeFiles/lpn_nrf52840_xxAA_s140_6.1.0.dir/__/common/src/simple_hal.c.obj
                0x00027504                hal_buttons_init
 .text.GPIOTE_IRQHandler
                0x00027554       0x60 examples/experimental_lpn/CMakeFiles/lpn_nrf52840_xxAA_s140_6.1.0.dir/__/common/src/simple_hal.c.obj
                0x00027554                GPIOTE_IRQHandler
 .text.mesh_app_uuid_gen
                0x000275b4       0x30 examples/experimental_lpn/CMakeFiles/lpn_nrf52840_xxAA_s140_6.1.0.dir/__/common/src/mesh_app_utils.c.obj
                0x000275b4                mesh_app_uuid_gen
 .text.sd_ble_gap_adv_set_configure
                0x000275e4        0x4 examples/experimental_lpn/CMakeFiles/lpn_nrf52840_xxAA_s140_6.1.0.dir/__/common/src/mesh_adv.c.obj
 .text.sd_ble_gap_adv_start
                0x000275e8        0x4 examples/experimental_lpn/CMakeFiles/lpn_nrf52840_xxAA_s140_6.1.0.dir/__/common/src/mesh_adv.c.obj
 .text.sd_ble_gap_adv_stop
                0x000275ec        0x4 examples/experimental_lpn/CMakeFiles/lpn_nrf52840_xxAA_s140_6.1.0.dir/__/common/src/mesh_adv.c.obj
 .text.mesh_adv_data_set
                0x000275f0       0xdc examples/experimental_lpn/CMakeFiles/lpn_nrf52840_xxAA_s140_6.1.0.dir/__/common/src/mesh_adv.c.obj
                0x000275f0                mesh_adv_data_set
 .text.mesh_adv_params_set
                0x000276cc       0x14 examples/experimental_lpn/CMakeFiles/lpn_nrf52840_xxAA_s140_6.1.0.dir/__/common/src/mesh_adv.c.obj
                0x000276cc                mesh_adv_params_set
 .text.mesh_adv_start
                0x000276e0       0x20 examples/experimental_lpn/CMakeFiles/lpn_nrf52840_xxAA_s140_6.1.0.dir/__/common/src/mesh_adv.c.obj
                0x000276e0                mesh_adv_start
 .text.mesh_adv_stop
                0x00027700       0x1c examples/experimental_lpn/CMakeFiles/lpn_nrf52840_xxAA_s140_6.1.0.dir/__/common/src/mesh_adv.c.obj
                0x00027700                mesh_adv_stop
 .text.sd_ble_gap_disconnect
                0x0002771c        0x4 examples/experimental_lpn/CMakeFiles/lpn_nrf52840_xxAA_s140_6.1.0.dir/__/common/src/ble_softdevice_support.c.obj
 .text.sd_ble_gap_ppcp_set
                0x00027720        0x4 examples/experimental_lpn/CMakeFiles/lpn_nrf52840_xxAA_s140_6.1.0.dir/__/common/src/ble_softdevice_support.c.obj
 .text.sd_ble_gap_device_name_set
                0x00027724        0x4 examples/experimental_lpn/CMakeFiles/lpn_nrf52840_xxAA_s140_6.1.0.dir/__/common/src/ble_softdevice_support.c.obj
 .text.conn_params_error_handler
                0x00027728        0x4 examples/experimental_lpn/CMakeFiles/lpn_nrf52840_xxAA_s140_6.1.0.dir/__/common/src/ble_softdevice_support.c.obj
 .text.on_sd_evt
                0x0002772c        0x4 examples/experimental_lpn/CMakeFiles/lpn_nrf52840_xxAA_s140_6.1.0.dir/__/common/src/ble_softdevice_support.c.obj
 .text.on_conn_params_evt
                0x00027730       0x80 examples/experimental_lpn/CMakeFiles/lpn_nrf52840_xxAA_s140_6.1.0.dir/__/common/src/ble_softdevice_support.c.obj
 .text.ble_stack_init
                0x000277b0       0x32 examples/experimental_lpn/CMakeFiles/lpn_nrf52840_xxAA_s140_6.1.0.dir/__/common/src/ble_softdevice_support.c.obj
                0x000277b0                ble_stack_init
 *fill*         0x000277e2        0x2 
 .text.gap_params_init
                0x000277e4       0x68 examples/experimental_lpn/CMakeFiles/lpn_nrf52840_xxAA_s140_6.1.0.dir/__/common/src/ble_softdevice_support.c.obj
                0x000277e4                gap_params_init
 .text.conn_params_init
                0x0002784c       0x70 examples/experimental_lpn/CMakeFiles/lpn_nrf52840_xxAA_s140_6.1.0.dir/__/common/src/ble_softdevice_support.c.obj
                0x0002784c                conn_params_init
 .text.app_util_critical_region_enter
                0x000278bc       0x48 examples/experimental_lpn/CMakeFiles/lpn_nrf52840_xxAA_s140_6.1.0.dir/C_/mesh/deps/nRF5_SDK_15.2.0_9412b96/components/libraries/util/app_util_platform.c.obj
                0x000278bc                app_util_critical_region_enter
 .text.app_util_critical_region_exit
                0x00027904       0x2c examples/experimental_lpn/CMakeFiles/lpn_nrf52840_xxAA_s140_6.1.0.dir/C_/mesh/deps/nRF5_SDK_15.2.0_9412b96/components/libraries/util/app_util_platform.c.obj
                0x00027904                app_util_critical_region_exit
 .text.sd_ble_gap_addr_get
                0x00027930        0x4 examples/experimental_lpn/CMakeFiles/lpn_nrf52840_xxAA_s140_6.1.0.dir/C_/mesh/deps/nRF5_SDK_15.2.0_9412b96/components/ble/common/ble_advdata.c.obj
 .text.sd_ble_gap_appearance_get
                0x00027934        0x4 examples/experimental_lpn/CMakeFiles/lpn_nrf52840_xxAA_s140_6.1.0.dir/C_/mesh/deps/nRF5_SDK_15.2.0_9412b96/components/ble/common/ble_advdata.c.obj
 .text.sd_ble_gap_device_name_get
                0x00027938        0x4 examples/experimental_lpn/CMakeFiles/lpn_nrf52840_xxAA_s140_6.1.0.dir/C_/mesh/deps/nRF5_SDK_15.2.0_9412b96/components/ble/common/ble_advdata.c.obj
 .text.sd_ble_uuid_encode
                0x0002793c        0x4 examples/experimental_lpn/CMakeFiles/lpn_nrf52840_xxAA_s140_6.1.0.dir/C_/mesh/deps/nRF5_SDK_15.2.0_9412b96/components/ble/common/ble_advdata.c.obj
 .text.uuid_list_sized_encode
                0x00027940       0xa4 examples/experimental_lpn/CMakeFiles/lpn_nrf52840_xxAA_s140_6.1.0.dir/C_/mesh/deps/nRF5_SDK_15.2.0_9412b96/components/ble/common/ble_advdata.c.obj
 .text.uuid_list_encode
                0x000279e4       0x34 examples/experimental_lpn/CMakeFiles/lpn_nrf52840_xxAA_s140_6.1.0.dir/C_/mesh/deps/nRF5_SDK_15.2.0_9412b96/components/ble/common/ble_advdata.c.obj
 .text.ble_advdata_encode
                0x00027a18      0x388 examples/experimental_lpn/CMakeFiles/lpn_nrf52840_xxAA_s140_6.1.0.dir/C_/mesh/deps/nRF5_SDK_15.2.0_9412b96/components/ble/common/ble_advdata.c.obj
                0x00027a18                ble_advdata_encode
 .text.nrf_section_iter_init
                0x00027da0       0x12 examples/experimental_lpn/CMakeFiles/lpn_nrf52840_xxAA_s140_6.1.0.dir/C_/mesh/deps/nRF5_SDK_15.2.0_9412b96/components/libraries/experimental_section_vars/nrf_section_iter.c.obj
                0x00027da0                nrf_section_iter_init
 .text.nrf_section_iter_next
                0x00027db2       0x18 examples/experimental_lpn/CMakeFiles/lpn_nrf52840_xxAA_s140_6.1.0.dir/C_/mesh/deps/nRF5_SDK_15.2.0_9412b96/components/libraries/experimental_section_vars/nrf_section_iter.c.obj
                0x00027db2                nrf_section_iter_next
 .text.sd_evt_get
                0x00027dca        0x4 examples/experimental_lpn/CMakeFiles/lpn_nrf52840_xxAA_s140_6.1.0.dir/C_/mesh/deps/nRF5_SDK_15.2.0_9412b96/components/softdevice/common/nrf_sdh_soc.c.obj
 *fill*         0x00027dce        0x2 
 .text.nrf_sdh_soc_evts_poll
                0x00027dd0       0x3c examples/experimental_lpn/CMakeFiles/lpn_nrf52840_xxAA_s140_6.1.0.dir/C_/mesh/deps/nRF5_SDK_15.2.0_9412b96/components/softdevice/common/nrf_sdh_soc.c.obj
 .text.sd_ble_enable
                0x00027e0c        0x4 examples/experimental_lpn/CMakeFiles/lpn_nrf52840_xxAA_s140_6.1.0.dir/C_/mesh/deps/nRF5_SDK_15.2.0_9412b96/components/softdevice/common/nrf_sdh_ble.c.obj
 .text.sd_ble_cfg_set
                0x00027e10        0x4 examples/experimental_lpn/CMakeFiles/lpn_nrf52840_xxAA_s140_6.1.0.dir/C_/mesh/deps/nRF5_SDK_15.2.0_9412b96/components/softdevice/common/nrf_sdh_ble.c.obj
 .text.sd_ble_evt_get
                0x00027e14        0x4 examples/experimental_lpn/CMakeFiles/lpn_nrf52840_xxAA_s140_6.1.0.dir/C_/mesh/deps/nRF5_SDK_15.2.0_9412b96/components/softdevice/common/nrf_sdh_ble.c.obj
 .text.nrf_sdh_ble_evts_poll
                0x00027e18       0x50 examples/experimental_lpn/CMakeFiles/lpn_nrf52840_xxAA_s140_6.1.0.dir/C_/mesh/deps/nRF5_SDK_15.2.0_9412b96/components/softdevice/common/nrf_sdh_ble.c.obj
 .text.nrf_sdh_ble_default_cfg_set
                0x00027e68       0xd4 examples/experimental_lpn/CMakeFiles/lpn_nrf52840_xxAA_s140_6.1.0.dir/C_/mesh/deps/nRF5_SDK_15.2.0_9412b96/components/softdevice/common/nrf_sdh_ble.c.obj
                0x00027e68                nrf_sdh_ble_default_cfg_set
 .text.nrf_sdh_ble_enable
                0x00027f3c       0x14 examples/experimental_lpn/CMakeFiles/lpn_nrf52840_xxAA_s140_6.1.0.dir/C_/mesh/deps/nRF5_SDK_15.2.0_9412b96/components/softdevice/common/nrf_sdh_ble.c.obj
                0x00027f3c                nrf_sdh_ble_enable
 .text.sd_softdevice_enable
                0x00027f50        0x4 examples/experimental_lpn/CMakeFiles/lpn_nrf52840_xxAA_s140_6.1.0.dir/C_/mesh/deps/nRF5_SDK_15.2.0_9412b96/components/softdevice/common/nrf_sdh.c.obj
 .text.sd_softdevice_disable
                0x00027f54        0x4 examples/experimental_lpn/CMakeFiles/lpn_nrf52840_xxAA_s140_6.1.0.dir/C_/mesh/deps/nRF5_SDK_15.2.0_9412b96/components/softdevice/common/nrf_sdh.c.obj
 .text.sdh_request_observer_notify
                0x00027f58       0x30 examples/experimental_lpn/CMakeFiles/lpn_nrf52840_xxAA_s140_6.1.0.dir/C_/mesh/deps/nRF5_SDK_15.2.0_9412b96/components/softdevice/common/nrf_sdh.c.obj
 .text.sdh_state_observer_notify
                0x00027f88       0x28 examples/experimental_lpn/CMakeFiles/lpn_nrf52840_xxAA_s140_6.1.0.dir/C_/mesh/deps/nRF5_SDK_15.2.0_9412b96/components/softdevice/common/nrf_sdh.c.obj
 .text.softdevice_evt_irq_disable
                0x00027fb0       0x24 examples/experimental_lpn/CMakeFiles/lpn_nrf52840_xxAA_s140_6.1.0.dir/C_/mesh/deps/nRF5_SDK_15.2.0_9412b96/components/softdevice/common/nrf_sdh.c.obj
 .text.softdevices_evt_irq_enable
                0x00027fd4       0x3c examples/experimental_lpn/CMakeFiles/lpn_nrf52840_xxAA_s140_6.1.0.dir/C_/mesh/deps/nRF5_SDK_15.2.0_9412b96/components/softdevice/common/nrf_sdh.c.obj
 .text.nrf_sdh_enable_request
                0x00028010       0x78 examples/experimental_lpn/CMakeFiles/lpn_nrf52840_xxAA_s140_6.1.0.dir/C_/mesh/deps/nRF5_SDK_15.2.0_9412b96/components/softdevice/common/nrf_sdh.c.obj
                0x00028010                nrf_sdh_enable_request
 .text.nrf_sdh_disable_request
                0x00028088       0x60 examples/experimental_lpn/CMakeFiles/lpn_nrf52840_xxAA_s140_6.1.0.dir/C_/mesh/deps/nRF5_SDK_15.2.0_9412b96/components/softdevice/common/nrf_sdh.c.obj
                0x00028088                nrf_sdh_disable_request
 .text.nrf_sdh_evts_poll
                0x000280e8       0x28 examples/experimental_lpn/CMakeFiles/lpn_nrf52840_xxAA_s140_6.1.0.dir/C_/mesh/deps/nRF5_SDK_15.2.0_9412b96/components/softdevice/common/nrf_sdh.c.obj
                0x000280e8                nrf_sdh_evts_poll
 .text.SWI2_EGU2_IRQHandler
                0x00028110        0x4 examples/experimental_lpn/CMakeFiles/lpn_nrf52840_xxAA_s140_6.1.0.dir/C_/mesh/deps/nRF5_SDK_15.2.0_9412b96/components/softdevice/common/nrf_sdh.c.obj
                0x00028110                SWI2_EGU2_IRQHandler
 .text.sd_ble_gap_conn_param_update
                0x00028114        0x4 examples/experimental_lpn/CMakeFiles/lpn_nrf52840_xxAA_s140_6.1.0.dir/C_/mesh/deps/nRF5_SDK_15.2.0_9412b96/components/ble/common/ble_conn_params.c.obj
 .text.sd_ble_gap_disconnect
                0x00028118        0x4 examples/experimental_lpn/CMakeFiles/lpn_nrf52840_xxAA_s140_6.1.0.dir/C_/mesh/deps/nRF5_SDK_15.2.0_9412b96/components/ble/common/ble_conn_params.c.obj
 .text.sd_ble_gap_ppcp_set
                0x0002811c        0x4 examples/experimental_lpn/CMakeFiles/lpn_nrf52840_xxAA_s140_6.1.0.dir/C_/mesh/deps/nRF5_SDK_15.2.0_9412b96/components/ble/common/ble_conn_params.c.obj
 .text.sd_ble_gap_ppcp_get
                0x00028120        0x4 examples/experimental_lpn/CMakeFiles/lpn_nrf52840_xxAA_s140_6.1.0.dir/C_/mesh/deps/nRF5_SDK_15.2.0_9412b96/components/ble/common/ble_conn_params.c.obj
 .text.instance_get
                0x00028124       0x14 examples/experimental_lpn/CMakeFiles/lpn_nrf52840_xxAA_s140_6.1.0.dir/C_/mesh/deps/nRF5_SDK_15.2.0_9412b96/components/ble/common/ble_conn_params.c.obj
 .text.send_error_evt
                0x00028138       0x10 examples/experimental_lpn/CMakeFiles/lpn_nrf52840_xxAA_s140_6.1.0.dir/C_/mesh/deps/nRF5_SDK_15.2.0_9412b96/components/ble/common/ble_conn_params.c.obj
 .text.update_timeout_handler
                0x00028148       0x6c examples/experimental_lpn/CMakeFiles/lpn_nrf52840_xxAA_s140_6.1.0.dir/C_/mesh/deps/nRF5_SDK_15.2.0_9412b96/components/ble/common/ble_conn_params.c.obj
 .text.conn_params_negotiation
                0x000281b4       0x48 examples/experimental_lpn/CMakeFiles/lpn_nrf52840_xxAA_s140_6.1.0.dir/C_/mesh/deps/nRF5_SDK_15.2.0_9412b96/components/ble/common/ble_conn_params.c.obj
 .text.is_conn_params_ok.constprop.3
                0x000281fc       0x3a examples/experimental_lpn/CMakeFiles/lpn_nrf52840_xxAA_s140_6.1.0.dir/C_/mesh/deps/nRF5_SDK_15.2.0_9412b96/components/ble/common/ble_conn_params.c.obj
 *fill*         0x00028236        0x2 
 .text.ble_evt_handler
                0x00028238       0xdc examples/experimental_lpn/CMakeFiles/lpn_nrf52840_xxAA_s140_6.1.0.dir/C_/mesh/deps/nRF5_SDK_15.2.0_9412b96/components/ble/common/ble_conn_params.c.obj
 .text.ble_conn_params_init
                0x00028314       0x74 examples/experimental_lpn/CMakeFiles/lpn_nrf52840_xxAA_s140_6.1.0.dir/C_/mesh/deps/nRF5_SDK_15.2.0_9412b96/components/ble/common/ble_conn_params.c.obj
                0x00028314                ble_conn_params_init
 .text.ble_srv_is_notification_enabled
                0x00028388        0x8 examples/experimental_lpn/CMakeFiles/lpn_nrf52840_xxAA_s140_6.1.0.dir/C_/mesh/deps/nRF5_SDK_15.2.0_9412b96/components/ble/common/ble_srv_common.c.obj
                0x00028388                ble_srv_is_notification_enabled
 .text._weak_handler
                0x00028390        0x4 examples/experimental_lpn/CMakeFiles/lpn_nrf52840_xxAA_s140_6.1.0.dir/__/nrf_mesh_weak.c.obj
                0x00028390                nrf_mesh_dfu_init
                0x00028390                nrf_mesh_dfu_jump_to_bootloader
                0x00028390                nrf_mesh_dfu_rx
                0x00028390                prov_provisioner_provision
                0x00028390                nrf_mesh_dfu_bank_info_get
                0x00028390                prov_provisioner_oob_pubkey
                0x00028390                nrf_mesh_dfu_request
                0x00028390                nrf_mesh_dfu_bank_flash
                0x00028390                nrf_mesh_dfu_enable
                0x00028390                _weak_handler
                0x00028390                nrf_mesh_dfu_relay
                0x00028390                nrf_mesh_dfu_abort
                0x00028390                mesh_flash_op_execute
                0x00028390                prov_provisionee_init
                0x00028390                nrf_mesh_dfu_state_get
                0x00028390                prov_provisioner_shared_secret
                0x00028390                prov_provisioner_auth_data
                0x00028390                prov_bearer_adv_packet_in
                0x00028390                prov_provisioner_oob_use
 .text.app_error_fault_handler
                0x00028394      0x208 examples/experimental_lpn/CMakeFiles/lpn_nrf52840_xxAA_s140_6.1.0.dir/__/common/src/app_error_weak.c.obj
                0x00028394                app_error_fault_handler
 .text.mesh_assertion_handler
                0x0002859c       0x24 examples/experimental_lpn/CMakeFiles/lpn_nrf52840_xxAA_s140_6.1.0.dir/__/common/src/assertion_handler_weak.c.obj
                0x0002859c                mesh_assertion_handler
 .text.nrf_mesh_configure_device_uuid_set
                0x000285c0       0x10 examples/experimental_lpn/CMakeFiles/lpn_nrf52840_xxAA_s140_6.1.0.dir/__/__/mesh/core/src/nrf_mesh_configure.c.obj
                0x000285c0                nrf_mesh_configure_device_uuid_set
 .text.nrf_mesh_configure_device_uuid_reset
                0x000285d0       0x28 examples/experimental_lpn/CMakeFiles/lpn_nrf52840_xxAA_s140_6.1.0.dir/__/__/mesh/core/src/nrf_mesh_configure.c.obj
                0x000285d0                nrf_mesh_configure_device_uuid_reset
 .text.nrf_mesh_configure_device_uuid_get
                0x000285f8        0x8 examples/experimental_lpn/CMakeFiles/lpn_nrf52840_xxAA_s140_6.1.0.dir/__/__/mesh/core/src/nrf_mesh_configure.c.obj
                0x000285f8                nrf_mesh_configure_device_uuid_get
 .text.msg_cache_init
                0x00028600       0x24 examples/experimental_lpn/CMakeFiles/lpn_nrf52840_xxAA_s140_6.1.0.dir/__/__/mesh/core/src/msg_cache.c.obj
                0x00028600                msg_cache_init
 .text.msg_cache_entry_exists
                0x00028624       0x3c examples/experimental_lpn/CMakeFiles/lpn_nrf52840_xxAA_s140_6.1.0.dir/__/__/mesh/core/src/msg_cache.c.obj
                0x00028624                msg_cache_entry_exists
 .text.msg_cache_entry_add
                0x00028660       0x2c examples/experimental_lpn/CMakeFiles/lpn_nrf52840_xxAA_s140_6.1.0.dir/__/__/mesh/core/src/msg_cache.c.obj
                0x00028660                msg_cache_entry_add
 .text.seqauth_sequence_number_get
                0x0002868c       0x12 examples/experimental_lpn/CMakeFiles/lpn_nrf52840_xxAA_s140_6.1.0.dir/__/__/mesh/core/src/transport.c.obj
 *fill*         0x0002869e        0x2 
 .text.control_packet_callback_get
                0x000286a0       0x44 examples/experimental_lpn/CMakeFiles/lpn_nrf52840_xxAA_s140_6.1.0.dir/__/__/mesh/core/src/transport.c.obj
 .text.tx_complete
                0x000286e4       0x2c examples/experimental_lpn/CMakeFiles/lpn_nrf52840_xxAA_s140_6.1.0.dir/__/__/mesh/core/src/transport.c.obj
 .text.block_ack_full
                0x00028710       0x1a examples/experimental_lpn/CMakeFiles/lpn_nrf52840_xxAA_s140_6.1.0.dir/__/__/mesh/core/src/transport.c.obj
 *fill*         0x0002872a        0x2 
 .text.sar_rx_session_mark_as_handled
                0x0002872c       0x48 examples/experimental_lpn/CMakeFiles/lpn_nrf52840_xxAA_s140_6.1.0.dir/__/__/mesh/core/src/transport.c.obj
 .text.upper_trs_packet_encrypt
                0x00028774       0x90 examples/experimental_lpn/CMakeFiles/lpn_nrf52840_xxAA_s140_6.1.0.dir/__/__/mesh/core/src/transport.c.obj
 .text.sar_ctx_free
                0x00028804       0x58 examples/experimental_lpn/CMakeFiles/lpn_nrf52840_xxAA_s140_6.1.0.dir/__/__/mesh/core/src/transport.c.obj
 .text.sar_ctx_tx_complete
                0x0002885c       0x2e examples/experimental_lpn/CMakeFiles/lpn_nrf52840_xxAA_s140_6.1.0.dir/__/__/mesh/core/src/transport.c.obj
 *fill*         0x0002888a        0x2 
 .text.sar_ctx_alloc
                0x0002888c       0xfc examples/experimental_lpn/CMakeFiles/lpn_nrf52840_xxAA_s140_6.1.0.dir/__/__/mesh/core/src/transport.c.obj
 .text.test_transport_decrypt
                0x00028988       0x88 examples/experimental_lpn/CMakeFiles/lpn_nrf52840_xxAA_s140_6.1.0.dir/__/__/mesh/core/src/transport.c.obj
 .text.upper_transport_access_packet_in
                0x00028a10      0x19c examples/experimental_lpn/CMakeFiles/lpn_nrf52840_xxAA_s140_6.1.0.dir/__/__/mesh/core/src/transport.c.obj
 .text.trs_packet_header_build
                0x00028bac       0xa6 examples/experimental_lpn/CMakeFiles/lpn_nrf52840_xxAA_s140_6.1.0.dir/__/__/mesh/core/src/transport.c.obj
 *fill*         0x00028c52        0x2 
 .text.tx_retry_timer_reset
                0x00028c54       0x44 examples/experimental_lpn/CMakeFiles/lpn_nrf52840_xxAA_s140_6.1.0.dir/__/__/mesh/core/src/transport.c.obj
 .text.sar_ctx_cancel
                0x00028c98       0xa8 examples/experimental_lpn/CMakeFiles/lpn_nrf52840_xxAA_s140_6.1.0.dir/__/__/mesh/core/src/transport.c.obj
 .text.sar_tx_session_continue
                0x00028d40       0x2c examples/experimental_lpn/CMakeFiles/lpn_nrf52840_xxAA_s140_6.1.0.dir/__/__/mesh/core/src/transport.c.obj
 .text.sar_tx_pending_retries_send
                0x00028d6c       0x2c examples/experimental_lpn/CMakeFiles/lpn_nrf52840_xxAA_s140_6.1.0.dir/__/__/mesh/core/src/transport.c.obj
 .text.retry_timeout
                0x00028d98       0x30 examples/experimental_lpn/CMakeFiles/lpn_nrf52840_xxAA_s140_6.1.0.dir/__/__/mesh/core/src/transport.c.obj
 .text.sar_rx_ctx_cancel_all
                0x00028dc8       0x28 examples/experimental_lpn/CMakeFiles/lpn_nrf52840_xxAA_s140_6.1.0.dir/__/__/mesh/core/src/transport.c.obj
 .text.mesh_evt_handler
                0x00028df0       0x2e examples/experimental_lpn/CMakeFiles/lpn_nrf52840_xxAA_s140_6.1.0.dir/__/__/mesh/core/src/transport.c.obj
 .text.abort_timeout
                0x00028e1e        0x8 examples/experimental_lpn/CMakeFiles/lpn_nrf52840_xxAA_s140_6.1.0.dir/__/__/mesh/core/src/transport.c.obj
 .text.trs_sar_packet_out
                0x00028e26       0xee examples/experimental_lpn/CMakeFiles/lpn_nrf52840_xxAA_s140_6.1.0.dir/__/__/mesh/core/src/transport.c.obj
 .text.upper_transport_packet_in
                0x00028f14      0x158 examples/experimental_lpn/CMakeFiles/lpn_nrf52840_xxAA_s140_6.1.0.dir/__/__/mesh/core/src/transport.c.obj
 .text.segmented_packet_tx
                0x0002906c      0x13c examples/experimental_lpn/CMakeFiles/lpn_nrf52840_xxAA_s140_6.1.0.dir/__/__/mesh/core/src/transport.c.obj
 .text.upper_transport_tx
                0x000291a8       0xb6 examples/experimental_lpn/CMakeFiles/lpn_nrf52840_xxAA_s140_6.1.0.dir/__/__/mesh/core/src/transport.c.obj
 *fill*         0x0002925e        0x2 
 .text.transport_init
                0x00029260       0x90 examples/experimental_lpn/CMakeFiles/lpn_nrf52840_xxAA_s140_6.1.0.dir/__/__/mesh/core/src/transport.c.obj
                0x00029260                transport_init
 .text.transport_tx
                0x000292f0       0xb8 examples/experimental_lpn/CMakeFiles/lpn_nrf52840_xxAA_s140_6.1.0.dir/__/__/mesh/core/src/transport.c.obj
                0x000292f0                transport_tx
 .text.transport_control_tx
                0x000293a8       0x94 examples/experimental_lpn/CMakeFiles/lpn_nrf52840_xxAA_s140_6.1.0.dir/__/__/mesh/core/src/transport.c.obj
                0x000293a8                transport_control_tx
 .text.sar_ack_send
                0x0002943c       0xa8 examples/experimental_lpn/CMakeFiles/lpn_nrf52840_xxAA_s140_6.1.0.dir/__/__/mesh/core/src/transport.c.obj
 .text.transport_sar_process
                0x000294e4       0x80 examples/experimental_lpn/CMakeFiles/lpn_nrf52840_xxAA_s140_6.1.0.dir/__/__/mesh/core/src/transport.c.obj
 .text.transport_packet_in
                0x00029564      0x4b8 examples/experimental_lpn/CMakeFiles/lpn_nrf52840_xxAA_s140_6.1.0.dir/__/__/mesh/core/src/transport.c.obj
                0x00029564                transport_packet_in
 .text.ack_timeout
                0x00029a1c       0x28 examples/experimental_lpn/CMakeFiles/lpn_nrf52840_xxAA_s140_6.1.0.dir/__/__/mesh/core/src/transport.c.obj
 .text.transport_control_packet_consumer_add
                0x00029a44       0x6c examples/experimental_lpn/CMakeFiles/lpn_nrf52840_xxAA_s140_6.1.0.dir/__/__/mesh/core/src/transport.c.obj
                0x00029a44                transport_control_packet_consumer_add
 .text.event_handle
                0x00029ab0       0x54 examples/experimental_lpn/CMakeFiles/lpn_nrf52840_xxAA_s140_6.1.0.dir/__/__/mesh/core/src/event.c.obj
                0x00029ab0                event_handle
 .text.event_handler_add
                0x00029b04       0x20 examples/experimental_lpn/CMakeFiles/lpn_nrf52840_xxAA_s140_6.1.0.dir/__/__/mesh/core/src/event.c.obj
                0x00029b04                event_handler_add
 .text.event_handler_remove
                0x00029b24       0x34 examples/experimental_lpn/CMakeFiles/lpn_nrf52840_xxAA_s140_6.1.0.dir/__/__/mesh/core/src/event.c.obj
                0x00029b24                event_handler_remove
 .text.m_index_increment
                0x00029b58       0x1e examples/experimental_lpn/CMakeFiles/lpn_nrf52840_xxAA_s140_6.1.0.dir/__/__/mesh/core/src/packet_buffer.c.obj
 .text.m_get_next_packet
                0x00029b76       0x1c examples/experimental_lpn/CMakeFiles/lpn_nrf52840_xxAA_s140_6.1.0.dir/__/__/mesh/core/src/packet_buffer.c.obj
 .text.packet_buffer_init
                0x00029b92       0xac examples/experimental_lpn/CMakeFiles/lpn_nrf52840_xxAA_s140_6.1.0.dir/__/__/mesh/core/src/packet_buffer.c.obj
                0x00029b92                packet_buffer_init
 .text.packet_buffer_flush
                0x00029c3e       0x50 examples/experimental_lpn/CMakeFiles/lpn_nrf52840_xxAA_s140_6.1.0.dir/__/__/mesh/core/src/packet_buffer.c.obj
                0x00029c3e                packet_buffer_flush
 .text.packet_buffer_reserve
                0x00029c8e       0xa4 examples/experimental_lpn/CMakeFiles/lpn_nrf52840_xxAA_s140_6.1.0.dir/__/__/mesh/core/src/packet_buffer.c.obj
                0x00029c8e                packet_buffer_reserve
 .text.packet_buffer_commit
                0x00029d32       0x62 examples/experimental_lpn/CMakeFiles/lpn_nrf52840_xxAA_s140_6.1.0.dir/__/__/mesh/core/src/packet_buffer.c.obj
                0x00029d32                packet_buffer_commit
 .text.packet_buffer_pop
                0x00029d94       0x5a examples/experimental_lpn/CMakeFiles/lpn_nrf52840_xxAA_s140_6.1.0.dir/__/__/mesh/core/src/packet_buffer.c.obj
                0x00029d94                packet_buffer_pop
 .text.packet_buffer_can_pop
                0x00029dee       0x34 examples/experimental_lpn/CMakeFiles/lpn_nrf52840_xxAA_s140_6.1.0.dir/__/__/mesh/core/src/packet_buffer.c.obj
                0x00029dee                packet_buffer_can_pop
 .text.packet_buffer_packets_ready_to_pop
                0x00029e22       0x36 examples/experimental_lpn/CMakeFiles/lpn_nrf52840_xxAA_s140_6.1.0.dir/__/__/mesh/core/src/packet_buffer.c.obj
                0x00029e22                packet_buffer_packets_ready_to_pop
 .text.packet_buffer_free
                0x00029e58       0x74 examples/experimental_lpn/CMakeFiles/lpn_nrf52840_xxAA_s140_6.1.0.dir/__/__/mesh/core/src/packet_buffer.c.obj
                0x00029e58                packet_buffer_free
 .text.packet_buffer_is_empty
                0x00029ecc       0x28 examples/experimental_lpn/CMakeFiles/lpn_nrf52840_xxAA_s140_6.1.0.dir/__/__/mesh/core/src/packet_buffer.c.obj
                0x00029ecc                packet_buffer_is_empty
 .text.get_last_page
                0x00029ef4       0x14 examples/experimental_lpn/CMakeFiles/lpn_nrf52840_xxAA_s140_6.1.0.dir/__/__/mesh/core/src/flash_manager_defrag.c.obj
 .text.defrag_on_end
                0x00029f08       0x1c examples/experimental_lpn/CMakeFiles/lpn_nrf52840_xxAA_s140_6.1.0.dir/__/__/mesh/core/src/flash_manager_defrag.c.obj
 .text.execute_procedure_step
                0x00029f24       0x7c examples/experimental_lpn/CMakeFiles/lpn_nrf52840_xxAA_s140_6.1.0.dir/__/__/mesh/core/src/flash_manager_defrag.c.obj
 .text.get_next_entry
                0x00029fa0       0x34 examples/experimental_lpn/CMakeFiles/lpn_nrf52840_xxAA_s140_6.1.0.dir/__/__/mesh/core/src/flash_manager_defrag.c.obj
 .text.get_next_data_entry
                0x00029fd4       0x26 examples/experimental_lpn/CMakeFiles/lpn_nrf52840_xxAA_s140_6.1.0.dir/__/__/mesh/core/src/flash_manager_defrag.c.obj
 *fill*         0x00029ffa        0x2 
 .text.on_flash_op_end
                0x00029ffc       0x30 examples/experimental_lpn/CMakeFiles/lpn_nrf52840_xxAA_s140_6.1.0.dir/__/__/mesh/core/src/flash_manager_defrag.c.obj
 .text.check_for_invalid_entries
                0x0002a02c       0x38 examples/experimental_lpn/CMakeFiles/lpn_nrf52840_xxAA_s140_6.1.0.dir/__/__/mesh/core/src/flash_manager_defrag.c.obj
 .text.erase_recovery_area
                0x0002a064       0x34 examples/experimental_lpn/CMakeFiles/lpn_nrf52840_xxAA_s140_6.1.0.dir/__/__/mesh/core/src/flash_manager_defrag.c.obj
 .text.flash.constprop.6
                0x0002a098       0x24 examples/experimental_lpn/CMakeFiles/lpn_nrf52840_xxAA_s140_6.1.0.dir/__/__/mesh/core/src/flash_manager_defrag.c.obj
 .text.invalidate_duplicate_entries
                0x0002a0bc       0xac examples/experimental_lpn/CMakeFiles/lpn_nrf52840_xxAA_s140_6.1.0.dir/__/__/mesh/core/src/flash_manager_defrag.c.obj
 .text.seal_storage_page
                0x0002a168       0x50 examples/experimental_lpn/CMakeFiles/lpn_nrf52840_xxAA_s140_6.1.0.dir/__/__/mesh/core/src/flash_manager_defrag.c.obj
 .text.copy_metadata
                0x0002a1b8       0x3c examples/experimental_lpn/CMakeFiles/lpn_nrf52840_xxAA_s140_6.1.0.dir/__/__/mesh/core/src/flash_manager_defrag.c.obj
 .text.write_defrag_start_pointer
                0x0002a1f4       0x20 examples/experimental_lpn/CMakeFiles/lpn_nrf52840_xxAA_s140_6.1.0.dir/__/__/mesh/core/src/flash_manager_defrag.c.obj
 .text.write_back
                0x0002a214       0x28 examples/experimental_lpn/CMakeFiles/lpn_nrf52840_xxAA_s140_6.1.0.dir/__/__/mesh/core/src/flash_manager_defrag.c.obj
 .text.post_process
                0x0002a23c       0x40 examples/experimental_lpn/CMakeFiles/lpn_nrf52840_xxAA_s140_6.1.0.dir/__/__/mesh/core/src/flash_manager_defrag.c.obj
 .text.backup_entries
                0x0002a27c       0xdc examples/experimental_lpn/CMakeFiles/lpn_nrf52840_xxAA_s140_6.1.0.dir/__/__/mesh/core/src/flash_manager_defrag.c.obj
 .text.erase_source
                0x0002a358       0x34 examples/experimental_lpn/CMakeFiles/lpn_nrf52840_xxAA_s140_6.1.0.dir/__/__/mesh/core/src/flash_manager_defrag.c.obj
 .text.flash_manager_defrag_init
                0x0002a38c       0x8c examples/experimental_lpn/CMakeFiles/lpn_nrf52840_xxAA_s140_6.1.0.dir/__/__/mesh/core/src/flash_manager_defrag.c.obj
                0x0002a38c                flash_manager_defrag_init
 .text.flash_manager_defragging
                0x0002a418       0x38 examples/experimental_lpn/CMakeFiles/lpn_nrf52840_xxAA_s140_6.1.0.dir/__/__/mesh/core/src/flash_manager_defrag.c.obj
                0x0002a418                flash_manager_defragging
 .text.flash_manager_defrag_is_running
                0x0002a450       0x10 examples/experimental_lpn/CMakeFiles/lpn_nrf52840_xxAA_s140_6.1.0.dir/__/__/mesh/core/src/flash_manager_defrag.c.obj
                0x0002a450                flash_manager_defrag_is_running
 .text.flash_manager_defrag
                0x0002a460       0x44 examples/experimental_lpn/CMakeFiles/lpn_nrf52840_xxAA_s140_6.1.0.dir/__/__/mesh/core/src/flash_manager_defrag.c.obj
                0x0002a460                flash_manager_defrag
 .text.flash_manager_defrag_recovery_page_get
                0x0002a4a4        0xc examples/experimental_lpn/CMakeFiles/lpn_nrf52840_xxAA_s140_6.1.0.dir/__/__/mesh/core/src/flash_manager_defrag.c.obj
                0x0002a4a4                flash_manager_defrag_recovery_page_get
 .text.fifo_init
                0x0002a4b0       0x34 examples/experimental_lpn/CMakeFiles/lpn_nrf52840_xxAA_s140_6.1.0.dir/__/__/mesh/core/src/fifo.c.obj
                0x0002a4b0                fifo_init
 .text.fifo_pop
                0x0002a4e4       0x52 examples/experimental_lpn/CMakeFiles/lpn_nrf52840_xxAA_s140_6.1.0.dir/__/__/mesh/core/src/fifo.c.obj
                0x0002a4e4                fifo_pop
 *fill*         0x0002a536        0x2 
 .text.wait_for_ready
                0x0002a538       0x10 examples/experimental_lpn/CMakeFiles/lpn_nrf52840_xxAA_s140_6.1.0.dir/__/__/mesh/core/src/nrf_flash.c.obj
 .text.nrf_flash_erase
                0x0002a548       0x50 examples/experimental_lpn/CMakeFiles/lpn_nrf52840_xxAA_s140_6.1.0.dir/__/__/mesh/core/src/nrf_flash.c.obj
                0x0002a548                nrf_flash_erase
 .text.nrf_flash_write
                0x0002a598       0x50 examples/experimental_lpn/CMakeFiles/lpn_nrf52840_xxAA_s140_6.1.0.dir/__/__/mesh/core/src/nrf_flash.c.obj
                0x0002a598                nrf_flash_write
 .text.entry_recover_cb
                0x0002a5e8       0x18 examples/experimental_lpn/CMakeFiles/lpn_nrf52840_xxAA_s140_6.1.0.dir/__/__/mesh/core/src/net_state.c.obj
 .text.flash_store_iv_index
                0x0002a600       0x38 examples/experimental_lpn/CMakeFiles/lpn_nrf52840_xxAA_s140_6.1.0.dir/__/__/mesh/core/src/net_state.c.obj
 .text.flash_mem_available
                0x0002a638       0x14 examples/experimental_lpn/CMakeFiles/lpn_nrf52840_xxAA_s140_6.1.0.dir/__/__/mesh/core/src/net_state.c.obj
 .text.seqnum_block_allocate
                0x0002a64c       0x4c examples/experimental_lpn/CMakeFiles/lpn_nrf52840_xxAA_s140_6.1.0.dir/__/__/mesh/core/src/net_state.c.obj
 .text.net_state_reset
                0x0002a698       0x48 examples/experimental_lpn/CMakeFiles/lpn_nrf52840_xxAA_s140_6.1.0.dir/__/__/mesh/core/src/net_state.c.obj
                0x0002a698                net_state_reset
 .text.flash_write_complete
                0x0002a6e0       0x64 examples/experimental_lpn/CMakeFiles/lpn_nrf52840_xxAA_s140_6.1.0.dir/__/__/mesh/core/src/net_state.c.obj
 .text.net_state_recover_from_flash
                0x0002a744       0x60 examples/experimental_lpn/CMakeFiles/lpn_nrf52840_xxAA_s140_6.1.0.dir/__/__/mesh/core/src/net_state.c.obj
                0x0002a744                net_state_recover_from_flash
 .text.net_state_flash_area_get
                0x0002a7a4        0xc examples/experimental_lpn/CMakeFiles/lpn_nrf52840_xxAA_s140_6.1.0.dir/__/__/mesh/core/src/net_state.c.obj
                0x0002a7a4                net_state_flash_area_get
 .text.init_flash_storage
                0x0002a7b0       0x40 examples/experimental_lpn/CMakeFiles/lpn_nrf52840_xxAA_s140_6.1.0.dir/__/__/mesh/core/src/net_state.c.obj
 .text.net_state_init
                0x0002a7f0       0x44 examples/experimental_lpn/CMakeFiles/lpn_nrf52840_xxAA_s140_6.1.0.dir/__/__/mesh/core/src/net_state.c.obj
                0x0002a7f0                net_state_init
 .text.net_state_enable
                0x0002a834       0x30 examples/experimental_lpn/CMakeFiles/lpn_nrf52840_xxAA_s140_6.1.0.dir/__/__/mesh/core/src/net_state.c.obj
                0x0002a834                net_state_enable
 .text.net_state_iv_update_start
                0x0002a864       0x68 examples/experimental_lpn/CMakeFiles/lpn_nrf52840_xxAA_s140_6.1.0.dir/__/__/mesh/core/src/net_state.c.obj
                0x0002a864                net_state_iv_update_start
 .text.iv_update_trigger_if_pending
                0x0002a8cc       0x80 examples/experimental_lpn/CMakeFiles/lpn_nrf52840_xxAA_s140_6.1.0.dir/__/__/mesh/core/src/net_state.c.obj
 .text.iv_update_timer_handler
                0x0002a94c       0x68 examples/experimental_lpn/CMakeFiles/lpn_nrf52840_xxAA_s140_6.1.0.dir/__/__/mesh/core/src/net_state.c.obj
 .text.incoming_data_received.isra.2
                0x0002a9b4       0x8c examples/experimental_lpn/CMakeFiles/lpn_nrf52840_xxAA_s140_6.1.0.dir/__/__/mesh/core/src/net_state.c.obj
 .text.mesh_evt_handler
                0x0002aa40       0x2e examples/experimental_lpn/CMakeFiles/lpn_nrf52840_xxAA_s140_6.1.0.dir/__/__/mesh/core/src/net_state.c.obj
 *fill*         0x0002aa6e        0x2 
 .text.net_state_seqnum_alloc
                0x0002aa70       0x68 examples/experimental_lpn/CMakeFiles/lpn_nrf52840_xxAA_s140_6.1.0.dir/__/__/mesh/core/src/net_state.c.obj
                0x0002aa70                net_state_seqnum_alloc
 .text.net_state_iv_index_lock
                0x0002aad8       0x3c examples/experimental_lpn/CMakeFiles/lpn_nrf52840_xxAA_s140_6.1.0.dir/__/__/mesh/core/src/net_state.c.obj
                0x0002aad8                net_state_iv_index_lock
 .text.net_state_key_refresh_phase_changed
                0x0002ab14       0x20 examples/experimental_lpn/CMakeFiles/lpn_nrf52840_xxAA_s140_6.1.0.dir/__/__/mesh/core/src/net_state.c.obj
                0x0002ab14                net_state_key_refresh_phase_changed
 .text.net_state_beacon_iv_index_get
                0x0002ab34        0xc examples/experimental_lpn/CMakeFiles/lpn_nrf52840_xxAA_s140_6.1.0.dir/__/__/mesh/core/src/net_state.c.obj
                0x0002ab34                net_state_beacon_iv_index_get
 .text.net_state_tx_iv_index_get
                0x0002ab40       0x14 examples/experimental_lpn/CMakeFiles/lpn_nrf52840_xxAA_s140_6.1.0.dir/__/__/mesh/core/src/net_state.c.obj
                0x0002ab40                net_state_tx_iv_index_get
 .text.net_state_rx_iv_index_get
                0x0002ab54       0x18 examples/experimental_lpn/CMakeFiles/lpn_nrf52840_xxAA_s140_6.1.0.dir/__/__/mesh/core/src/net_state.c.obj
                0x0002ab54                net_state_rx_iv_index_get
 .text.net_state_iv_update_get
                0x0002ab6c        0xc examples/experimental_lpn/CMakeFiles/lpn_nrf52840_xxAA_s140_6.1.0.dir/__/__/mesh/core/src/net_state.c.obj
                0x0002ab6c                net_state_iv_update_get
 .text.net_state_iv_index_set
                0x0002ab78       0x30 examples/experimental_lpn/CMakeFiles/lpn_nrf52840_xxAA_s140_6.1.0.dir/__/__/mesh/core/src/net_state.c.obj
                0x0002ab78                net_state_iv_index_set
 .text.send_end_events
                0x0002aba8       0x84 examples/experimental_lpn/CMakeFiles/lpn_nrf52840_xxAA_s140_6.1.0.dir/__/__/mesh/core/src/mesh_flash.c.obj
 .text.flash_op_action_prepare
                0x0002ac2c       0x78 examples/experimental_lpn/CMakeFiles/lpn_nrf52840_xxAA_s140_6.1.0.dir/__/__/mesh/core/src/mesh_flash.c.obj
 .text.flash_op_schedule
                0x0002aca4       0x20 examples/experimental_lpn/CMakeFiles/lpn_nrf52840_xxAA_s140_6.1.0.dir/__/__/mesh/core/src/mesh_flash.c.obj
 .text.flash_op_start
                0x0002acc4      0x13c examples/experimental_lpn/CMakeFiles/lpn_nrf52840_xxAA_s140_6.1.0.dir/__/__/mesh/core/src/mesh_flash.c.obj
 .text.mesh_flash_init
                0x0002ae00       0x88 examples/experimental_lpn/CMakeFiles/lpn_nrf52840_xxAA_s140_6.1.0.dir/__/__/mesh/core/src/mesh_flash.c.obj
                0x0002ae00                mesh_flash_init
 .text.mesh_flash_user_callback_set
                0x0002ae88       0x20 examples/experimental_lpn/CMakeFiles/lpn_nrf52840_xxAA_s140_6.1.0.dir/__/__/mesh/core/src/mesh_flash.c.obj
                0x0002ae88                mesh_flash_user_callback_set
 .text.mesh_flash_op_push
                0x0002aea8      0x10c examples/experimental_lpn/CMakeFiles/lpn_nrf52840_xxAA_s140_6.1.0.dir/__/__/mesh/core/src/mesh_flash.c.obj
                0x0002aea8                mesh_flash_op_push
 .text.mesh_flash_set_suspended
                0x0002afb4       0x74 examples/experimental_lpn/CMakeFiles/lpn_nrf52840_xxAA_s140_6.1.0.dir/__/__/mesh/core/src/mesh_flash.c.obj
                0x0002afb4                mesh_flash_set_suspended
 .text.nrf_mesh_address_type_get
                0x0002b028       0x10 examples/experimental_lpn/CMakeFiles/lpn_nrf52840_xxAA_s140_6.1.0.dir/__/__/mesh/core/src/nrf_mesh_utils.c.obj
                0x0002b028                nrf_mesh_address_type_get
 .text.sd_softdevice_is_enabled
                0x0002b038        0x4 examples/experimental_lpn/CMakeFiles/lpn_nrf52840_xxAA_s140_6.1.0.dir/__/__/mesh/core/src/nrf_mesh.c.obj
 .text.nrf_mesh_listen
                0x0002b03c      0x138 examples/experimental_lpn/CMakeFiles/lpn_nrf52840_xxAA_s140_6.1.0.dir/__/__/mesh/core/src/nrf_mesh.c.obj
 .text.scanner_packet_process_cb
                0x0002b174       0x8c examples/experimental_lpn/CMakeFiles/lpn_nrf52840_xxAA_s140_6.1.0.dir/__/__/mesh/core/src/nrf_mesh.c.obj
 .text.bearer_stopped_cb
                0x0002b200       0x30 examples/experimental_lpn/CMakeFiles/lpn_nrf52840_xxAA_s140_6.1.0.dir/__/__/mesh/core/src/nrf_mesh.c.obj
 .text.nrf_mesh_init
                0x0002b230       0xd0 examples/experimental_lpn/CMakeFiles/lpn_nrf52840_xxAA_s140_6.1.0.dir/__/__/mesh/core/src/nrf_mesh.c.obj
                0x0002b230                nrf_mesh_init
 .text.nrf_mesh_enable
                0x0002b300       0xa4 examples/experimental_lpn/CMakeFiles/lpn_nrf52840_xxAA_s140_6.1.0.dir/__/__/mesh/core/src/nrf_mesh.c.obj
                0x0002b300                nrf_mesh_enable
 .text.nrf_mesh_disable
                0x0002b3a4       0x2c examples/experimental_lpn/CMakeFiles/lpn_nrf52840_xxAA_s140_6.1.0.dir/__/__/mesh/core/src/nrf_mesh.c.obj
                0x0002b3a4                nrf_mesh_disable
 .text.nrf_mesh_packet_send
                0x0002b3d0        0x4 examples/experimental_lpn/CMakeFiles/lpn_nrf52840_xxAA_s140_6.1.0.dir/__/__/mesh/core/src/nrf_mesh.c.obj
                0x0002b3d0                nrf_mesh_packet_send
 .text.nrf_mesh_evt_handler_add
                0x0002b3d4        0x4 examples/experimental_lpn/CMakeFiles/lpn_nrf52840_xxAA_s140_6.1.0.dir/__/__/mesh/core/src/nrf_mesh.c.obj
                0x0002b3d4                nrf_mesh_evt_handler_add
 .text.nrf_mesh_evt_handler_remove
                0x0002b3d8        0x4 examples/experimental_lpn/CMakeFiles/lpn_nrf52840_xxAA_s140_6.1.0.dir/__/__/mesh/core/src/nrf_mesh.c.obj
                0x0002b3d8                nrf_mesh_evt_handler_remove
 .text.nrf_mesh_on_sd_evt
                0x0002b3dc        0xa examples/experimental_lpn/CMakeFiles/lpn_nrf52840_xxAA_s140_6.1.0.dir/__/__/mesh/core/src/nrf_mesh.c.obj
                0x0002b3dc                nrf_mesh_on_sd_evt
 .text.nrf_mesh_subnet_added
                0x0002b3e6        0x4 examples/experimental_lpn/CMakeFiles/lpn_nrf52840_xxAA_s140_6.1.0.dir/__/__/mesh/core/src/nrf_mesh.c.obj
                0x0002b3e6                nrf_mesh_subnet_added
 *fill*         0x0002b3ea        0x2 
 .text.nrf_mesh_unique_token_get
                0x0002b3ec       0x18 examples/experimental_lpn/CMakeFiles/lpn_nrf52840_xxAA_s140_6.1.0.dir/__/__/mesh/core/src/nrf_mesh.c.obj
                0x0002b3ec                nrf_mesh_unique_token_get
 .text.queue_init
                0x0002b404       0x14 examples/experimental_lpn/CMakeFiles/lpn_nrf52840_xxAA_s140_6.1.0.dir/__/__/mesh/core/src/queue.c.obj
                0x0002b404                queue_init
 .text.queue_push
                0x0002b418       0x34 examples/experimental_lpn/CMakeFiles/lpn_nrf52840_xxAA_s140_6.1.0.dir/__/__/mesh/core/src/queue.c.obj
                0x0002b418                queue_push
 .text.queue_pop
                0x0002b44c       0x26 examples/experimental_lpn/CMakeFiles/lpn_nrf52840_xxAA_s140_6.1.0.dir/__/__/mesh/core/src/queue.c.obj
                0x0002b44c                queue_pop
 .text.queue_peek
                0x0002b472       0x10 examples/experimental_lpn/CMakeFiles/lpn_nrf52840_xxAA_s140_6.1.0.dir/__/__/mesh/core/src/queue.c.obj
                0x0002b472                queue_peek
 .text.sd_power_reset_reason_clr
                0x0002b482        0x4 examples/experimental_lpn/CMakeFiles/lpn_nrf52840_xxAA_s140_6.1.0.dir/__/__/mesh/core/src/hal.c.obj
 *fill*         0x0002b486        0x2 
 .text.hal_device_reset
                0x0002b488       0x2c examples/experimental_lpn/CMakeFiles/lpn_nrf52840_xxAA_s140_6.1.0.dir/__/__/mesh/core/src/hal.c.obj
                0x0002b488                hal_device_reset
 .text.hal_lfclk_ppm_get
                0x0002b4b4       0x14 examples/experimental_lpn/CMakeFiles/lpn_nrf52840_xxAA_s140_6.1.0.dir/__/__/mesh/core/src/hal.c.obj
                0x0002b4b4                hal_lfclk_ppm_get
 .text.hal_irq_active_get
                0x0002b4c8       0x10 examples/experimental_lpn/CMakeFiles/lpn_nrf52840_xxAA_s140_6.1.0.dir/__/__/mesh/core/src/hal.c.obj
                0x0002b4c8                hal_irq_active_get
 .text.hal_irq_is_enabled
                0x0002b4d8       0x28 examples/experimental_lpn/CMakeFiles/lpn_nrf52840_xxAA_s140_6.1.0.dir/__/__/mesh/core/src/hal.c.obj
                0x0002b4d8                hal_irq_is_enabled
 .text.sd_ecb_block_encrypt
                0x0002b500        0x4 examples/experimental_lpn/CMakeFiles/lpn_nrf52840_xxAA_s140_6.1.0.dir/__/__/mesh/core/src/aes_cmac.c.obj
 .text.utils_xor.constprop.1
                0x0002b504       0x20 examples/experimental_lpn/CMakeFiles/lpn_nrf52840_xxAA_s140_6.1.0.dir/__/__/mesh/core/src/aes_cmac.c.obj
 .text.aes_cmac
                0x0002b524      0x112 examples/experimental_lpn/CMakeFiles/lpn_nrf52840_xxAA_s140_6.1.0.dir/__/__/mesh/core/src/aes_cmac.c.obj
                0x0002b524                aes_cmac
 *fill*         0x0002b636        0x2 
 .text.add_evt  0x0002b638       0x50 examples/experimental_lpn/CMakeFiles/lpn_nrf52840_xxAA_s140_6.1.0.dir/__/__/mesh/core/src/timer_scheduler.c.obj
 .text.remove_evt
                0x0002b688       0x50 examples/experimental_lpn/CMakeFiles/lpn_nrf52840_xxAA_s140_6.1.0.dir/__/__/mesh/core/src/timer_scheduler.c.obj
 .text.timer_cb
                0x0002b6d8        0xc examples/experimental_lpn/CMakeFiles/lpn_nrf52840_xxAA_s140_6.1.0.dir/__/__/mesh/core/src/timer_scheduler.c.obj
 .text.setup_timeout.isra.0
                0x0002b6e4       0x1c examples/experimental_lpn/CMakeFiles/lpn_nrf52840_xxAA_s140_6.1.0.dir/__/__/mesh/core/src/timer_scheduler.c.obj
 .text.flag_event_cb
                0x0002b700       0x98 examples/experimental_lpn/CMakeFiles/lpn_nrf52840_xxAA_s140_6.1.0.dir/__/__/mesh/core/src/timer_scheduler.c.obj
 .text.timer_sch_init
                0x0002b798       0x2c examples/experimental_lpn/CMakeFiles/lpn_nrf52840_xxAA_s140_6.1.0.dir/__/__/mesh/core/src/timer_scheduler.c.obj
                0x0002b798                timer_sch_init
 .text.timer_sch_schedule
                0x0002b7c4       0x44 examples/experimental_lpn/CMakeFiles/lpn_nrf52840_xxAA_s140_6.1.0.dir/__/__/mesh/core/src/timer_scheduler.c.obj
                0x0002b7c4                timer_sch_schedule
 .text.timer_sch_abort
                0x0002b808       0x2e examples/experimental_lpn/CMakeFiles/lpn_nrf52840_xxAA_s140_6.1.0.dir/__/__/mesh/core/src/timer_scheduler.c.obj
                0x0002b808                timer_sch_abort
 .text.timer_sch_reschedule
                0x0002b836       0x38 examples/experimental_lpn/CMakeFiles/lpn_nrf52840_xxAA_s140_6.1.0.dir/__/__/mesh/core/src/timer_scheduler.c.obj
                0x0002b836                timer_sch_reschedule
 .text.timer_sch_is_scheduled
                0x0002b86e       0x16 examples/experimental_lpn/CMakeFiles/lpn_nrf52840_xxAA_s140_6.1.0.dir/__/__/mesh/core/src/timer_scheduler.c.obj
                0x0002b86e                timer_sch_is_scheduled
 .text.timer_init
                0x0002b884       0x1a examples/experimental_lpn/CMakeFiles/lpn_nrf52840_xxAA_s140_6.1.0.dir/__/__/mesh/core/src/timer.c.obj
                0x0002b884                timer_init
 *fill*         0x0002b89e        0x2 
 .text.timer_now
                0x0002b8a0       0x48 examples/experimental_lpn/CMakeFiles/lpn_nrf52840_xxAA_s140_6.1.0.dir/__/__/mesh/core/src/timer.c.obj
                0x0002b8a0                timer_now
 .text.nrf_mesh_timer_tail_handle
                0x0002b8e8       0x34 examples/experimental_lpn/CMakeFiles/lpn_nrf52840_xxAA_s140_6.1.0.dir/__/__/mesh/core/src/timer.c.obj
                0x0002b8e8                nrf_mesh_timer_tail_handle
 .text.nrf_mesh_timer_ovfw_handle
                0x0002b91c       0x9c examples/experimental_lpn/CMakeFiles/lpn_nrf52840_xxAA_s140_6.1.0.dir/__/__/mesh/core/src/timer.c.obj
                0x0002b91c                nrf_mesh_timer_ovfw_handle
 .text.timer_start
                0x0002b9b8       0xac examples/experimental_lpn/CMakeFiles/lpn_nrf52840_xxAA_s140_6.1.0.dir/__/__/mesh/core/src/timer.c.obj
                0x0002b9b8                timer_start
 .text.timer_stop
                0x0002ba64       0x30 examples/experimental_lpn/CMakeFiles/lpn_nrf52840_xxAA_s140_6.1.0.dir/__/__/mesh/core/src/timer.c.obj
                0x0002ba64                timer_stop
 .text.sd_rand_application_bytes_available_get
                0x0002ba94        0x4 examples/experimental_lpn/CMakeFiles/lpn_nrf52840_xxAA_s140_6.1.0.dir/__/__/mesh/core/src/rand.c.obj
 .text.sd_rand_application_vector_get
                0x0002ba98        0x4 examples/experimental_lpn/CMakeFiles/lpn_nrf52840_xxAA_s140_6.1.0.dir/__/__/mesh/core/src/rand.c.obj
 .text.rand_prng_get
                0x0002ba9c       0x22 examples/experimental_lpn/CMakeFiles/lpn_nrf52840_xxAA_s140_6.1.0.dir/__/__/mesh/core/src/rand.c.obj
                0x0002ba9c                rand_prng_get
 .text.rand_hw_rng_get
                0x0002babe       0x44 examples/experimental_lpn/CMakeFiles/lpn_nrf52840_xxAA_s140_6.1.0.dir/__/__/mesh/core/src/rand.c.obj
                0x0002babe                rand_hw_rng_get
 *fill*         0x0002bb02        0x2 
 .text.rand_prng_seed
                0x0002bb04       0x34 examples/experimental_lpn/CMakeFiles/lpn_nrf52840_xxAA_s140_6.1.0.dir/__/__/mesh/core/src/rand.c.obj
                0x0002bb04                rand_prng_seed
 .text.mesh_opt_init
                0x0002bb38        0x2 examples/experimental_lpn/CMakeFiles/lpn_nrf52840_xxAA_s140_6.1.0.dir/__/__/mesh/core/src/mesh_opt.c.obj
                0x0002bb38                mesh_opt_init
 .text.sd_radio_session_open
                0x0002bb3a        0x4 examples/experimental_lpn/CMakeFiles/lpn_nrf52840_xxAA_s140_6.1.0.dir/__/__/mesh/core/src/timeslot.c.obj
 .text.sd_radio_session_close
                0x0002bb3e        0x4 examples/experimental_lpn/CMakeFiles/lpn_nrf52840_xxAA_s140_6.1.0.dir/__/__/mesh/core/src/timeslot.c.obj
 .text.sd_radio_request
                0x0002bb42        0x4 examples/experimental_lpn/CMakeFiles/lpn_nrf52840_xxAA_s140_6.1.0.dir/__/__/mesh/core/src/timeslot.c.obj
 *fill*         0x0002bb46        0x2 
 .text.end_timer_handler
                0x0002bb48       0x24 examples/experimental_lpn/CMakeFiles/lpn_nrf52840_xxAA_s140_6.1.0.dir/__/__/mesh/core/src/timeslot.c.obj
 .text.get_end_time.isra.3
                0x0002bb6c       0x20 examples/experimental_lpn/CMakeFiles/lpn_nrf52840_xxAA_s140_6.1.0.dir/__/__/mesh/core/src/timeslot.c.obj
 .text.on_ts_begin.constprop.9
                0x0002bb8c       0x48 examples/experimental_lpn/CMakeFiles/lpn_nrf52840_xxAA_s140_6.1.0.dir/__/__/mesh/core/src/timeslot.c.obj
 .text.handle_extend_end.constprop.5
                0x0002bbd4       0x80 examples/experimental_lpn/CMakeFiles/lpn_nrf52840_xxAA_s140_6.1.0.dir/__/__/mesh/core/src/timeslot.c.obj
 .text.radio_signal_callback
                0x0002bc54      0x12c examples/experimental_lpn/CMakeFiles/lpn_nrf52840_xxAA_s140_6.1.0.dir/__/__/mesh/core/src/timeslot.c.obj
 .text.timeslot_sd_event_handler
                0x0002bd80       0x60 examples/experimental_lpn/CMakeFiles/lpn_nrf52840_xxAA_s140_6.1.0.dir/__/__/mesh/core/src/timeslot.c.obj
                0x0002bd80                timeslot_sd_event_handler
 .text.timeslot_init
                0x0002bde0       0x50 examples/experimental_lpn/CMakeFiles/lpn_nrf52840_xxAA_s140_6.1.0.dir/__/__/mesh/core/src/timeslot.c.obj
                0x0002bde0                timeslot_init
 .text.timeslot_start
                0x0002be30       0x48 examples/experimental_lpn/CMakeFiles/lpn_nrf52840_xxAA_s140_6.1.0.dir/__/__/mesh/core/src/timeslot.c.obj
                0x0002be30                timeslot_start
 .text.timeslot_end_is_pending
                0x0002be78       0x28 examples/experimental_lpn/CMakeFiles/lpn_nrf52840_xxAA_s140_6.1.0.dir/__/__/mesh/core/src/timeslot.c.obj
                0x0002be78                timeslot_end_is_pending
 .text.timeslot_length_get
                0x0002bea0        0xc examples/experimental_lpn/CMakeFiles/lpn_nrf52840_xxAA_s140_6.1.0.dir/__/__/mesh/core/src/timeslot.c.obj
                0x0002bea0                timeslot_length_get
 .text.timeslot_remaining_time_get
                0x0002beac       0x24 examples/experimental_lpn/CMakeFiles/lpn_nrf52840_xxAA_s140_6.1.0.dir/__/__/mesh/core/src/timeslot.c.obj
                0x0002beac                timeslot_remaining_time_get
 .text.timeslot_is_in_cb
                0x0002bed0        0xc examples/experimental_lpn/CMakeFiles/lpn_nrf52840_xxAA_s140_6.1.0.dir/__/__/mesh/core/src/timeslot.c.obj
                0x0002bed0                timeslot_is_in_cb
 .text.timeslot_session_is_active
                0x0002bedc       0x10 examples/experimental_lpn/CMakeFiles/lpn_nrf52840_xxAA_s140_6.1.0.dir/__/__/mesh/core/src/timeslot.c.obj
                0x0002bedc                timeslot_session_is_active
 .text.timeslot_trigger
                0x0002beec       0x24 examples/experimental_lpn/CMakeFiles/lpn_nrf52840_xxAA_s140_6.1.0.dir/__/__/mesh/core/src/timeslot.c.obj
                0x0002beec                timeslot_trigger
 .text.timeslot_stop
                0x0002bf10       0x1c examples/experimental_lpn/CMakeFiles/lpn_nrf52840_xxAA_s140_6.1.0.dir/__/__/mesh/core/src/timeslot.c.obj
                0x0002bf10                timeslot_stop
 .text.timeslot_restart
                0x0002bf2c       0x24 examples/experimental_lpn/CMakeFiles/lpn_nrf52840_xxAA_s140_6.1.0.dir/__/__/mesh/core/src/timeslot.c.obj
                0x0002bf2c                timeslot_restart
 .text.timeslot_state_lock
                0x0002bf50       0x28 examples/experimental_lpn/CMakeFiles/lpn_nrf52840_xxAA_s140_6.1.0.dir/__/__/mesh/core/src/timeslot.c.obj
                0x0002bf50                timeslot_state_lock
 .text.timer_mut_unlock
                0x0002bf78       0x10 examples/experimental_lpn/CMakeFiles/lpn_nrf52840_xxAA_s140_6.1.0.dir/__/__/mesh/core/src/timeslot_timer.c.obj
 .text.ts_timer_order_cb
                0x0002bf88       0x64 examples/experimental_lpn/CMakeFiles/lpn_nrf52840_xxAA_s140_6.1.0.dir/__/__/mesh/core/src/timeslot_timer.c.obj
                0x0002bf88                ts_timer_order_cb
 .text.ts_timer_now
                0x0002bfec       0x40 examples/experimental_lpn/CMakeFiles/lpn_nrf52840_xxAA_s140_6.1.0.dir/__/__/mesh/core/src/timeslot_timer.c.obj
                0x0002bfec                ts_timer_now
 .text.ts_timer_event_handler
                0x0002c02c       0x68 examples/experimental_lpn/CMakeFiles/lpn_nrf52840_xxAA_s140_6.1.0.dir/__/__/mesh/core/src/timeslot_timer.c.obj
                0x0002c02c                ts_timer_event_handler
 .text.ts_timer_to_device_time
                0x0002c094        0xc examples/experimental_lpn/CMakeFiles/lpn_nrf52840_xxAA_s140_6.1.0.dir/__/__/mesh/core/src/timeslot_timer.c.obj
                0x0002c094                ts_timer_to_device_time
 .text.ts_timer_on_ts_begin
                0x0002c0a0       0x6c examples/experimental_lpn/CMakeFiles/lpn_nrf52840_xxAA_s140_6.1.0.dir/__/__/mesh/core/src/timeslot_timer.c.obj
                0x0002c0a0                ts_timer_on_ts_begin
 .text.ts_timer_on_ts_end
                0x0002c10c       0x48 examples/experimental_lpn/CMakeFiles/lpn_nrf52840_xxAA_s140_6.1.0.dir/__/__/mesh/core/src/timeslot_timer.c.obj
                0x0002c10c                ts_timer_on_ts_end
 .text.trigger_event_handler
                0x0002c154       0x1c examples/experimental_lpn/CMakeFiles/lpn_nrf52840_xxAA_s140_6.1.0.dir/__/__/mesh/core/src/bearer_event.c.obj
 .text.bearer_event_init
                0x0002c170       0x58 examples/experimental_lpn/CMakeFiles/lpn_nrf52840_xxAA_s140_6.1.0.dir/__/__/mesh/core/src/bearer_event.c.obj
                0x0002c170                bearer_event_init
 .text.bearer_event_start
                0x0002c1c8       0x48 examples/experimental_lpn/CMakeFiles/lpn_nrf52840_xxAA_s140_6.1.0.dir/__/__/mesh/core/src/bearer_event.c.obj
                0x0002c1c8                bearer_event_start
 .text.bearer_event_critical_section_begin
                0x0002c210       0x80 examples/experimental_lpn/CMakeFiles/lpn_nrf52840_xxAA_s140_6.1.0.dir/__/__/mesh/core/src/bearer_event.c.obj
                0x0002c210                bearer_event_critical_section_begin
 .text.bearer_event_critical_section_end
                0x0002c290       0x60 examples/experimental_lpn/CMakeFiles/lpn_nrf52840_xxAA_s140_6.1.0.dir/__/__/mesh/core/src/bearer_event.c.obj
                0x0002c290                bearer_event_critical_section_end
 .text.bearer_event_flag_add
                0x0002c2f0       0x3c examples/experimental_lpn/CMakeFiles/lpn_nrf52840_xxAA_s140_6.1.0.dir/__/__/mesh/core/src/bearer_event.c.obj
                0x0002c2f0                bearer_event_flag_add
 .text.bearer_event_flag_set
                0x0002c32c       0x44 examples/experimental_lpn/CMakeFiles/lpn_nrf52840_xxAA_s140_6.1.0.dir/__/__/mesh/core/src/bearer_event.c.obj
                0x0002c32c                bearer_event_flag_set
 .text.bearer_event_sequential_add
                0x0002c370       0x2e examples/experimental_lpn/CMakeFiles/lpn_nrf52840_xxAA_s140_6.1.0.dir/__/__/mesh/core/src/bearer_event.c.obj
                0x0002c370                bearer_event_sequential_add
 *fill*         0x0002c39e        0x2 
 .text.bearer_event_sequential_post
                0x0002c3a0       0x44 examples/experimental_lpn/CMakeFiles/lpn_nrf52840_xxAA_s140_6.1.0.dir/__/__/mesh/core/src/bearer_event.c.obj
                0x0002c3a0                bearer_event_sequential_post
 .text.bearer_event_sequential_pending
                0x0002c3e4       0x10 examples/experimental_lpn/CMakeFiles/lpn_nrf52840_xxAA_s140_6.1.0.dir/__/__/mesh/core/src/bearer_event.c.obj
                0x0002c3e4                bearer_event_sequential_pending
 .text.bearer_event_handler
                0x0002c3f4       0xe4 examples/experimental_lpn/CMakeFiles/lpn_nrf52840_xxAA_s140_6.1.0.dir/__/__/mesh/core/src/bearer_event.c.obj
                0x0002c3f4                bearer_event_handler
 .text.QDEC_IRQHandler
                0x0002c4d8        0x4 examples/experimental_lpn/CMakeFiles/lpn_nrf52840_xxAA_s140_6.1.0.dir/__/__/mesh/core/src/bearer_event.c.obj
                0x0002c4d8                QDEC_IRQHandler
 .text.bearer_event_in_correct_irq_priority
                0x0002c4dc       0x74 examples/experimental_lpn/CMakeFiles/lpn_nrf52840_xxAA_s140_6.1.0.dir/__/__/mesh/core/src/bearer_event.c.obj
                0x0002c4dc                bearer_event_in_correct_irq_priority
 .text.sd_ecb_block_encrypt
                0x0002c550        0x4 examples/experimental_lpn/CMakeFiles/lpn_nrf52840_xxAA_s140_6.1.0.dir/__/__/mesh/core/src/enc.c.obj
 .text.enc_aes_encrypt
                0x0002c554       0x32 examples/experimental_lpn/CMakeFiles/lpn_nrf52840_xxAA_s140_6.1.0.dir/__/__/mesh/core/src/enc.c.obj
                0x0002c554                enc_aes_encrypt
 .text.enc_aes_cmac
                0x0002c586        0x4 examples/experimental_lpn/CMakeFiles/lpn_nrf52840_xxAA_s140_6.1.0.dir/__/__/mesh/core/src/enc.c.obj
                0x0002c586                enc_aes_cmac
 .text.enc_aes_ccm_encrypt
                0x0002c58a        0x4 examples/experimental_lpn/CMakeFiles/lpn_nrf52840_xxAA_s140_6.1.0.dir/__/__/mesh/core/src/enc.c.obj
                0x0002c58a                enc_aes_ccm_encrypt
 .text.enc_aes_ccm_decrypt
                0x0002c58e        0x4 examples/experimental_lpn/CMakeFiles/lpn_nrf52840_xxAA_s140_6.1.0.dir/__/__/mesh/core/src/enc.c.obj
                0x0002c58e                enc_aes_ccm_decrypt
 .text.enc_nonce_generate
                0x0002c592       0xbc examples/experimental_lpn/CMakeFiles/lpn_nrf52840_xxAA_s140_6.1.0.dir/__/__/mesh/core/src/enc.c.obj
                0x0002c592                enc_nonce_generate
 .text.enc_s1   0x0002c64e       0x2c examples/experimental_lpn/CMakeFiles/lpn_nrf52840_xxAA_s140_6.1.0.dir/__/__/mesh/core/src/enc.c.obj
                0x0002c64e                enc_s1
 .text.enc_k1   0x0002c67a       0x3c examples/experimental_lpn/CMakeFiles/lpn_nrf52840_xxAA_s140_6.1.0.dir/__/__/mesh/core/src/enc.c.obj
                0x0002c67a                enc_k1
 *fill*         0x0002c6b6        0x2 
 .text.enc_k2   0x0002c6b8       0xc0 examples/experimental_lpn/CMakeFiles/lpn_nrf52840_xxAA_s140_6.1.0.dir/__/__/mesh/core/src/enc.c.obj
                0x0002c6b8                enc_k2
 .text.enc_k3   0x0002c778       0x5c examples/experimental_lpn/CMakeFiles/lpn_nrf52840_xxAA_s140_6.1.0.dir/__/__/mesh/core/src/enc.c.obj
                0x0002c778                enc_k3
 .text.enc_k4   0x0002c7d4       0x54 examples/experimental_lpn/CMakeFiles/lpn_nrf52840_xxAA_s140_6.1.0.dir/__/__/mesh/core/src/enc.c.obj
                0x0002c7d4                enc_k4
 .text.allocate_packet
                0x0002c828       0x70 examples/experimental_lpn/CMakeFiles/lpn_nrf52840_xxAA_s140_6.1.0.dir/__/__/mesh/core/src/network.c.obj
 .text.network_init
                0x0002c898       0x24 examples/experimental_lpn/CMakeFiles/lpn_nrf52840_xxAA_s140_6.1.0.dir/__/__/mesh/core/src/network.c.obj
                0x0002c898                network_init
 .text.network_enable
                0x0002c8bc        0x4 examples/experimental_lpn/CMakeFiles/lpn_nrf52840_xxAA_s140_6.1.0.dir/__/__/mesh/core/src/network.c.obj
                0x0002c8bc                network_enable
 .text.network_packet_alloc
                0x0002c8c0       0x30 examples/experimental_lpn/CMakeFiles/lpn_nrf52840_xxAA_s140_6.1.0.dir/__/__/mesh/core/src/network.c.obj
                0x0002c8c0                network_packet_alloc
 .text.network_packet_send
                0x0002c8f0       0x46 examples/experimental_lpn/CMakeFiles/lpn_nrf52840_xxAA_s140_6.1.0.dir/__/__/mesh/core/src/network.c.obj
                0x0002c8f0                network_packet_send
 *fill*         0x0002c936        0x2 
 .text.network_packet_in
                0x0002c938      0x174 examples/experimental_lpn/CMakeFiles/lpn_nrf52840_xxAA_s140_6.1.0.dir/__/__/mesh/core/src/network.c.obj
                0x0002c938                network_packet_in
 .text.nonce_type_get
                0x0002caac       0x16 examples/experimental_lpn/CMakeFiles/lpn_nrf52840_xxAA_s140_6.1.0.dir/__/__/mesh/core/src/net_packet.c.obj
 .text.header_transfuscate
                0x0002cac2       0x54 examples/experimental_lpn/CMakeFiles/lpn_nrf52840_xxAA_s140_6.1.0.dir/__/__/mesh/core/src/net_packet.c.obj
 *fill*         0x0002cb16        0x2 
 .text.try_decrypt
                0x0002cb18      0x198 examples/experimental_lpn/CMakeFiles/lpn_nrf52840_xxAA_s140_6.1.0.dir/__/__/mesh/core/src/net_packet.c.obj
 .text.net_packet_decrypt
                0x0002ccb0       0x86 examples/experimental_lpn/CMakeFiles/lpn_nrf52840_xxAA_s140_6.1.0.dir/__/__/mesh/core/src/net_packet.c.obj
                0x0002ccb0                net_packet_decrypt
 .text.net_packet_encrypt
                0x0002cd36       0x7e examples/experimental_lpn/CMakeFiles/lpn_nrf52840_xxAA_s140_6.1.0.dir/__/__/mesh/core/src/net_packet.c.obj
                0x0002cd36                net_packet_encrypt
 .text.net_packet_header_set
                0x0002cdb4       0xaa examples/experimental_lpn/CMakeFiles/lpn_nrf52840_xxAA_s140_6.1.0.dir/__/__/mesh/core/src/net_packet.c.obj
                0x0002cdb4                net_packet_header_set
 .text.net_packet_payload_len_get
                0x0002ce5e       0x10 examples/experimental_lpn/CMakeFiles/lpn_nrf52840_xxAA_s140_6.1.0.dir/__/__/mesh/core/src/net_packet.c.obj
                0x0002ce5e                net_packet_payload_len_get
 .text.net_packet_from_payload
                0x0002ce6e        0x4 examples/experimental_lpn/CMakeFiles/lpn_nrf52840_xxAA_s140_6.1.0.dir/__/__/mesh/core/src/net_packet.c.obj
                0x0002ce6e                net_packet_from_payload
 .text.net_packet_payload_get
                0x0002ce72        0x4 examples/experimental_lpn/CMakeFiles/lpn_nrf52840_xxAA_s140_6.1.0.dir/__/__/mesh/core/src/net_packet.c.obj
                0x0002ce72                net_packet_payload_get
 .text.net_packet_obfuscation_start_get
                0x0002ce76        0x4 examples/experimental_lpn/CMakeFiles/lpn_nrf52840_xxAA_s140_6.1.0.dir/__/__/mesh/core/src/net_packet.c.obj
                0x0002ce76                net_packet_obfuscation_start_get
 .text.stage_get_available
                0x0002ce7a       0x24 examples/experimental_lpn/CMakeFiles/lpn_nrf52840_xxAA_s140_6.1.0.dir/__/__/mesh/core/src/msqueue.c.obj
 .text.msq_get  0x0002ce9e       0x38 examples/experimental_lpn/CMakeFiles/lpn_nrf52840_xxAA_s140_6.1.0.dir/__/__/mesh/core/src/msqueue.c.obj
                0x0002ce9e                msq_get
 .text.msq_move
                0x0002ced6       0x2e examples/experimental_lpn/CMakeFiles/lpn_nrf52840_xxAA_s140_6.1.0.dir/__/__/mesh/core/src/msqueue.c.obj
                0x0002ced6                msq_move
 .text.msq_reset
                0x0002cf04       0x20 examples/experimental_lpn/CMakeFiles/lpn_nrf52840_xxAA_s140_6.1.0.dir/__/__/mesh/core/src/msqueue.c.obj
                0x0002cf04                msq_reset
 .text.msq_init
                0x0002cf24       0x4a examples/experimental_lpn/CMakeFiles/lpn_nrf52840_xxAA_s140_6.1.0.dir/__/__/mesh/core/src/msqueue.c.obj
                0x0002cf24                msq_init
 .text.msq_available
                0x0002cf6e       0x26 examples/experimental_lpn/CMakeFiles/lpn_nrf52840_xxAA_s140_6.1.0.dir/__/__/mesh/core/src/msqueue.c.obj
                0x0002cf6e                msq_available
 .text.nrf_mesh_keygen_aid
                0x0002cf94       0x12 examples/experimental_lpn/CMakeFiles/lpn_nrf52840_xxAA_s140_6.1.0.dir/__/__/mesh/core/src/nrf_mesh_keygen.c.obj
                0x0002cf94                nrf_mesh_keygen_aid
 .text.nrf_mesh_keygen_network_secmat
                0x0002cfa6       0x20 examples/experimental_lpn/CMakeFiles/lpn_nrf52840_xxAA_s140_6.1.0.dir/__/__/mesh/core/src/nrf_mesh_keygen.c.obj
                0x0002cfa6                nrf_mesh_keygen_network_secmat
 .text.nrf_mesh_keygen_friendship_secmat
                0x0002cfc6       0x52 examples/experimental_lpn/CMakeFiles/lpn_nrf52840_xxAA_s140_6.1.0.dir/__/__/mesh/core/src/nrf_mesh_keygen.c.obj
                0x0002cfc6                nrf_mesh_keygen_friendship_secmat
 .text.nrf_mesh_keygen_beacon_secmat
                0x0002d018       0x50 examples/experimental_lpn/CMakeFiles/lpn_nrf52840_xxAA_s140_6.1.0.dir/__/__/mesh/core/src/nrf_mesh_keygen.c.obj
                0x0002d018                nrf_mesh_keygen_beacon_secmat
 .text.nrf_mesh_keygen_identitykey
                0x0002d068       0x4c examples/experimental_lpn/CMakeFiles/lpn_nrf52840_xxAA_s140_6.1.0.dir/__/__/mesh/core/src/nrf_mesh_keygen.c.obj
                0x0002d068                nrf_mesh_keygen_identitykey
 .text.nrf_mesh_keygen_virtual_address
                0x0002d0b4       0x50 examples/experimental_lpn/CMakeFiles/lpn_nrf52840_xxAA_s140_6.1.0.dir/__/__/mesh/core/src/nrf_mesh_keygen.c.obj
                0x0002d0b4                nrf_mesh_keygen_virtual_address
 .text.erase_at
                0x0002d104       0x1c examples/experimental_lpn/CMakeFiles/lpn_nrf52840_xxAA_s140_6.1.0.dir/__/__/mesh/core/src/cache.c.obj
 .text.cache_init
                0x0002d120       0x1e examples/experimental_lpn/CMakeFiles/lpn_nrf52840_xxAA_s140_6.1.0.dir/__/__/mesh/core/src/cache.c.obj
                0x0002d120                cache_init
 .text.cache_has_elem
                0x0002d13e       0x3e examples/experimental_lpn/CMakeFiles/lpn_nrf52840_xxAA_s140_6.1.0.dir/__/__/mesh/core/src/cache.c.obj
                0x0002d13e                cache_has_elem
 .text.cache_put
                0x0002d17c       0x2a examples/experimental_lpn/CMakeFiles/lpn_nrf52840_xxAA_s140_6.1.0.dir/__/__/mesh/core/src/cache.c.obj
                0x0002d17c                cache_put
 .text.list_insert
                0x0002d1a6       0x1c examples/experimental_lpn/CMakeFiles/lpn_nrf52840_xxAA_s140_6.1.0.dir/__/__/mesh/core/src/list.c.obj
 .text.list_add
                0x0002d1c2       0x42 examples/experimental_lpn/CMakeFiles/lpn_nrf52840_xxAA_s140_6.1.0.dir/__/__/mesh/core/src/list.c.obj
                0x0002d1c2                list_add
 .text.list_remove
                0x0002d204       0x3a examples/experimental_lpn/CMakeFiles/lpn_nrf52840_xxAA_s140_6.1.0.dir/__/__/mesh/core/src/list.c.obj
                0x0002d204                list_remove
 .text.list_compare_add
                0x0002d23e       0x56 examples/experimental_lpn/CMakeFiles/lpn_nrf52840_xxAA_s140_6.1.0.dir/__/__/mesh/core/src/list.c.obj
                0x0002d23e                list_compare_add
 .text.log_callback_rtt
                0x0002d294       0x2c examples/experimental_lpn/CMakeFiles/lpn_nrf52840_xxAA_s140_6.1.0.dir/__/__/mesh/core/src/log.c.obj
                0x0002d294                log_callback_rtt
 .text.log_init
                0x0002d2c0       0x1c examples/experimental_lpn/CMakeFiles/lpn_nrf52840_xxAA_s140_6.1.0.dir/__/__/mesh/core/src/log.c.obj
                0x0002d2c0                log_init
 .text.log_vprintf
                0x0002d2dc       0x18 examples/experimental_lpn/CMakeFiles/lpn_nrf52840_xxAA_s140_6.1.0.dir/__/__/mesh/core/src/log.c.obj
                0x0002d2dc                log_vprintf
 .text.log_printf
                0x0002d2f4       0x18 examples/experimental_lpn/CMakeFiles/lpn_nrf52840_xxAA_s140_6.1.0.dir/__/__/mesh/core/src/log.c.obj
                0x0002d2f4                log_printf
 .text.get_area_end
                0x0002d30c        0xc examples/experimental_lpn/CMakeFiles/lpn_nrf52840_xxAA_s140_6.1.0.dir/__/__/mesh/core/src/flash_manager.c.obj
 .text.handle_matches_filter
                0x0002d318       0x26 examples/experimental_lpn/CMakeFiles/lpn_nrf52840_xxAA_s140_6.1.0.dir/__/__/mesh/core/src/flash_manager.c.obj
 .text.flash_area_is_blank
                0x0002d33e       0x34 examples/experimental_lpn/CMakeFiles/lpn_nrf52840_xxAA_s140_6.1.0.dir/__/__/mesh/core/src/flash_manager.c.obj
 *fill*         0x0002d372        0x2 
 .text.get_packet_buffer
                0x0002d374       0x20 examples/experimental_lpn/CMakeFiles/lpn_nrf52840_xxAA_s140_6.1.0.dir/__/__/mesh/core/src/flash_manager.c.obj
 .text.flash    0x0002d394       0x1c examples/experimental_lpn/CMakeFiles/lpn_nrf52840_xxAA_s140_6.1.0.dir/__/__/mesh/core/src/flash_manager.c.obj
 .text.free_packet_buffer
                0x0002d3b0       0x3c examples/experimental_lpn/CMakeFiles/lpn_nrf52840_xxAA_s140_6.1.0.dir/__/__/mesh/core/src/flash_manager.c.obj
 .text.iterate_callback_entry_copy
                0x0002d3ec       0x38 examples/experimental_lpn/CMakeFiles/lpn_nrf52840_xxAA_s140_6.1.0.dir/__/__/mesh/core/src/flash_manager.c.obj
 .text.reserve_action_buffer
                0x0002d424       0x24 examples/experimental_lpn/CMakeFiles/lpn_nrf52840_xxAA_s140_6.1.0.dir/__/__/mesh/core/src/flash_manager.c.obj
 .text.commit_action_buffer
                0x0002d448       0x18 examples/experimental_lpn/CMakeFiles/lpn_nrf52840_xxAA_s140_6.1.0.dir/__/__/mesh/core/src/flash_manager.c.obj
 .text.schedule_processing
                0x0002d460        0xc examples/experimental_lpn/CMakeFiles/lpn_nrf52840_xxAA_s140_6.1.0.dir/__/__/mesh/core/src/flash_manager.c.obj
 .text.get_next_entry
                0x0002d46c       0x34 examples/experimental_lpn/CMakeFiles/lpn_nrf52840_xxAA_s140_6.1.0.dir/__/__/mesh/core/src/flash_manager.c.obj
 .text.get_last_entry.isra.1
                0x0002d4a0       0x30 examples/experimental_lpn/CMakeFiles/lpn_nrf52840_xxAA_s140_6.1.0.dir/__/__/mesh/core/src/flash_manager.c.obj
 .text.process_action_queue
                0x0002d4d0      0x3d4 examples/experimental_lpn/CMakeFiles/lpn_nrf52840_xxAA_s140_6.1.0.dir/__/__/mesh/core/src/flash_manager.c.obj
 .text.flash_op_ended_callback
                0x0002d8a4       0x24 examples/experimental_lpn/CMakeFiles/lpn_nrf52840_xxAA_s140_6.1.0.dir/__/__/mesh/core/src/flash_manager.c.obj
 .text.flash_manager_init
                0x0002d8c8       0x68 examples/experimental_lpn/CMakeFiles/lpn_nrf52840_xxAA_s140_6.1.0.dir/__/__/mesh/core/src/flash_manager.c.obj
                0x0002d8c8                flash_manager_init
 .text.flash_manager_remove
                0x0002d930       0x24 examples/experimental_lpn/CMakeFiles/lpn_nrf52840_xxAA_s140_6.1.0.dir/__/__/mesh/core/src/flash_manager.c.obj
                0x0002d930                flash_manager_remove
 .text.flash_manager_entries_read
                0x0002d954       0xec examples/experimental_lpn/CMakeFiles/lpn_nrf52840_xxAA_s140_6.1.0.dir/__/__/mesh/core/src/flash_manager.c.obj
                0x0002d954                flash_manager_entries_read
 .text.flash_manager_entry_read
                0x0002da40       0x50 examples/experimental_lpn/CMakeFiles/lpn_nrf52840_xxAA_s140_6.1.0.dir/__/__/mesh/core/src/flash_manager.c.obj
                0x0002da40                flash_manager_entry_read
 .text.flash_manager_entry_count_get
                0x0002da90       0x1e examples/experimental_lpn/CMakeFiles/lpn_nrf52840_xxAA_s140_6.1.0.dir/__/__/mesh/core/src/flash_manager.c.obj
                0x0002da90                flash_manager_entry_count_get
 .text.flash_manager_entry_alloc
                0x0002daae       0x5c examples/experimental_lpn/CMakeFiles/lpn_nrf52840_xxAA_s140_6.1.0.dir/__/__/mesh/core/src/flash_manager.c.obj
                0x0002daae                flash_manager_entry_alloc
 *fill*         0x0002db0a        0x2 
 .text.flash_manager_entry_commit
                0x0002db0c       0x2c examples/experimental_lpn/CMakeFiles/lpn_nrf52840_xxAA_s140_6.1.0.dir/__/__/mesh/core/src/flash_manager.c.obj
                0x0002db0c                flash_manager_entry_commit
 .text.flash_manager_entry_invalidate
                0x0002db38       0x4e examples/experimental_lpn/CMakeFiles/lpn_nrf52840_xxAA_s140_6.1.0.dir/__/__/mesh/core/src/flash_manager.c.obj
                0x0002db38                flash_manager_entry_invalidate
 .text.flash_manager_add
                0x0002db86      0x228 examples/experimental_lpn/CMakeFiles/lpn_nrf52840_xxAA_s140_6.1.0.dir/__/__/mesh/core/src/flash_manager.c.obj
                0x0002db86                flash_manager_add
 *fill*         0x0002ddae        0x2 
 .text.flash_manager_mem_listener_register
                0x0002ddb0       0x30 examples/experimental_lpn/CMakeFiles/lpn_nrf52840_xxAA_s140_6.1.0.dir/__/__/mesh/core/src/flash_manager.c.obj
                0x0002ddb0                flash_manager_mem_listener_register
 .text.flash_manager_is_stable
                0x0002dde0       0x20 examples/experimental_lpn/CMakeFiles/lpn_nrf52840_xxAA_s140_6.1.0.dir/__/__/mesh/core/src/flash_manager.c.obj
                0x0002dde0                flash_manager_is_stable
 .text.flash_manager_on_defrag_end
                0x0002de00       0x4c examples/experimental_lpn/CMakeFiles/lpn_nrf52840_xxAA_s140_6.1.0.dir/__/__/mesh/core/src/flash_manager.c.obj
                0x0002de00                flash_manager_on_defrag_end
 .text.flash_manager_recovery_page_get
                0x0002de4c        0x4 examples/experimental_lpn/CMakeFiles/lpn_nrf52840_xxAA_s140_6.1.0.dir/__/__/mesh/core/src/flash_manager.c.obj
                0x0002de4c                flash_manager_recovery_page_get
 .text.flash_manager_action_queue_empty_cb_set
                0x0002de50       0x1c examples/experimental_lpn/CMakeFiles/lpn_nrf52840_xxAA_s140_6.1.0.dir/__/__/mesh/core/src/flash_manager.c.obj
                0x0002de50                flash_manager_action_queue_empty_cb_set
 .text.utils_xor
                0x0002de6c       0x14 examples/experimental_lpn/CMakeFiles/lpn_nrf52840_xxAA_s140_6.1.0.dir/__/__/mesh/core/src/ccm_soft.c.obj
 .text.sd_ecb_block_encrypt
                0x0002de80        0x4 examples/experimental_lpn/CMakeFiles/lpn_nrf52840_xxAA_s140_6.1.0.dir/__/__/mesh/core/src/ccm_soft.c.obj
 .text.ccm_soft_crypt
                0x0002de84       0x4c examples/experimental_lpn/CMakeFiles/lpn_nrf52840_xxAA_s140_6.1.0.dir/__/__/mesh/core/src/ccm_soft.c.obj
 .text.ccm_soft_authenticate_blocks
                0x0002ded0       0x6c examples/experimental_lpn/CMakeFiles/lpn_nrf52840_xxAA_s140_6.1.0.dir/__/__/mesh/core/src/ccm_soft.c.obj
 .text.ccm_soft_authenticate
                0x0002df3c       0x94 examples/experimental_lpn/CMakeFiles/lpn_nrf52840_xxAA_s140_6.1.0.dir/__/__/mesh/core/src/ccm_soft.c.obj
 .text.ccm_soft_encrypt
                0x0002dfd0       0x54 examples/experimental_lpn/CMakeFiles/lpn_nrf52840_xxAA_s140_6.1.0.dir/__/__/mesh/core/src/ccm_soft.c.obj
                0x0002dfd0                ccm_soft_encrypt
 .text.ccm_soft_decrypt
                0x0002e024       0x9c examples/experimental_lpn/CMakeFiles/lpn_nrf52840_xxAA_s140_6.1.0.dir/__/__/mesh/core/src/ccm_soft.c.obj
                0x0002e024                ccm_soft_decrypt
 .text.replay_cache_add
                0x0002e0c0       0x58 examples/experimental_lpn/CMakeFiles/lpn_nrf52840_xxAA_s140_6.1.0.dir/__/__/mesh/core/src/replay_cache.c.obj
                0x0002e0c0                replay_cache_add
 .text.replay_cache_has_elem
                0x0002e118       0x40 examples/experimental_lpn/CMakeFiles/lpn_nrf52840_xxAA_s140_6.1.0.dir/__/__/mesh/core/src/replay_cache.c.obj
                0x0002e118                replay_cache_has_elem
 .text.replay_cache_clear
                0x0002e158       0x20 examples/experimental_lpn/CMakeFiles/lpn_nrf52840_xxAA_s140_6.1.0.dir/__/__/mesh/core/src/replay_cache.c.obj
                0x0002e158                replay_cache_clear
 .text.replay_cache_init
                0x0002e178        0x4 examples/experimental_lpn/CMakeFiles/lpn_nrf52840_xxAA_s140_6.1.0.dir/__/__/mesh/core/src/replay_cache.c.obj
                0x0002e178                replay_cache_init
 .text.beacon_create
                0x0002e17c       0x46 examples/experimental_lpn/CMakeFiles/lpn_nrf52840_xxAA_s140_6.1.0.dir/__/__/mesh/core/src/beacon.c.obj
                0x0002e17c                beacon_create
 *fill*         0x0002e1c2        0x2 
 .text.beacon_packet_in
                0x0002e1c4      0x130 examples/experimental_lpn/CMakeFiles/lpn_nrf52840_xxAA_s140_6.1.0.dir/__/__/mesh/core/src/beacon.c.obj
                0x0002e1c4                beacon_packet_in
 .text.entry_get
                0x0002e2f4       0x78 examples/experimental_lpn/CMakeFiles/lpn_nrf52840_xxAA_s140_6.1.0.dir/__/__/mesh/core/src/flash_manager_internal.c.obj
                0x0002e2f4                entry_get
 .text.core_tx_complete_cb_set
                0x0002e36c        0xc examples/experimental_lpn/CMakeFiles/lpn_nrf52840_xxAA_s140_6.1.0.dir/__/__/mesh/core/src/core_tx.c.obj
                0x0002e36c                core_tx_complete_cb_set
 .text.core_tx_packet_alloc
                0x0002e378       0xa4 examples/experimental_lpn/CMakeFiles/lpn_nrf52840_xxAA_s140_6.1.0.dir/__/__/mesh/core/src/core_tx.c.obj
                0x0002e378                core_tx_packet_alloc
 .text.core_tx_packet_send
                0x0002e41c       0x4c examples/experimental_lpn/CMakeFiles/lpn_nrf52840_xxAA_s140_6.1.0.dir/__/__/mesh/core/src/core_tx.c.obj
                0x0002e41c                core_tx_packet_send
 .text.core_tx_packet_discard
                0x0002e468       0x40 examples/experimental_lpn/CMakeFiles/lpn_nrf52840_xxAA_s140_6.1.0.dir/__/__/mesh/core/src/core_tx.c.obj
                0x0002e468                core_tx_packet_discard
 .text.core_tx_complete
                0x0002e4a8       0x34 examples/experimental_lpn/CMakeFiles/lpn_nrf52840_xxAA_s140_6.1.0.dir/__/__/mesh/core/src/core_tx.c.obj
                0x0002e4a8                core_tx_complete
 .text.core_tx_bearer_add
                0x0002e4dc       0x70 examples/experimental_lpn/CMakeFiles/lpn_nrf52840_xxAA_s140_6.1.0.dir/__/__/mesh/core/src/core_tx.c.obj
                0x0002e4dc                core_tx_bearer_add
 .text.is_publication_running
                0x0002e54c       0x14 examples/experimental_lpn/CMakeFiles/lpn_nrf52840_xxAA_s140_6.1.0.dir/__/__/mesh/core/src/heartbeat.c.obj
 .text.heartbeat_publication_count_decrement
                0x0002e560       0x1c examples/experimental_lpn/CMakeFiles/lpn_nrf52840_xxAA_s140_6.1.0.dir/__/__/mesh/core/src/heartbeat.c.obj
 .text.hb_pub_getter
                0x0002e57c       0x2c examples/experimental_lpn/CMakeFiles/lpn_nrf52840_xxAA_s140_6.1.0.dir/__/__/mesh/core/src/heartbeat.c.obj
 .text.hb_pub_setter
                0x0002e5a8       0x30 examples/experimental_lpn/CMakeFiles/lpn_nrf52840_xxAA_s140_6.1.0.dir/__/__/mesh/core/src/heartbeat.c.obj
 .text.heartbeat_subscription_timer_cb
                0x0002e5d8       0x1c examples/experimental_lpn/CMakeFiles/lpn_nrf52840_xxAA_s140_6.1.0.dir/__/__/mesh/core/src/heartbeat.c.obj
 .text.heartbeat_on_feature_change_trigger
                0x0002e5f4       0x28 examples/experimental_lpn/CMakeFiles/lpn_nrf52840_xxAA_s140_6.1.0.dir/__/__/mesh/core/src/heartbeat.c.obj
 .text.heartbeat_relay_listener_cb
                0x0002e61c       0x3c examples/experimental_lpn/CMakeFiles/lpn_nrf52840_xxAA_s140_6.1.0.dir/__/__/mesh/core/src/heartbeat.c.obj
 .text.heartbeat_proxy_listener_cb
                0x0002e658       0x2c examples/experimental_lpn/CMakeFiles/lpn_nrf52840_xxAA_s140_6.1.0.dir/__/__/mesh/core/src/heartbeat.c.obj
 .text.heartbeat_opcode_handle
                0x0002e684       0x88 examples/experimental_lpn/CMakeFiles/lpn_nrf52840_xxAA_s140_6.1.0.dir/__/__/mesh/core/src/heartbeat.c.obj
 .text.heartbeat_send
                0x0002e70c       0x98 examples/experimental_lpn/CMakeFiles/lpn_nrf52840_xxAA_s140_6.1.0.dir/__/__/mesh/core/src/heartbeat.c.obj
 .text.heartbeat_core_evt_cb
                0x0002e7a4       0x6c examples/experimental_lpn/CMakeFiles/lpn_nrf52840_xxAA_s140_6.1.0.dir/__/__/mesh/core/src/heartbeat.c.obj
 .text.heartbeat_publication_timer_cb
                0x0002e810       0x94 examples/experimental_lpn/CMakeFiles/lpn_nrf52840_xxAA_s140_6.1.0.dir/__/__/mesh/core/src/heartbeat.c.obj
 .text.heartbeat_init
                0x0002e8a4       0x78 examples/experimental_lpn/CMakeFiles/lpn_nrf52840_xxAA_s140_6.1.0.dir/__/__/mesh/core/src/heartbeat.c.obj
                0x0002e8a4                heartbeat_init
 .text.heartbeat_subscription_set
                0x0002e91c       0xa4 examples/experimental_lpn/CMakeFiles/lpn_nrf52840_xxAA_s140_6.1.0.dir/__/__/mesh/core/src/heartbeat.c.obj
                0x0002e91c                heartbeat_subscription_set
 .text.heartbeat_subscription_get
                0x0002e9c0        0x8 examples/experimental_lpn/CMakeFiles/lpn_nrf52840_xxAA_s140_6.1.0.dir/__/__/mesh/core/src/heartbeat.c.obj
                0x0002e9c0                heartbeat_subscription_get
 .text.heartbeat_publication_get
                0x0002e9c8        0x8 examples/experimental_lpn/CMakeFiles/lpn_nrf52840_xxAA_s140_6.1.0.dir/__/__/mesh/core/src/heartbeat.c.obj
                0x0002e9c8                heartbeat_publication_get
 .text.heartbeat_publication_state_updated
                0x0002e9d0       0x8c examples/experimental_lpn/CMakeFiles/lpn_nrf52840_xxAA_s140_6.1.0.dir/__/__/mesh/core/src/heartbeat.c.obj
                0x0002e9d0                heartbeat_publication_state_updated
 .text.heartbeat_public_info_getter_register
                0x0002ea5c       0x14 examples/experimental_lpn/CMakeFiles/lpn_nrf52840_xxAA_s140_6.1.0.dir/__/__/mesh/core/src/heartbeat.c.obj
                0x0002ea5c                heartbeat_public_info_getter_register
 .text.beacon_getter
                0x0002ea70       0x24 examples/experimental_lpn/CMakeFiles/lpn_nrf52840_xxAA_s140_6.1.0.dir/__/__/mesh/core/src/net_beacon.c.obj
 .text.beacon_setter
                0x0002ea94       0x4c examples/experimental_lpn/CMakeFiles/lpn_nrf52840_xxAA_s140_6.1.0.dir/__/__/mesh/core/src/net_beacon.c.obj
 .text.make_network_beacon_packet
                0x0002eae0       0x50 examples/experimental_lpn/CMakeFiles/lpn_nrf52840_xxAA_s140_6.1.0.dir/__/__/mesh/core/src/net_beacon.c.obj
 .text.beacon_tx
                0x0002eb30      0x134 examples/experimental_lpn/CMakeFiles/lpn_nrf52840_xxAA_s140_6.1.0.dir/__/__/mesh/core/src/net_beacon.c.obj
 .text.tx_complete_cb
                0x0002ec64        0xe examples/experimental_lpn/CMakeFiles/lpn_nrf52840_xxAA_s140_6.1.0.dir/__/__/mesh/core/src/net_beacon.c.obj
 .text.beacon_tx_timeout
                0x0002ec72        0x4 examples/experimental_lpn/CMakeFiles/lpn_nrf52840_xxAA_s140_6.1.0.dir/__/__/mesh/core/src/net_beacon.c.obj
 .text.is_valid_beacon_pkt.part.0
                0x0002ec76       0x30 examples/experimental_lpn/CMakeFiles/lpn_nrf52840_xxAA_s140_6.1.0.dir/__/__/mesh/core/src/net_beacon.c.obj
 *fill*         0x0002eca6        0x2 
 .text.net_beacon_init
                0x0002eca8       0x7c examples/experimental_lpn/CMakeFiles/lpn_nrf52840_xxAA_s140_6.1.0.dir/__/__/mesh/core/src/net_beacon.c.obj
                0x0002eca8                net_beacon_init
 .text.net_beacon_state_set
                0x0002ed24       0x2c examples/experimental_lpn/CMakeFiles/lpn_nrf52840_xxAA_s140_6.1.0.dir/__/__/mesh/core/src/net_beacon.c.obj
                0x0002ed24                net_beacon_state_set
 .text.net_beacon_state_get
                0x0002ed50       0x2c examples/experimental_lpn/CMakeFiles/lpn_nrf52840_xxAA_s140_6.1.0.dir/__/__/mesh/core/src/net_beacon.c.obj
                0x0002ed50                net_beacon_state_get
 .text.net_beacon_build
                0x0002ed7c       0x24 examples/experimental_lpn/CMakeFiles/lpn_nrf52840_xxAA_s140_6.1.0.dir/__/__/mesh/core/src/net_beacon.c.obj
                0x0002ed7c                net_beacon_build
 .text.net_beacon_packet_in
                0x0002eda0       0xf2 examples/experimental_lpn/CMakeFiles/lpn_nrf52840_xxAA_s140_6.1.0.dir/__/__/mesh/core/src/net_beacon.c.obj
                0x0002eda0                net_beacon_packet_in
 *fill*         0x0002ee92        0x2 
 .text.listeners_notify
                0x0002ee94       0x50 examples/experimental_lpn/CMakeFiles/lpn_nrf52840_xxAA_s140_6.1.0.dir/__/__/mesh/core/src/mesh_config.c.obj
 .text.entry_flags_get.isra.0
                0x0002eee4       0x1c examples/experimental_lpn/CMakeFiles/lpn_nrf52840_xxAA_s140_6.1.0.dir/__/__/mesh/core/src/mesh_config.c.obj
 .text.entry_params_find
                0x0002ef00       0x3c examples/experimental_lpn/CMakeFiles/lpn_nrf52840_xxAA_s140_6.1.0.dir/__/__/mesh/core/src/mesh_config.c.obj
 .text.restore_callback
                0x0002ef3c       0x66 examples/experimental_lpn/CMakeFiles/lpn_nrf52840_xxAA_s140_6.1.0.dir/__/__/mesh/core/src/mesh_config.c.obj
 *fill*         0x0002efa2        0x2 
 .text.dirty_entries_process
                0x0002efa4       0xcc examples/experimental_lpn/CMakeFiles/lpn_nrf52840_xxAA_s140_6.1.0.dir/__/__/mesh/core/src/mesh_config.c.obj
 .text.mesh_config_init
                0x0002f070       0x8c examples/experimental_lpn/CMakeFiles/lpn_nrf52840_xxAA_s140_6.1.0.dir/__/__/mesh/core/src/mesh_config.c.obj
                0x0002f070                mesh_config_init
 .text.mesh_config_load
                0x0002f0fc        0xc examples/experimental_lpn/CMakeFiles/lpn_nrf52840_xxAA_s140_6.1.0.dir/__/__/mesh/core/src/mesh_config.c.obj
                0x0002f0fc                mesh_config_load
 .text.mesh_config_is_busy
                0x0002f108       0x34 examples/experimental_lpn/CMakeFiles/lpn_nrf52840_xxAA_s140_6.1.0.dir/__/__/mesh/core/src/mesh_config.c.obj
                0x0002f108                mesh_config_is_busy
 .text.backend_evt_handler
                0x0002f13c       0x80 examples/experimental_lpn/CMakeFiles/lpn_nrf52840_xxAA_s140_6.1.0.dir/__/__/mesh/core/src/mesh_config.c.obj
 .text.mesh_config_entry_set
                0x0002f1bc       0x8c examples/experimental_lpn/CMakeFiles/lpn_nrf52840_xxAA_s140_6.1.0.dir/__/__/mesh/core/src/mesh_config.c.obj
                0x0002f1bc                mesh_config_entry_set
 .text.mesh_config_entry_get
                0x0002f248       0x48 examples/experimental_lpn/CMakeFiles/lpn_nrf52840_xxAA_s140_6.1.0.dir/__/__/mesh/core/src/mesh_config.c.obj
                0x0002f248                mesh_config_entry_get
 .text.fsm_event_post_try
                0x0002f290       0xa8 examples/experimental_lpn/CMakeFiles/lpn_nrf52840_xxAA_s140_6.1.0.dir/__/__/mesh/core/src/fsm.c.obj
 .text.fsm_init
                0x0002f338       0x62 examples/experimental_lpn/CMakeFiles/lpn_nrf52840_xxAA_s140_6.1.0.dir/__/__/mesh/core/src/fsm.c.obj
                0x0002f338                fsm_init
 .text.fsm_event_post
                0x0002f39a       0x40 examples/experimental_lpn/CMakeFiles/lpn_nrf52840_xxAA_s140_6.1.0.dir/__/__/mesh/core/src/fsm.c.obj
                0x0002f39a                fsm_event_post
 .text.fsm_is_processing
                0x0002f3da        0xa examples/experimental_lpn/CMakeFiles/lpn_nrf52840_xxAA_s140_6.1.0.dir/__/__/mesh/core/src/fsm.c.obj
                0x0002f3da                fsm_is_processing
 .text.dummy_event
                0x0002f3e4        0x2 examples/experimental_lpn/CMakeFiles/lpn_nrf52840_xxAA_s140_6.1.0.dir/__/__/mesh/core/src/mesh_config_backend.c.obj
 *fill*         0x0002f3e6        0x2 
 .text.file_get
                0x0002f3e8       0x34 examples/experimental_lpn/CMakeFiles/lpn_nrf52840_xxAA_s140_6.1.0.dir/__/__/mesh/core/src/mesh_config_backend.c.obj
 .text.mesh_config_backend_init
                0x0002f41c      0x124 examples/experimental_lpn/CMakeFiles/lpn_nrf52840_xxAA_s140_6.1.0.dir/__/__/mesh/core/src/mesh_config_backend.c.obj
                0x0002f41c                mesh_config_backend_init
 .text.mesh_config_backend_store
                0x0002f540       0x4e examples/experimental_lpn/CMakeFiles/lpn_nrf52840_xxAA_s140_6.1.0.dir/__/__/mesh/core/src/mesh_config_backend.c.obj
                0x0002f540                mesh_config_backend_store
 .text.mesh_config_backend_erase
                0x0002f58e       0x34 examples/experimental_lpn/CMakeFiles/lpn_nrf52840_xxAA_s140_6.1.0.dir/__/__/mesh/core/src/mesh_config_backend.c.obj
                0x0002f58e                mesh_config_backend_erase
 *fill*         0x0002f5c2        0x2 
 .text.mesh_config_backend_read_all
                0x0002f5c4       0x38 examples/experimental_lpn/CMakeFiles/lpn_nrf52840_xxAA_s140_6.1.0.dir/__/__/mesh/core/src/mesh_config_backend.c.obj
                0x0002f5c4                mesh_config_backend_read_all
 .text.entry_read_cb
                0x0002f5fc       0x38 examples/experimental_lpn/CMakeFiles/lpn_nrf52840_xxAA_s140_6.1.0.dir/__/__/mesh/core/src/mesh_config_flashman_glue.c.obj
 .text.write_complete_cb
                0x0002f634       0x30 examples/experimental_lpn/CMakeFiles/lpn_nrf52840_xxAA_s140_6.1.0.dir/__/__/mesh/core/src/mesh_config_flashman_glue.c.obj
 .text.invalidate_complete_cb
                0x0002f664       0x2c examples/experimental_lpn/CMakeFiles/lpn_nrf52840_xxAA_s140_6.1.0.dir/__/__/mesh/core/src/mesh_config_flashman_glue.c.obj
 .text.remove_complete_cb
                0x0002f690        0x2 examples/experimental_lpn/CMakeFiles/lpn_nrf52840_xxAA_s140_6.1.0.dir/__/__/mesh/core/src/mesh_config_flashman_glue.c.obj
 .text.flash_stable_cb
                0x0002f692       0x20 examples/experimental_lpn/CMakeFiles/lpn_nrf52840_xxAA_s140_6.1.0.dir/__/__/mesh/core/src/mesh_config_flashman_glue.c.obj
 *fill*         0x0002f6b2        0x2 
 .text.mesh_config_backend_glue_init
                0x0002f6b4       0x28 examples/experimental_lpn/CMakeFiles/lpn_nrf52840_xxAA_s140_6.1.0.dir/__/__/mesh/core/src/mesh_config_flashman_glue.c.obj
                0x0002f6b4                mesh_config_backend_glue_init
 .text.mesh_config_backend_file_create
                0x0002f6dc       0x58 examples/experimental_lpn/CMakeFiles/lpn_nrf52840_xxAA_s140_6.1.0.dir/__/__/mesh/core/src/mesh_config_flashman_glue.c.obj
                0x0002f6dc                mesh_config_backend_file_create
 .text.mesh_config_backend_record_write
                0x0002f734       0x2c examples/experimental_lpn/CMakeFiles/lpn_nrf52840_xxAA_s140_6.1.0.dir/__/__/mesh/core/src/mesh_config_flashman_glue.c.obj
                0x0002f734                mesh_config_backend_record_write
 .text.mesh_config_backend_record_erase
                0x0002f760       0x30 examples/experimental_lpn/CMakeFiles/lpn_nrf52840_xxAA_s140_6.1.0.dir/__/__/mesh/core/src/mesh_config_flashman_glue.c.obj
                0x0002f760                mesh_config_backend_record_erase
 .text.mesh_config_backend_records_read
                0x0002f790       0x30 examples/experimental_lpn/CMakeFiles/lpn_nrf52840_xxAA_s140_6.1.0.dir/__/__/mesh/core/src/mesh_config_flashman_glue.c.obj
                0x0002f790                mesh_config_backend_records_read
 .text.mesh_config_record_size_calculate
                0x0002f7c0        0xa examples/experimental_lpn/CMakeFiles/lpn_nrf52840_xxAA_s140_6.1.0.dir/__/__/mesh/core/src/mesh_config_flashman_glue.c.obj
                0x0002f7c0                mesh_config_record_size_calculate
 .text.mesh_config_backend_file_power_down_time_get
                0x0002f7ca       0x24 examples/experimental_lpn/CMakeFiles/lpn_nrf52840_xxAA_s140_6.1.0.dir/__/__/mesh/core/src/mesh_config_flashman_glue.c.obj
                0x0002f7ca                mesh_config_backend_file_power_down_time_get
 *fill*         0x0002f7ee        0x2 
 .text.lpn_fsm_action
                0x0002f7f0       0x10 examples/experimental_lpn/CMakeFiles/lpn_nrf52840_xxAA_s140_6.1.0.dir/__/__/mesh/core/src/lpn.c.obj
 .text.lpn_fsm_guard
                0x0002f800       0x10 examples/experimental_lpn/CMakeFiles/lpn_nrf52840_xxAA_s140_6.1.0.dir/__/__/mesh/core/src/lpn.c.obj
 .text.g_is_last_frndreq
                0x0002f810       0x1c examples/experimental_lpn/CMakeFiles/lpn_nrf52840_xxAA_s140_6.1.0.dir/__/__/mesh/core/src/lpn.c.obj
 .text.g_is_last_attempt
                0x0002f82c       0x1c examples/experimental_lpn/CMakeFiles/lpn_nrf52840_xxAA_s140_6.1.0.dir/__/__/mesh/core/src/lpn.c.obj
 .text.g_is_not_established
                0x0002f848       0x10 examples/experimental_lpn/CMakeFiles/lpn_nrf52840_xxAA_s140_6.1.0.dir/__/__/mesh/core/src/lpn.c.obj
 .text.g_is_no_more_data
                0x0002f858        0xe examples/experimental_lpn/CMakeFiles/lpn_nrf52840_xxAA_s140_6.1.0.dir/__/__/mesh/core/src/lpn.c.obj
 *fill*         0x0002f866        0x2 
 .text.g_is_subman_data
                0x0002f868       0x10 examples/experimental_lpn/CMakeFiles/lpn_nrf52840_xxAA_s140_6.1.0.dir/__/__/mesh/core/src/lpn.c.obj
 .text.g_is_offer_suitable
                0x0002f878        0xe examples/experimental_lpn/CMakeFiles/lpn_nrf52840_xxAA_s140_6.1.0.dir/__/__/mesh/core/src/lpn.c.obj
 *fill*         0x0002f886        0x2 
 .text.lpn_task_process
                0x0002f888       0x1c examples/experimental_lpn/CMakeFiles/lpn_nrf52840_xxAA_s140_6.1.0.dir/__/__/mesh/core/src/lpn.c.obj
 .text.a_offer_received_notify
                0x0002f8a4       0x54 examples/experimental_lpn/CMakeFiles/lpn_nrf52840_xxAA_s140_6.1.0.dir/__/__/mesh/core/src/lpn.c.obj
 .text.a_friend_search_finished_notify
                0x0002f8f8       0x16 examples/experimental_lpn/CMakeFiles/lpn_nrf52840_xxAA_s140_6.1.0.dir/__/__/mesh/core/src/lpn.c.obj
 *fill*         0x0002f90e        0x2 
 .text.friend_update_handle
                0x0002f910       0x64 examples/experimental_lpn/CMakeFiles/lpn_nrf52840_xxAA_s140_6.1.0.dir/__/__/mesh/core/src/lpn.c.obj
 .text.friend_offer_handle
                0x0002f974       0x1c examples/experimental_lpn/CMakeFiles/lpn_nrf52840_xxAA_s140_6.1.0.dir/__/__/mesh/core/src/lpn.c.obj
 .text.lpn_fault_task
                0x0002f990       0x10 examples/experimental_lpn/CMakeFiles/lpn_nrf52840_xxAA_s140_6.1.0.dir/__/__/mesh/core/src/lpn.c.obj
 .text.lpn_establish_task
                0x0002f9a0       0x10 examples/experimental_lpn/CMakeFiles/lpn_nrf52840_xxAA_s140_6.1.0.dir/__/__/mesh/core/src/lpn.c.obj
 .text.lpn_offer_accept_task
                0x0002f9b0       0x10 examples/experimental_lpn/CMakeFiles/lpn_nrf52840_xxAA_s140_6.1.0.dir/__/__/mesh/core/src/lpn.c.obj
 .text.lpn_poll_task
                0x0002f9c0       0x2c examples/experimental_lpn/CMakeFiles/lpn_nrf52840_xxAA_s140_6.1.0.dir/__/__/mesh/core/src/lpn.c.obj
 .text.termination_evt_prepare
                0x0002f9ec       0x30 examples/experimental_lpn/CMakeFiles/lpn_nrf52840_xxAA_s140_6.1.0.dir/__/__/mesh/core/src/lpn.c.obj
 .text.a_fault_notify
                0x0002fa1c       0x18 examples/experimental_lpn/CMakeFiles/lpn_nrf52840_xxAA_s140_6.1.0.dir/__/__/mesh/core/src/lpn.c.obj
 .text.a_polling_terminated_notify
                0x0002fa34       0x2c examples/experimental_lpn/CMakeFiles/lpn_nrf52840_xxAA_s140_6.1.0.dir/__/__/mesh/core/src/lpn.c.obj
 .text.a_poll_schedule
                0x0002fa60       0x30 examples/experimental_lpn/CMakeFiles/lpn_nrf52840_xxAA_s140_6.1.0.dir/__/__/mesh/core/src/lpn.c.obj
 .text.timeout_handle
                0x0002fa90       0x18 examples/experimental_lpn/CMakeFiles/lpn_nrf52840_xxAA_s140_6.1.0.dir/__/__/mesh/core/src/lpn.c.obj
 .text.lpn_fault_task_post
                0x0002faa8       0x14 examples/experimental_lpn/CMakeFiles/lpn_nrf52840_xxAA_s140_6.1.0.dir/__/__/mesh/core/src/lpn.c.obj
 .text.a_friend_clear_send
                0x0002fabc       0x8c examples/experimental_lpn/CMakeFiles/lpn_nrf52840_xxAA_s140_6.1.0.dir/__/__/mesh/core/src/lpn.c.obj
 .text.transmit_and_reschedule
                0x0002fb48       0xc0 examples/experimental_lpn/CMakeFiles/lpn_nrf52840_xxAA_s140_6.1.0.dir/__/__/mesh/core/src/lpn.c.obj
 .text.a_subman_data_send
                0x0002fc08       0x60 examples/experimental_lpn/CMakeFiles/lpn_nrf52840_xxAA_s140_6.1.0.dir/__/__/mesh/core/src/lpn.c.obj
 .text.receive_delay_handle
                0x0002fc68       0x28 examples/experimental_lpn/CMakeFiles/lpn_nrf52840_xxAA_s140_6.1.0.dir/__/__/mesh/core/src/lpn.c.obj
 .text.lpn_terminate_task
                0x0002fc90       0x30 examples/experimental_lpn/CMakeFiles/lpn_nrf52840_xxAA_s140_6.1.0.dir/__/__/mesh/core/src/lpn.c.obj
 .text.a_friend_request_send
                0x0002fcc0       0xe4 examples/experimental_lpn/CMakeFiles/lpn_nrf52840_xxAA_s140_6.1.0.dir/__/__/mesh/core/src/lpn.c.obj
 .text.a_friend_poll_send
                0x0002fda4       0x7c examples/experimental_lpn/CMakeFiles/lpn_nrf52840_xxAA_s140_6.1.0.dir/__/__/mesh/core/src/lpn.c.obj
 .text.mesh_lpn_init
                0x0002fe20       0x44 examples/experimental_lpn/CMakeFiles/lpn_nrf52840_xxAA_s140_6.1.0.dir/__/__/mesh/core/src/lpn.c.obj
                0x0002fe20                mesh_lpn_init
 .text.mesh_lpn_friend_request
                0x0002fe64       0xa0 examples/experimental_lpn/CMakeFiles/lpn_nrf52840_xxAA_s140_6.1.0.dir/__/__/mesh/core/src/lpn.c.obj
                0x0002fe64                mesh_lpn_friend_request
 .text.mesh_lpn_friend_accept
                0x0002ff04       0x90 examples/experimental_lpn/CMakeFiles/lpn_nrf52840_xxAA_s140_6.1.0.dir/__/__/mesh/core/src/lpn.c.obj
                0x0002ff04                mesh_lpn_friend_accept
 .text.mesh_lpn_friend_poll
                0x0002ff94       0x30 examples/experimental_lpn/CMakeFiles/lpn_nrf52840_xxAA_s140_6.1.0.dir/__/__/mesh/core/src/lpn.c.obj
                0x0002ff94                mesh_lpn_friend_poll
 .text.a_polling_finished_notify
                0x0002ffc4       0x2c examples/experimental_lpn/CMakeFiles/lpn_nrf52840_xxAA_s140_6.1.0.dir/__/__/mesh/core/src/lpn.c.obj
 .text.a_friendship_established_notify
                0x0002fff0       0x3c examples/experimental_lpn/CMakeFiles/lpn_nrf52840_xxAA_s140_6.1.0.dir/__/__/mesh/core/src/lpn.c.obj
 .text.mesh_lpn_friendship_terminate
                0x0003002c       0x24 examples/experimental_lpn/CMakeFiles/lpn_nrf52840_xxAA_s140_6.1.0.dir/__/__/mesh/core/src/lpn.c.obj
                0x0003002c                mesh_lpn_friendship_terminate
 .text.mesh_lpn_is_in_friendship
                0x00030050        0xc examples/experimental_lpn/CMakeFiles/lpn_nrf52840_xxAA_s140_6.1.0.dir/__/__/mesh/core/src/lpn.c.obj
                0x00030050                mesh_lpn_is_in_friendship
 .text.mesh_lpn_rx_notify
                0x0003005c       0x58 examples/experimental_lpn/CMakeFiles/lpn_nrf52840_xxAA_s140_6.1.0.dir/__/__/mesh/core/src/lpn.c.obj
                0x0003005c                mesh_lpn_rx_notify
 .text.mesh_lpn_subman_data_push
                0x000300b4       0x34 examples/experimental_lpn/CMakeFiles/lpn_nrf52840_xxAA_s140_6.1.0.dir/__/__/mesh/core/src/lpn.c.obj
                0x000300b4                mesh_lpn_subman_data_push
 .text.mesh_lpn_subman_data_clear
                0x000300e8        0xc examples/experimental_lpn/CMakeFiles/lpn_nrf52840_xxAA_s140_6.1.0.dir/__/__/mesh/core/src/lpn.c.obj
                0x000300e8                mesh_lpn_subman_data_clear
 .text.packet_discard
                0x000300f4       0x1c examples/experimental_lpn/CMakeFiles/lpn_nrf52840_xxAA_s140_6.1.0.dir/__/__/mesh/core/src/core_tx_lpn.c.obj
 .text.tx_complete_process
                0x00030110       0x30 examples/experimental_lpn/CMakeFiles/lpn_nrf52840_xxAA_s140_6.1.0.dir/__/__/mesh/core/src/core_tx_lpn.c.obj
 .text.packet_alloc
                0x00030140       0x28 examples/experimental_lpn/CMakeFiles/lpn_nrf52840_xxAA_s140_6.1.0.dir/__/__/mesh/core/src/core_tx_lpn.c.obj
 .text.packet_send
                0x00030168       0x64 examples/experimental_lpn/CMakeFiles/lpn_nrf52840_xxAA_s140_6.1.0.dir/__/__/mesh/core/src/core_tx_lpn.c.obj
 .text.tx_complete_cb
                0x000301cc       0x20 examples/experimental_lpn/CMakeFiles/lpn_nrf52840_xxAA_s140_6.1.0.dir/__/__/mesh/core/src/core_tx_lpn.c.obj
 .text.core_tx_lpn_init
                0x000301ec       0x98 examples/experimental_lpn/CMakeFiles/lpn_nrf52840_xxAA_s140_6.1.0.dir/__/__/mesh/core/src/core_tx_lpn.c.obj
                0x000301ec                core_tx_lpn_init
 .text.subman_next_pdu_create
                0x00030284       0x98 examples/experimental_lpn/CMakeFiles/lpn_nrf52840_xxAA_s140_6.1.0.dir/__/__/mesh/core/src/mesh_lpn_subman.c.obj
 .text.pdu_send_if_not_sending_but_established
                0x0003031c       0x34 examples/experimental_lpn/CMakeFiles/lpn_nrf52840_xxAA_s140_6.1.0.dir/__/__/mesh/core/src/mesh_lpn_subman.c.obj
 .text.subman_lpn_event_handler
                0x00030350       0x70 examples/experimental_lpn/CMakeFiles/lpn_nrf52840_xxAA_s140_6.1.0.dir/__/__/mesh/core/src/mesh_lpn_subman.c.obj
 .text.subman_friend_subscription_confirm_handle
                0x000303c0       0xf0 examples/experimental_lpn/CMakeFiles/lpn_nrf52840_xxAA_s140_6.1.0.dir/__/__/mesh/core/src/mesh_lpn_subman.c.obj
 .text.mesh_lpn_subman_add
                0x000304b0       0x74 examples/experimental_lpn/CMakeFiles/lpn_nrf52840_xxAA_s140_6.1.0.dir/__/__/mesh/core/src/mesh_lpn_subman.c.obj
                0x000304b0                mesh_lpn_subman_add
 .text.mesh_lpn_subman_remove
                0x00030524       0x4c examples/experimental_lpn/CMakeFiles/lpn_nrf52840_xxAA_s140_6.1.0.dir/__/__/mesh/core/src/mesh_lpn_subman.c.obj
                0x00030524                mesh_lpn_subman_remove
 .text.mesh_lpn_subman_init
                0x00030570       0x48 examples/experimental_lpn/CMakeFiles/lpn_nrf52840_xxAA_s140_6.1.0.dir/__/__/mesh/core/src/mesh_lpn_subman.c.obj
                0x00030570                mesh_lpn_subman_init
 .text.core_tx_set
                0x000305b8       0xb0 examples/experimental_lpn/CMakeFiles/lpn_nrf52840_xxAA_s140_6.1.0.dir/__/__/mesh/core/src/core_tx_adv.c.obj
 .text.packet_discard
                0x00030668       0x40 examples/experimental_lpn/CMakeFiles/lpn_nrf52840_xxAA_s140_6.1.0.dir/__/__/mesh/core/src/core_tx_adv.c.obj
 .text.packet_send
                0x000306a8       0x58 examples/experimental_lpn/CMakeFiles/lpn_nrf52840_xxAA_s140_6.1.0.dir/__/__/mesh/core/src/core_tx_adv.c.obj
 .text.packet_alloc
                0x00030700       0x58 examples/experimental_lpn/CMakeFiles/lpn_nrf52840_xxAA_s140_6.1.0.dir/__/__/mesh/core/src/core_tx_adv.c.obj
 .text.adv_tx_complete_callback
                0x00030758       0x20 examples/experimental_lpn/CMakeFiles/lpn_nrf52840_xxAA_s140_6.1.0.dir/__/__/mesh/core/src/core_tx_adv.c.obj
 .text.core_tx_get
                0x00030778       0x8c examples/experimental_lpn/CMakeFiles/lpn_nrf52840_xxAA_s140_6.1.0.dir/__/__/mesh/core/src/core_tx_adv.c.obj
 .text.mesh_opt_core_adv_set
                0x00030804       0x24 examples/experimental_lpn/CMakeFiles/lpn_nrf52840_xxAA_s140_6.1.0.dir/__/__/mesh/core/src/core_tx_adv.c.obj
                0x00030804                mesh_opt_core_adv_set
 .text.mesh_opt_core_adv_get
                0x00030828       0x24 examples/experimental_lpn/CMakeFiles/lpn_nrf52840_xxAA_s140_6.1.0.dir/__/__/mesh/core/src/core_tx_adv.c.obj
                0x00030828                mesh_opt_core_adv_get
 .text.core_tx_adv_init
                0x0003084c       0x68 examples/experimental_lpn/CMakeFiles/lpn_nrf52840_xxAA_s140_6.1.0.dir/__/__/mesh/core/src/core_tx_adv.c.obj
                0x0003084c                core_tx_adv_init
 .text.core_tx_adv_is_enabled
                0x000308b4       0x20 examples/experimental_lpn/CMakeFiles/lpn_nrf52840_xxAA_s140_6.1.0.dir/__/__/mesh/core/src/core_tx_adv.c.obj
                0x000308b4                core_tx_adv_is_enabled
 .text.mesh_mem_init
                0x000308d4        0x2 examples/experimental_lpn/CMakeFiles/lpn_nrf52840_xxAA_s140_6.1.0.dir/__/__/mesh/core/src/mesh_mem_stdlib.c.obj
                0x000308d4                mesh_mem_init
 .text.mesh_mem_alloc
                0x000308d6        0x4 examples/experimental_lpn/CMakeFiles/lpn_nrf52840_xxAA_s140_6.1.0.dir/__/__/mesh/core/src/mesh_mem_stdlib.c.obj
                0x000308d6                mesh_mem_alloc
 .text.mesh_mem_free
                0x000308da        0x4 examples/experimental_lpn/CMakeFiles/lpn_nrf52840_xxAA_s140_6.1.0.dir/__/__/mesh/core/src/mesh_mem_stdlib.c.obj
                0x000308da                mesh_mem_free
 *fill*         0x000308de        0x2 
 .text.ad_listener_subscribe
                0x000308e0       0x5c examples/experimental_lpn/CMakeFiles/lpn_nrf52840_xxAA_s140_6.1.0.dir/__/__/mesh/bearer/src/ad_listener.c.obj
                0x000308e0                ad_listener_subscribe
 .text.ad_listener_process
                0x0003093c       0x64 examples/experimental_lpn/CMakeFiles/lpn_nrf52840_xxAA_s140_6.1.0.dir/__/__/mesh/bearer/src/ad_listener.c.obj
                0x0003093c                ad_listener_process
 .text.adtype_filter_handle
                0x000309a0       0x64 examples/experimental_lpn/CMakeFiles/lpn_nrf52840_xxAA_s140_6.1.0.dir/__/__/mesh/bearer/src/ad_type_filter.c.obj
 .text.bearer_adtype_filtering_set
                0x00030a04       0x1c examples/experimental_lpn/CMakeFiles/lpn_nrf52840_xxAA_s140_6.1.0.dir/__/__/mesh/bearer/src/ad_type_filter.c.obj
                0x00030a04                bearer_adtype_filtering_set
 .text.bearer_adtype_add
                0x00030a20       0x20 examples/experimental_lpn/CMakeFiles/lpn_nrf52840_xxAA_s140_6.1.0.dir/__/__/mesh/bearer/src/ad_type_filter.c.obj
                0x00030a20                bearer_adtype_add
 .text.bearer_adtype_mode_set
                0x00030a40       0x18 examples/experimental_lpn/CMakeFiles/lpn_nrf52840_xxAA_s140_6.1.0.dir/__/__/mesh/bearer/src/ad_type_filter.c.obj
                0x00030a40                bearer_adtype_mode_set
 .text.tx_complete_event_callback
                0x00030a58       0x28 examples/experimental_lpn/CMakeFiles/lpn_nrf52840_xxAA_s140_6.1.0.dir/__/__/mesh/bearer/src/advertiser.c.obj
 .text.set_gap_addr_type
                0x00030a80       0x26 examples/experimental_lpn/CMakeFiles/lpn_nrf52840_xxAA_s140_6.1.0.dir/__/__/mesh/bearer/src/advertiser.c.obj
 .text.broadcast_complete_cb
                0x00030aa6       0x46 examples/experimental_lpn/CMakeFiles/lpn_nrf52840_xxAA_s140_6.1.0.dir/__/__/mesh/bearer/src/advertiser.c.obj
 .text.schedule_first_time
                0x00030aec       0x28 examples/experimental_lpn/CMakeFiles/lpn_nrf52840_xxAA_s140_6.1.0.dir/__/__/mesh/bearer/src/advertiser.c.obj
 .text.timeout_event
                0x00030b14      0x10c examples/experimental_lpn/CMakeFiles/lpn_nrf52840_xxAA_s140_6.1.0.dir/__/__/mesh/bearer/src/advertiser.c.obj
 .text.advertiser_init
                0x00030c20        0xc examples/experimental_lpn/CMakeFiles/lpn_nrf52840_xxAA_s140_6.1.0.dir/__/__/mesh/bearer/src/advertiser.c.obj
                0x00030c20                advertiser_init
 .text.advertiser_enable
                0x00030c2c       0x2a examples/experimental_lpn/CMakeFiles/lpn_nrf52840_xxAA_s140_6.1.0.dir/__/__/mesh/bearer/src/advertiser.c.obj
                0x00030c2c                advertiser_enable
 .text.advertiser_disable
                0x00030c56        0xa examples/experimental_lpn/CMakeFiles/lpn_nrf52840_xxAA_s140_6.1.0.dir/__/__/mesh/bearer/src/advertiser.c.obj
                0x00030c56                advertiser_disable
 .text.advertiser_packet_alloc
                0x00030c60       0x76 examples/experimental_lpn/CMakeFiles/lpn_nrf52840_xxAA_s140_6.1.0.dir/__/__/mesh/bearer/src/advertiser.c.obj
                0x00030c60                advertiser_packet_alloc
 .text.advertiser_packet_send
                0x00030cd6       0x52 examples/experimental_lpn/CMakeFiles/lpn_nrf52840_xxAA_s140_6.1.0.dir/__/__/mesh/bearer/src/advertiser.c.obj
                0x00030cd6                advertiser_packet_send
 .text.advertiser_packet_discard
                0x00030d28       0x1e examples/experimental_lpn/CMakeFiles/lpn_nrf52840_xxAA_s140_6.1.0.dir/__/__/mesh/bearer/src/advertiser.c.obj
                0x00030d28                advertiser_packet_discard
 .text.advertiser_address_set
                0x00030d46       0x3c examples/experimental_lpn/CMakeFiles/lpn_nrf52840_xxAA_s140_6.1.0.dir/__/__/mesh/bearer/src/advertiser.c.obj
                0x00030d46                advertiser_address_set
 .text.advertiser_interval_set
                0x00030d82       0x40 examples/experimental_lpn/CMakeFiles/lpn_nrf52840_xxAA_s140_6.1.0.dir/__/__/mesh/bearer/src/advertiser.c.obj
                0x00030d82                advertiser_interval_set
 .text.advertiser_tx_power_set
                0x00030dc2       0x14 examples/experimental_lpn/CMakeFiles/lpn_nrf52840_xxAA_s140_6.1.0.dir/__/__/mesh/bearer/src/advertiser.c.obj
                0x00030dc2                advertiser_tx_power_set
 *fill*         0x00030dd6        0x2 
 .text.advertiser_address_default_get
                0x00030dd8       0x38 examples/experimental_lpn/CMakeFiles/lpn_nrf52840_xxAA_s140_6.1.0.dir/__/__/mesh/bearer/src/advertiser.c.obj
                0x00030dd8                advertiser_address_default_get
 .text.advertiser_instance_init
                0x00030e10       0xa4 examples/experimental_lpn/CMakeFiles/lpn_nrf52840_xxAA_s140_6.1.0.dir/__/__/mesh/bearer/src/advertiser.c.obj
                0x00030e10                advertiser_instance_init
 .text.notify_stop
                0x00030eb4       0x14 examples/experimental_lpn/CMakeFiles/lpn_nrf52840_xxAA_s140_6.1.0.dir/__/__/mesh/bearer/src/bearer_handler.c.obj
 .text.action_in_progress
                0x00030ec8       0x30 examples/experimental_lpn/CMakeFiles/lpn_nrf52840_xxAA_s140_6.1.0.dir/__/__/mesh/bearer/src/bearer_handler.c.obj
 .text.action_timer_start
                0x00030ef8       0x88 examples/experimental_lpn/CMakeFiles/lpn_nrf52840_xxAA_s140_6.1.0.dir/__/__/mesh/bearer/src/bearer_handler.c.obj
 .text.action_switch
                0x00030f80      0x104 examples/experimental_lpn/CMakeFiles/lpn_nrf52840_xxAA_s140_6.1.0.dir/__/__/mesh/bearer/src/bearer_handler.c.obj
 .text.end_handle
                0x00031084       0x44 examples/experimental_lpn/CMakeFiles/lpn_nrf52840_xxAA_s140_6.1.0.dir/__/__/mesh/bearer/src/bearer_handler.c.obj
 .text.TIMER2_IRQHandler
                0x000310c8       0x58 examples/experimental_lpn/CMakeFiles/lpn_nrf52840_xxAA_s140_6.1.0.dir/__/__/mesh/bearer/src/bearer_handler.c.obj
                0x000310c8                TIMER2_IRQHandler
 .text.bearer_handler_init
                0x00031120       0x44 examples/experimental_lpn/CMakeFiles/lpn_nrf52840_xxAA_s140_6.1.0.dir/__/__/mesh/bearer/src/bearer_handler.c.obj
                0x00031120                bearer_handler_init
 .text.bearer_handler_stop
                0x00031164       0x38 examples/experimental_lpn/CMakeFiles/lpn_nrf52840_xxAA_s140_6.1.0.dir/__/__/mesh/bearer/src/bearer_handler.c.obj
                0x00031164                bearer_handler_stop
 .text.bearer_handler_wake_up
                0x0003119c       0x2c examples/experimental_lpn/CMakeFiles/lpn_nrf52840_xxAA_s140_6.1.0.dir/__/__/mesh/bearer/src/bearer_handler.c.obj
                0x0003119c                bearer_handler_wake_up
 .text.bearer_handler_start
                0x000311c8       0x1c examples/experimental_lpn/CMakeFiles/lpn_nrf52840_xxAA_s140_6.1.0.dir/__/__/mesh/bearer/src/bearer_handler.c.obj
                0x000311c8                bearer_handler_start
 .text.bearer_handler_action_enqueue
                0x000311e4       0x6c examples/experimental_lpn/CMakeFiles/lpn_nrf52840_xxAA_s140_6.1.0.dir/__/__/mesh/bearer/src/bearer_handler.c.obj
                0x000311e4                bearer_handler_action_enqueue
 .text.bearer_handler_action_end
                0x00031250       0x48 examples/experimental_lpn/CMakeFiles/lpn_nrf52840_xxAA_s140_6.1.0.dir/__/__/mesh/bearer/src/bearer_handler.c.obj
                0x00031250                bearer_handler_action_end
 .text.bearer_handler_radio_irq_handler
                0x00031298       0x70 examples/experimental_lpn/CMakeFiles/lpn_nrf52840_xxAA_s140_6.1.0.dir/__/__/mesh/bearer/src/bearer_handler.c.obj
                0x00031298                bearer_handler_radio_irq_handler
 .text.bearer_handler_timer_irq_handler
                0x00031308       0x24 examples/experimental_lpn/CMakeFiles/lpn_nrf52840_xxAA_s140_6.1.0.dir/__/__/mesh/bearer/src/bearer_handler.c.obj
                0x00031308                bearer_handler_timer_irq_handler
 .text.bearer_handler_on_ts_begin
                0x0003132c       0x38 examples/experimental_lpn/CMakeFiles/lpn_nrf52840_xxAA_s140_6.1.0.dir/__/__/mesh/bearer/src/bearer_handler.c.obj
                0x0003132c                bearer_handler_on_ts_begin
 .text.bearer_handler_on_ts_end
                0x00031364       0x70 examples/experimental_lpn/CMakeFiles/lpn_nrf52840_xxAA_s140_6.1.0.dir/__/__/mesh/bearer/src/bearer_handler.c.obj
                0x00031364                bearer_handler_on_ts_end
 .text.bearer_handler_on_ts_session_closed
                0x000313d4       0x10 examples/experimental_lpn/CMakeFiles/lpn_nrf52840_xxAA_s140_6.1.0.dir/__/__/mesh/bearer/src/bearer_handler.c.obj
                0x000313d4                bearer_handler_on_ts_session_closed
 .text.broadcast_start
                0x000313e4       0xb4 examples/experimental_lpn/CMakeFiles/lpn_nrf52840_xxAA_s140_6.1.0.dir/__/__/mesh/bearer/src/broadcast.c.obj
 .text.radio_irq_handler
                0x00031498       0xa4 examples/experimental_lpn/CMakeFiles/lpn_nrf52840_xxAA_s140_6.1.0.dir/__/__/mesh/bearer/src/broadcast.c.obj
 .text.broadcast_send
                0x0003153c       0x6c examples/experimental_lpn/CMakeFiles/lpn_nrf52840_xxAA_s140_6.1.0.dir/__/__/mesh/bearer/src/broadcast.c.obj
                0x0003153c                broadcast_send
 .text.fen_filter_start
                0x000315a8       0x28 examples/experimental_lpn/CMakeFiles/lpn_nrf52840_xxAA_s140_6.1.0.dir/__/__/mesh/bearer/src/filter_engine.c.obj
                0x000315a8                fen_filter_start
 .text.fen_filter_stop
                0x000315d0       0x20 examples/experimental_lpn/CMakeFiles/lpn_nrf52840_xxAA_s140_6.1.0.dir/__/__/mesh/bearer/src/filter_engine.c.obj
                0x000315d0                fen_filter_stop
 .text.fen_filters_apply
                0x000315f0       0x34 examples/experimental_lpn/CMakeFiles/lpn_nrf52840_xxAA_s140_6.1.0.dir/__/__/mesh/bearer/src/filter_engine.c.obj
                0x000315f0                fen_filters_apply
 .text.radio_config_reset
                0x00031624       0x40 examples/experimental_lpn/CMakeFiles/lpn_nrf52840_xxAA_s140_6.1.0.dir/__/__/mesh/bearer/src/radio_config.c.obj
                0x00031624                radio_config_reset
 .text.radio_config_channel_set
                0x00031664       0x28 examples/experimental_lpn/CMakeFiles/lpn_nrf52840_xxAA_s140_6.1.0.dir/__/__/mesh/bearer/src/radio_config.c.obj
                0x00031664                radio_config_channel_set
 .text.radio_config_config
                0x0003168c       0x90 examples/experimental_lpn/CMakeFiles/lpn_nrf52840_xxAA_s140_6.1.0.dir/__/__/mesh/bearer/src/radio_config.c.obj
                0x0003168c                radio_config_config
 .text.radio_config_access_addr_set
                0x0003171c       0x50 examples/experimental_lpn/CMakeFiles/lpn_nrf52840_xxAA_s140_6.1.0.dir/__/__/mesh/bearer/src/radio_config.c.obj
                0x0003171c                radio_config_access_addr_set
 .text.radio_trigger
                0x0003176c       0x24 examples/experimental_lpn/CMakeFiles/lpn_nrf52840_xxAA_s140_6.1.0.dir/__/__/mesh/bearer/src/scanner.c.obj
 .text.scan_window_end
                0x00031790       0x10 examples/experimental_lpn/CMakeFiles/lpn_nrf52840_xxAA_s140_6.1.0.dir/__/__/mesh/bearer/src/scanner.c.obj
 .text.scan_window_start
                0x000317a0       0x24 examples/experimental_lpn/CMakeFiles/lpn_nrf52840_xxAA_s140_6.1.0.dir/__/__/mesh/bearer/src/scanner.c.obj
 .text.radio_configure
                0x000317c4       0x78 examples/experimental_lpn/CMakeFiles/lpn_nrf52840_xxAA_s140_6.1.0.dir/__/__/mesh/bearer/src/scanner.c.obj
 .text.radio_set_packet
                0x0003183c       0x4c examples/experimental_lpn/CMakeFiles/lpn_nrf52840_xxAA_s140_6.1.0.dir/__/__/mesh/bearer/src/scanner.c.obj
 .text.radio_start
                0x00031888       0x78 examples/experimental_lpn/CMakeFiles/lpn_nrf52840_xxAA_s140_6.1.0.dir/__/__/mesh/bearer/src/scanner.c.obj
 .text.radio_stop
                0x00031900       0x38 examples/experimental_lpn/CMakeFiles/lpn_nrf52840_xxAA_s140_6.1.0.dir/__/__/mesh/bearer/src/scanner.c.obj
 .text.schedule_timers
                0x00031938       0x38 examples/experimental_lpn/CMakeFiles/lpn_nrf52840_xxAA_s140_6.1.0.dir/__/__/mesh/bearer/src/scanner.c.obj
 .text.scanner_radio_start
                0x00031970       0x28 examples/experimental_lpn/CMakeFiles/lpn_nrf52840_xxAA_s140_6.1.0.dir/__/__/mesh/bearer/src/scanner.c.obj
                0x00031970                scanner_radio_start
 .text.scanner_radio_stop
                0x00031998       0x10 examples/experimental_lpn/CMakeFiles/lpn_nrf52840_xxAA_s140_6.1.0.dir/__/__/mesh/bearer/src/scanner.c.obj
                0x00031998                scanner_radio_stop
 .text.scanner_radio_irq_handler
                0x000319a8      0x13c examples/experimental_lpn/CMakeFiles/lpn_nrf52840_xxAA_s140_6.1.0.dir/__/__/mesh/bearer/src/scanner.c.obj
                0x000319a8                scanner_radio_irq_handler
 .text.scanner_timer_irq_handler
                0x00031ae4       0x30 examples/experimental_lpn/CMakeFiles/lpn_nrf52840_xxAA_s140_6.1.0.dir/__/__/mesh/bearer/src/scanner.c.obj
                0x00031ae4                scanner_timer_irq_handler
 .text.scanner_enable
                0x00031b14       0x2c examples/experimental_lpn/CMakeFiles/lpn_nrf52840_xxAA_s140_6.1.0.dir/__/__/mesh/bearer/src/scanner.c.obj
                0x00031b14                scanner_enable
 .text.scanner_disable
                0x00031b40       0x3c examples/experimental_lpn/CMakeFiles/lpn_nrf52840_xxAA_s140_6.1.0.dir/__/__/mesh/bearer/src/scanner.c.obj
                0x00031b40                scanner_disable
 .text.scanner_is_enabled
                0x00031b7c       0x10 examples/experimental_lpn/CMakeFiles/lpn_nrf52840_xxAA_s140_6.1.0.dir/__/__/mesh/bearer/src/scanner.c.obj
                0x00031b7c                scanner_is_enabled
 .text.scanner_packet_release
                0x00031b8c       0x2c examples/experimental_lpn/CMakeFiles/lpn_nrf52840_xxAA_s140_6.1.0.dir/__/__/mesh/bearer/src/scanner.c.obj
                0x00031b8c                scanner_packet_release
 .text.scanner_rx
                0x00031bb8       0x30 examples/experimental_lpn/CMakeFiles/lpn_nrf52840_xxAA_s140_6.1.0.dir/__/__/mesh/bearer/src/scanner.c.obj
                0x00031bb8                scanner_rx
 .text.scanner_rx_pending
                0x00031be8        0xc examples/experimental_lpn/CMakeFiles/lpn_nrf52840_xxAA_s140_6.1.0.dir/__/__/mesh/bearer/src/scanner.c.obj
                0x00031be8                scanner_rx_pending
 .text.scanner_config_scan_time_set
                0x00031bf4       0x4c examples/experimental_lpn/CMakeFiles/lpn_nrf52840_xxAA_s140_6.1.0.dir/__/__/mesh/bearer/src/scanner.c.obj
                0x00031bf4                scanner_config_scan_time_set
 .text.scanner_config_channels_set
                0x00031c40       0x50 examples/experimental_lpn/CMakeFiles/lpn_nrf52840_xxAA_s140_6.1.0.dir/__/__/mesh/bearer/src/scanner.c.obj
                0x00031c40                scanner_config_channels_set
 .text.scanner_config_access_addresses_set
                0x00031c90       0x38 examples/experimental_lpn/CMakeFiles/lpn_nrf52840_xxAA_s140_6.1.0.dir/__/__/mesh/bearer/src/scanner.c.obj
                0x00031c90                scanner_config_access_addresses_set
 .text.scanner_config_reset
                0x00031cc8       0x50 examples/experimental_lpn/CMakeFiles/lpn_nrf52840_xxAA_s140_6.1.0.dir/__/__/mesh/bearer/src/scanner.c.obj
                0x00031cc8                scanner_config_reset
 .text.scanner_init
                0x00031d18       0x54 examples/experimental_lpn/CMakeFiles/lpn_nrf52840_xxAA_s140_6.1.0.dir/__/__/mesh/bearer/src/scanner.c.obj
                0x00031d18                scanner_init
 .text.pin_clear
                0x00031d6c       0x26 examples/experimental_lpn/CMakeFiles/lpn_nrf52840_xxAA_s140_6.1.0.dir/__/__/mesh/bearer/src/mesh_pa_lna.c.obj
 *fill*         0x00031d92        0x2 
 .text.ppi_setup.isra.0
                0x00031d94       0x3c examples/experimental_lpn/CMakeFiles/lpn_nrf52840_xxAA_s140_6.1.0.dir/__/__/mesh/bearer/src/mesh_pa_lna.c.obj
 .text.mesh_pa_setup_start
                0x00031dd0       0x5c examples/experimental_lpn/CMakeFiles/lpn_nrf52840_xxAA_s140_6.1.0.dir/__/__/mesh/bearer/src/mesh_pa_lna.c.obj
                0x00031dd0                mesh_pa_setup_start
 .text.mesh_lna_setup_start
                0x00031e2c       0x5c examples/experimental_lpn/CMakeFiles/lpn_nrf52840_xxAA_s140_6.1.0.dir/__/__/mesh/bearer/src/mesh_pa_lna.c.obj
                0x00031e2c                mesh_lna_setup_start
 .text.mesh_pa_lna_disable_start
                0x00031e88       0x1c examples/experimental_lpn/CMakeFiles/lpn_nrf52840_xxAA_s140_6.1.0.dir/__/__/mesh/bearer/src/mesh_pa_lna.c.obj
                0x00031e88                mesh_pa_lna_disable_start
 .text.mesh_pa_lna_setup_stop
                0x00031ea4       0x4c examples/experimental_lpn/CMakeFiles/lpn_nrf52840_xxAA_s140_6.1.0.dir/__/__/mesh/bearer/src/mesh_pa_lna.c.obj
                0x00031ea4                mesh_pa_lna_setup_stop
 .text.mesh_pa_lna_cleanup
                0x00031ef0       0x48 examples/experimental_lpn/CMakeFiles/lpn_nrf52840_xxAA_s140_6.1.0.dir/__/__/mesh/bearer/src/mesh_pa_lna.c.obj
                0x00031ef0                mesh_pa_lna_cleanup
 .text.sd_ble_gap_disconnect
                0x00031f38        0x4 examples/experimental_lpn/CMakeFiles/lpn_nrf52840_xxAA_s140_6.1.0.dir/__/__/mesh/gatt/src/mesh_gatt.c.obj
 .text.sd_ble_gap_sec_params_reply
                0x00031f3c        0x4 examples/experimental_lpn/CMakeFiles/lpn_nrf52840_xxAA_s140_6.1.0.dir/__/__/mesh/gatt/src/mesh_gatt.c.obj
 .text.sd_ble_gap_phy_update
                0x00031f40        0x4 examples/experimental_lpn/CMakeFiles/lpn_nrf52840_xxAA_s140_6.1.0.dir/__/__/mesh/gatt/src/mesh_gatt.c.obj
 .text.sd_ble_gap_data_length_update
                0x00031f44        0x4 examples/experimental_lpn/CMakeFiles/lpn_nrf52840_xxAA_s140_6.1.0.dir/__/__/mesh/gatt/src/mesh_gatt.c.obj
 .text.sd_ble_gatts_service_add
                0x00031f48        0x4 examples/experimental_lpn/CMakeFiles/lpn_nrf52840_xxAA_s140_6.1.0.dir/__/__/mesh/gatt/src/mesh_gatt.c.obj
 .text.sd_ble_gatts_characteristic_add
                0x00031f4c        0x4 examples/experimental_lpn/CMakeFiles/lpn_nrf52840_xxAA_s140_6.1.0.dir/__/__/mesh/gatt/src/mesh_gatt.c.obj
 .text.sd_ble_gatts_hvx
                0x00031f50        0x4 examples/experimental_lpn/CMakeFiles/lpn_nrf52840_xxAA_s140_6.1.0.dir/__/__/mesh/gatt/src/mesh_gatt.c.obj
 .text.sd_ble_gatts_sys_attr_set
                0x00031f54        0x4 examples/experimental_lpn/CMakeFiles/lpn_nrf52840_xxAA_s140_6.1.0.dir/__/__/mesh/gatt/src/mesh_gatt.c.obj
 .text.sd_ble_gatts_exchange_mtu_reply
                0x00031f58        0x4 examples/experimental_lpn/CMakeFiles/lpn_nrf52840_xxAA_s140_6.1.0.dir/__/__/mesh/gatt/src/mesh_gatt.c.obj
 .text.conn_handle_to_index
                0x00031f5c       0x14 examples/experimental_lpn/CMakeFiles/lpn_nrf52840_xxAA_s140_6.1.0.dir/__/__/mesh/gatt/src/mesh_gatt.c.obj
 .text.timeout_cb
                0x00031f70       0x1c examples/experimental_lpn/CMakeFiles/lpn_nrf52840_xxAA_s140_6.1.0.dir/__/__/mesh/gatt/src/mesh_gatt.c.obj
 .text.mesh_gatt_init
                0x00031f8c      0x154 examples/experimental_lpn/CMakeFiles/lpn_nrf52840_xxAA_s140_6.1.0.dir/__/__/mesh/gatt/src/mesh_gatt.c.obj
                0x00031f8c                mesh_gatt_init
 .text.mesh_gatt_packet_alloc
                0x000320e0       0x7c examples/experimental_lpn/CMakeFiles/lpn_nrf52840_xxAA_s140_6.1.0.dir/__/__/mesh/gatt/src/mesh_gatt.c.obj
                0x000320e0                mesh_gatt_packet_alloc
 .text.mesh_gatt_packet_discard
                0x0003215c       0x4c examples/experimental_lpn/CMakeFiles/lpn_nrf52840_xxAA_s140_6.1.0.dir/__/__/mesh/gatt/src/mesh_gatt.c.obj
                0x0003215c                mesh_gatt_packet_discard
 .text.mesh_gatt_disconnect
                0x000321a8       0x30 examples/experimental_lpn/CMakeFiles/lpn_nrf52840_xxAA_s140_6.1.0.dir/__/__/mesh/gatt/src/mesh_gatt.c.obj
                0x000321a8                mesh_gatt_disconnect
 .text.mesh_gatt_pdu_send
                0x000321d8      0x170 examples/experimental_lpn/CMakeFiles/lpn_nrf52840_xxAA_s140_6.1.0.dir/__/__/mesh/gatt/src/mesh_gatt.c.obj
 .text.mesh_gatt_packet_send
                0x00032348       0x8c examples/experimental_lpn/CMakeFiles/lpn_nrf52840_xxAA_s140_6.1.0.dir/__/__/mesh/gatt/src/mesh_gatt.c.obj
                0x00032348                mesh_gatt_packet_send
 .text.mesh_gatt_on_ble_evt
                0x000323d4      0x3f4 examples/experimental_lpn/CMakeFiles/lpn_nrf52840_xxAA_s140_6.1.0.dir/__/__/mesh/gatt/src/mesh_gatt.c.obj
                0x000323d4                mesh_gatt_on_ble_evt
 .text.active_connection_count
                0x000327c8        0xc examples/experimental_lpn/CMakeFiles/lpn_nrf52840_xxAA_s140_6.1.0.dir/__/__/mesh/gatt/src/proxy.c.obj
 .text.proxy_get
                0x000327d4       0x10 examples/experimental_lpn/CMakeFiles/lpn_nrf52840_xxAA_s140_6.1.0.dir/__/__/mesh/gatt/src/proxy.c.obj
 .text.packet_discard
                0x000327e4       0x30 examples/experimental_lpn/CMakeFiles/lpn_nrf52840_xxAA_s140_6.1.0.dir/__/__/mesh/gatt/src/proxy.c.obj
 .text.core_tx_packet_discard_cb
                0x00032814       0x18 examples/experimental_lpn/CMakeFiles/lpn_nrf52840_xxAA_s140_6.1.0.dir/__/__/mesh/gatt/src/proxy.c.obj
 .text.packet_send
                0x0003282c       0x3c examples/experimental_lpn/CMakeFiles/lpn_nrf52840_xxAA_s140_6.1.0.dir/__/__/mesh/gatt/src/proxy.c.obj
 .text.core_tx_packet_send_cb
                0x00032868       0x38 examples/experimental_lpn/CMakeFiles/lpn_nrf52840_xxAA_s140_6.1.0.dir/__/__/mesh/gatt/src/proxy.c.obj
 .text.packet_alloc
                0x000328a0       0x44 examples/experimental_lpn/CMakeFiles/lpn_nrf52840_xxAA_s140_6.1.0.dir/__/__/mesh/gatt/src/proxy.c.obj
 .text.core_tx_packet_alloc_cb
                0x000328e4       0x40 examples/experimental_lpn/CMakeFiles/lpn_nrf52840_xxAA_s140_6.1.0.dir/__/__/mesh/gatt/src/proxy.c.obj
 .text.adv_data_set
                0x00032924       0xa4 examples/experimental_lpn/CMakeFiles/lpn_nrf52840_xxAA_s140_6.1.0.dir/__/__/mesh/gatt/src/proxy.c.obj
 .text.on_adv_end
                0x000329c8       0x14 examples/experimental_lpn/CMakeFiles/lpn_nrf52840_xxAA_s140_6.1.0.dir/__/__/mesh/gatt/src/proxy.c.obj
 .text.adv_net_iterate
                0x000329dc       0x34 examples/experimental_lpn/CMakeFiles/lpn_nrf52840_xxAA_s140_6.1.0.dir/__/__/mesh/gatt/src/proxy.c.obj
 .text.adv_timer_handler
                0x00032a10        0xe examples/experimental_lpn/CMakeFiles/lpn_nrf52840_xxAA_s140_6.1.0.dir/__/__/mesh/gatt/src/proxy.c.obj
 *fill*         0x00032a1e        0x2 
 .text.adv_start
                0x00032a20       0x5c examples/experimental_lpn/CMakeFiles/lpn_nrf52840_xxAA_s140_6.1.0.dir/__/__/mesh/gatt/src/proxy.c.obj
 .text.beacon_packet_send_to_all
                0x00032a7c       0x54 examples/experimental_lpn/CMakeFiles/lpn_nrf52840_xxAA_s140_6.1.0.dir/__/__/mesh/gatt/src/proxy.c.obj
 .text.mesh_evt_handle
                0x00032ad0       0x3c examples/experimental_lpn/CMakeFiles/lpn_nrf52840_xxAA_s140_6.1.0.dir/__/__/mesh/gatt/src/proxy.c.obj
 .text.proxy_set
                0x00032b0c       0x3c examples/experimental_lpn/CMakeFiles/lpn_nrf52840_xxAA_s140_6.1.0.dir/__/__/mesh/gatt/src/proxy.c.obj
 .text.gatt_evt_handler
                0x00032b48      0x678 examples/experimental_lpn/CMakeFiles/lpn_nrf52840_xxAA_s140_6.1.0.dir/__/__/mesh/gatt/src/proxy.c.obj
 .text.proxy_init
                0x000331c0       0x84 examples/experimental_lpn/CMakeFiles/lpn_nrf52840_xxAA_s140_6.1.0.dir/__/__/mesh/gatt/src/proxy.c.obj
                0x000331c0                proxy_init
 .text.proxy_start
                0x00033244       0x28 examples/experimental_lpn/CMakeFiles/lpn_nrf52840_xxAA_s140_6.1.0.dir/__/__/mesh/gatt/src/proxy.c.obj
                0x00033244                proxy_start
 .text.proxy_subnet_added
                0x0003326c       0x58 examples/experimental_lpn/CMakeFiles/lpn_nrf52840_xxAA_s140_6.1.0.dir/__/__/mesh/gatt/src/proxy.c.obj
                0x0003326c                proxy_subnet_added
 .text.proxy_net_packet_processed
                0x000332c4       0x40 examples/experimental_lpn/CMakeFiles/lpn_nrf52840_xxAA_s140_6.1.0.dir/__/__/mesh/gatt/src/proxy.c.obj
                0x000332c4                proxy_net_packet_processed
 .text.proxy_node_id_is_enabled
                0x00033304       0x2c examples/experimental_lpn/CMakeFiles/lpn_nrf52840_xxAA_s140_6.1.0.dir/__/__/mesh/gatt/src/proxy.c.obj
                0x00033304                proxy_node_id_is_enabled
 .text.proxy_is_enabled
                0x00033330        0xc examples/experimental_lpn/CMakeFiles/lpn_nrf52840_xxAA_s140_6.1.0.dir/__/__/mesh/gatt/src/proxy.c.obj
                0x00033330                proxy_is_enabled
 .text.proxy_is_connected
                0x0003333c       0x18 examples/experimental_lpn/CMakeFiles/lpn_nrf52840_xxAA_s140_6.1.0.dir/__/__/mesh/gatt/src/proxy.c.obj
                0x0003333c                proxy_is_connected
 .text.proxy_disconnect
                0x00033354       0x1c examples/experimental_lpn/CMakeFiles/lpn_nrf52840_xxAA_s140_6.1.0.dir/__/__/mesh/gatt/src/proxy.c.obj
                0x00033354                proxy_disconnect
 .text.proxy_stop
                0x00033370       0x2c examples/experimental_lpn/CMakeFiles/lpn_nrf52840_xxAA_s140_6.1.0.dir/__/__/mesh/gatt/src/proxy.c.obj
                0x00033370                proxy_stop
 .text.proxy_node_id_enable
                0x0003339c       0x2c examples/experimental_lpn/CMakeFiles/lpn_nrf52840_xxAA_s140_6.1.0.dir/__/__/mesh/gatt/src/proxy.c.obj
                0x0003339c                proxy_node_id_enable
 .text.proxy_node_id_disable
                0x000333c8       0x30 examples/experimental_lpn/CMakeFiles/lpn_nrf52840_xxAA_s140_6.1.0.dir/__/__/mesh/gatt/src/proxy.c.obj
                0x000333c8                proxy_node_id_disable
 .text.mesh_opt_gatt_proxy_set
                0x000333f8       0x1c examples/experimental_lpn/CMakeFiles/lpn_nrf52840_xxAA_s140_6.1.0.dir/__/__/mesh/gatt/src/proxy.c.obj
                0x000333f8                mesh_opt_gatt_proxy_set
 .text.proxy_filter_clear
                0x00033414       0x18 examples/experimental_lpn/CMakeFiles/lpn_nrf52840_xxAA_s140_6.1.0.dir/__/__/mesh/gatt/src/proxy_filter.c.obj
                0x00033414                proxy_filter_clear
 .text.proxy_filter_type_set
                0x0003342c       0x24 examples/experimental_lpn/CMakeFiles/lpn_nrf52840_xxAA_s140_6.1.0.dir/__/__/mesh/gatt/src/proxy_filter.c.obj
                0x0003342c                proxy_filter_type_set
 .text.proxy_filter_add
                0x00033450       0x54 examples/experimental_lpn/CMakeFiles/lpn_nrf52840_xxAA_s140_6.1.0.dir/__/__/mesh/gatt/src/proxy_filter.c.obj
                0x00033450                proxy_filter_add
 .text.proxy_filter_remove
                0x000334a4       0x4e examples/experimental_lpn/CMakeFiles/lpn_nrf52840_xxAA_s140_6.1.0.dir/__/__/mesh/gatt/src/proxy_filter.c.obj
                0x000334a4                proxy_filter_remove
 .text.proxy_filter_accept
                0x000334f2       0x36 examples/experimental_lpn/CMakeFiles/lpn_nrf52840_xxAA_s140_6.1.0.dir/__/__/mesh/gatt/src/proxy_filter.c.obj
                0x000334f2                proxy_filter_accept
 .text.status_handle
                0x00033528       0x4a examples/experimental_lpn/CMakeFiles/lpn_nrf52840_xxAA_s140_6.1.0.dir/__/__/models/model_spec/generic_onoff/src/generic_onoff_client.c.obj
 *fill*         0x00033572        0x2 
 .text.generic_onoff_client_init
                0x00033574       0x60 examples/experimental_lpn/CMakeFiles/lpn_nrf52840_xxAA_s140_6.1.0.dir/__/__/models/model_spec/generic_onoff/src/generic_onoff_client.c.obj
                0x00033574                generic_onoff_client_init
 .text.generic_onoff_client_set_unack
                0x000335d4       0x9c examples/experimental_lpn/CMakeFiles/lpn_nrf52840_xxAA_s140_6.1.0.dir/__/__/models/model_spec/generic_onoff/src/generic_onoff_client.c.obj
                0x000335d4                generic_onoff_client_set_unack
 .text.model_transition_time_decode
                0x00033670       0x3c examples/experimental_lpn/CMakeFiles/lpn_nrf52840_xxAA_s140_6.1.0.dir/__/__/models/model_spec/common/src/model_common.c.obj
                0x00033670                model_transition_time_decode
 .text.model_transition_time_encode
                0x000336ac       0x60 examples/experimental_lpn/CMakeFiles/lpn_nrf52840_xxAA_s140_6.1.0.dir/__/__/models/model_spec/common/src/model_common.c.obj
                0x000336ac                model_transition_time_encode
 .text.model_delay_encode
                0x0003370c       0x10 examples/experimental_lpn/CMakeFiles/lpn_nrf52840_xxAA_s140_6.1.0.dir/__/__/models/model_spec/common/src/model_common.c.obj
                0x0003370c                model_delay_encode
 .text.config_composition_data_get
                0x0003371c      0x184 examples/experimental_lpn/CMakeFiles/lpn_nrf52840_xxAA_s140_6.1.0.dir/__/__/models/foundation/config/src/composition_data.c.obj
                0x0003371c                config_composition_data_get
 .text.app_evt_send
                0x000338a0       0x10 examples/experimental_lpn/CMakeFiles/lpn_nrf52840_xxAA_s140_6.1.0.dir/__/__/models/foundation/config/src/config_server.c.obj
 .text.get_element_index
                0x000338b0       0x2a examples/experimental_lpn/CMakeFiles/lpn_nrf52840_xxAA_s140_6.1.0.dir/__/__/models/foundation/config/src/config_server.c.obj
 .text.config_server_heartbeat_publication_params_get
                0x000338da       0x30 examples/experimental_lpn/CMakeFiles/lpn_nrf52840_xxAA_s140_6.1.0.dir/__/__/models/foundation/config/src/config_server.c.obj
 .text.send_reply
                0x0003390a       0x34 examples/experimental_lpn/CMakeFiles/lpn_nrf52840_xxAA_s140_6.1.0.dir/__/__/models/foundation/config/src/config_server.c.obj
 .text.send_network_transmit_status
                0x0003393e       0x5a examples/experimental_lpn/CMakeFiles/lpn_nrf52840_xxAA_s140_6.1.0.dir/__/__/models/foundation/config/src/config_server.c.obj
 .text.handle_config_network_transmit_set
                0x00033998       0x74 examples/experimental_lpn/CMakeFiles/lpn_nrf52840_xxAA_s140_6.1.0.dir/__/__/models/foundation/config/src/config_server.c.obj
 .text.handle_config_network_transmit_get
                0x00033a0c        0xa examples/experimental_lpn/CMakeFiles/lpn_nrf52840_xxAA_s140_6.1.0.dir/__/__/models/foundation/config/src/config_server.c.obj
 *fill*         0x00033a16        0x2 
 .text.handle_node_reset
                0x00033a18       0x34 examples/experimental_lpn/CMakeFiles/lpn_nrf52840_xxAA_s140_6.1.0.dir/__/__/models/foundation/config/src/config_server.c.obj
 .text.send_netkey_status
                0x00033a4c       0x2c examples/experimental_lpn/CMakeFiles/lpn_nrf52840_xxAA_s140_6.1.0.dir/__/__/models/foundation/config/src/config_server.c.obj
 .text.send_relay_status
                0x00033a78       0x7e examples/experimental_lpn/CMakeFiles/lpn_nrf52840_xxAA_s140_6.1.0.dir/__/__/models/foundation/config/src/config_server.c.obj
 .text.handle_config_relay_set
                0x00033af6       0x9a examples/experimental_lpn/CMakeFiles/lpn_nrf52840_xxAA_s140_6.1.0.dir/__/__/models/foundation/config/src/config_server.c.obj
 .text.handle_config_relay_get
                0x00033b90        0xa examples/experimental_lpn/CMakeFiles/lpn_nrf52840_xxAA_s140_6.1.0.dir/__/__/models/foundation/config/src/config_server.c.obj
 .text.send_subscription_status
                0x00033b9a       0x42 examples/experimental_lpn/CMakeFiles/lpn_nrf52840_xxAA_s140_6.1.0.dir/__/__/models/foundation/config/src/config_server.c.obj
 .text.send_appkey_status
                0x00033bdc       0x3a examples/experimental_lpn/CMakeFiles/lpn_nrf52840_xxAA_s140_6.1.0.dir/__/__/models/foundation/config/src/config_server.c.obj
 .text.handle_node_identity_set
                0x00033c16       0x98 examples/experimental_lpn/CMakeFiles/lpn_nrf52840_xxAA_s140_6.1.0.dir/__/__/models/foundation/config/src/config_server.c.obj
 .text.handle_netkey_delete
                0x00033cae       0xbc examples/experimental_lpn/CMakeFiles/lpn_nrf52840_xxAA_s140_6.1.0.dir/__/__/models/foundation/config/src/config_server.c.obj
 *fill*         0x00033d6a        0x2 
 .text.handle_netkey_add_update
                0x00033d6c       0x78 examples/experimental_lpn/CMakeFiles/lpn_nrf52840_xxAA_s140_6.1.0.dir/__/__/models/foundation/config/src/config_server.c.obj
 .text.status_error_sub_send
                0x00033de4      0x124 examples/experimental_lpn/CMakeFiles/lpn_nrf52840_xxAA_s140_6.1.0.dir/__/__/models/foundation/config/src/config_server.c.obj
 .text.delete_all_subscriptions
                0x00033f08       0x66 examples/experimental_lpn/CMakeFiles/lpn_nrf52840_xxAA_s140_6.1.0.dir/__/__/models/foundation/config/src/config_server.c.obj
 .text.send_publication_status
                0x00033f6e      0x186 examples/experimental_lpn/CMakeFiles/lpn_nrf52840_xxAA_s140_6.1.0.dir/__/__/models/foundation/config/src/config_server.c.obj
 .text.handle_config_key_refresh_phase_set
                0x000340f4       0xc8 examples/experimental_lpn/CMakeFiles/lpn_nrf52840_xxAA_s140_6.1.0.dir/__/__/models/foundation/config/src/config_server.c.obj
 .text.handle_config_default_ttl_set
                0x000341bc       0x50 examples/experimental_lpn/CMakeFiles/lpn_nrf52840_xxAA_s140_6.1.0.dir/__/__/models/foundation/config/src/config_server.c.obj
 .text.send_net_beacon_state
                0x0003420c       0x2c examples/experimental_lpn/CMakeFiles/lpn_nrf52840_xxAA_s140_6.1.0.dir/__/__/models/foundation/config/src/config_server.c.obj
 .text.handle_config_beacon_get
                0x00034238        0xa examples/experimental_lpn/CMakeFiles/lpn_nrf52840_xxAA_s140_6.1.0.dir/__/__/models/foundation/config/src/config_server.c.obj
 .text.handle_heartbeat_publication_set
                0x00034242      0x136 examples/experimental_lpn/CMakeFiles/lpn_nrf52840_xxAA_s140_6.1.0.dir/__/__/models/foundation/config/src/config_server.c.obj
 .text.apply_reset
                0x00034378       0x30 examples/experimental_lpn/CMakeFiles/lpn_nrf52840_xxAA_s140_6.1.0.dir/__/__/models/foundation/config/src/config_server.c.obj
 .text.mesh_event_cb
                0x000343a8       0x64 examples/experimental_lpn/CMakeFiles/lpn_nrf52840_xxAA_s140_6.1.0.dir/__/__/models/foundation/config/src/config_server.c.obj
 .text.handle_config_friend_get.part.7
                0x0003440c       0x2a examples/experimental_lpn/CMakeFiles/lpn_nrf52840_xxAA_s140_6.1.0.dir/__/__/models/foundation/config/src/config_server.c.obj
 .text.handle_config_friend_set
                0x00034436       0x14 examples/experimental_lpn/CMakeFiles/lpn_nrf52840_xxAA_s140_6.1.0.dir/__/__/models/foundation/config/src/config_server.c.obj
 .text.handle_config_friend_get
                0x0003444a        0xa examples/experimental_lpn/CMakeFiles/lpn_nrf52840_xxAA_s140_6.1.0.dir/__/__/models/foundation/config/src/config_server.c.obj
 .text.handle_config_gatt_proxy_get
                0x00034454       0x30 examples/experimental_lpn/CMakeFiles/lpn_nrf52840_xxAA_s140_6.1.0.dir/__/__/models/foundation/config/src/config_server.c.obj
 .text.handle_config_key_refresh_phase_get
                0x00034484       0x58 examples/experimental_lpn/CMakeFiles/lpn_nrf52840_xxAA_s140_6.1.0.dir/__/__/models/foundation/config/src/config_server.c.obj
 .text.handle_node_identity_get
                0x000344dc       0x64 examples/experimental_lpn/CMakeFiles/lpn_nrf52840_xxAA_s140_6.1.0.dir/__/__/models/foundation/config/src/config_server.c.obj
 .text.handle_netkey_get
                0x00034540       0x50 examples/experimental_lpn/CMakeFiles/lpn_nrf52840_xxAA_s140_6.1.0.dir/__/__/models/foundation/config/src/config_server.c.obj
 .text.handle_appkey_get
                0x00034590       0x82 examples/experimental_lpn/CMakeFiles/lpn_nrf52840_xxAA_s140_6.1.0.dir/__/__/models/foundation/config/src/config_server.c.obj
 .text.status_error_pub_send
                0x00034612       0x90 examples/experimental_lpn/CMakeFiles/lpn_nrf52840_xxAA_s140_6.1.0.dir/__/__/models/foundation/config/src/config_server.c.obj
 .text.handle_config_gatt_proxy_set
                0x000346a2       0x52 examples/experimental_lpn/CMakeFiles/lpn_nrf52840_xxAA_s140_6.1.0.dir/__/__/models/foundation/config/src/config_server.c.obj
 .text.handle_config_default_ttl_get
                0x000346f4       0x30 examples/experimental_lpn/CMakeFiles/lpn_nrf52840_xxAA_s140_6.1.0.dir/__/__/models/foundation/config/src/config_server.c.obj
 .text.handle_config_beacon_set
                0x00034724       0x42 examples/experimental_lpn/CMakeFiles/lpn_nrf52840_xxAA_s140_6.1.0.dir/__/__/models/foundation/config/src/config_server.c.obj
 .text.handle_composition_data_get
                0x00034766       0x50 examples/experimental_lpn/CMakeFiles/lpn_nrf52840_xxAA_s140_6.1.0.dir/__/__/models/foundation/config/src/config_server.c.obj
 *fill*         0x000347b6        0x2 
 .text.handle_appkey_add
                0x000347b8      0x140 examples/experimental_lpn/CMakeFiles/lpn_nrf52840_xxAA_s140_6.1.0.dir/__/__/models/foundation/config/src/config_server.c.obj
 .text.get_subscription_list.constprop.25
                0x000348f8       0x50 examples/experimental_lpn/CMakeFiles/lpn_nrf52840_xxAA_s140_6.1.0.dir/__/__/models/foundation/config/src/config_server.c.obj
 .text.heartbeat_subscription_count_encode
                0x00034948       0x26 examples/experimental_lpn/CMakeFiles/lpn_nrf52840_xxAA_s140_6.1.0.dir/__/__/models/foundation/config/src/config_server.c.obj
 .text.handle_appkey_update
                0x0003496e       0xbc examples/experimental_lpn/CMakeFiles/lpn_nrf52840_xxAA_s140_6.1.0.dir/__/__/models/foundation/config/src/config_server.c.obj
 .text.handle_appkey_delete
                0x00034a2a       0xc2 examples/experimental_lpn/CMakeFiles/lpn_nrf52840_xxAA_s140_6.1.0.dir/__/__/models/foundation/config/src/config_server.c.obj
 .text.heartbeat_pubsub_period_encode
                0x00034aec       0x26 examples/experimental_lpn/CMakeFiles/lpn_nrf52840_xxAA_s140_6.1.0.dir/__/__/models/foundation/config/src/config_server.c.obj
 .text.handle_heartbeat_publication_get
                0x00034b12       0x7e examples/experimental_lpn/CMakeFiles/lpn_nrf52840_xxAA_s140_6.1.0.dir/__/__/models/foundation/config/src/config_server.c.obj
 .text.handle_heartbeat_subscription_get
                0x00034b90       0x84 examples/experimental_lpn/CMakeFiles/lpn_nrf52840_xxAA_s140_6.1.0.dir/__/__/models/foundation/config/src/config_server.c.obj
 .text.handle_heartbeat_subscription_set
                0x00034c14       0xa8 examples/experimental_lpn/CMakeFiles/lpn_nrf52840_xxAA_s140_6.1.0.dir/__/__/models/foundation/config/src/config_server.c.obj
 .text.handle_config_model_publication_get
                0x00034cbc       0x94 examples/experimental_lpn/CMakeFiles/lpn_nrf52840_xxAA_s140_6.1.0.dir/__/__/models/foundation/config/src/config_server.c.obj
 .text.handle_config_model_subscription_delete_all
                0x00034d50       0xca examples/experimental_lpn/CMakeFiles/lpn_nrf52840_xxAA_s140_6.1.0.dir/__/__/models/foundation/config/src/config_server.c.obj
 .text.handle_config_model_subscription_virtual_address_delete
                0x00034e1a      0x110 examples/experimental_lpn/CMakeFiles/lpn_nrf52840_xxAA_s140_6.1.0.dir/__/__/models/foundation/config/src/config_server.c.obj
 .text.handle_config_model_subscription_virtual_address_add
                0x00034f2a      0x10e examples/experimental_lpn/CMakeFiles/lpn_nrf52840_xxAA_s140_6.1.0.dir/__/__/models/foundation/config/src/config_server.c.obj
 .text.handle_config_model_subscription_delete
                0x00035038      0x116 examples/experimental_lpn/CMakeFiles/lpn_nrf52840_xxAA_s140_6.1.0.dir/__/__/models/foundation/config/src/config_server.c.obj
 .text.handle_config_model_subscription_add
                0x0003514e      0x11a examples/experimental_lpn/CMakeFiles/lpn_nrf52840_xxAA_s140_6.1.0.dir/__/__/models/foundation/config/src/config_server.c.obj
 .text.handle_config_model_subscription_virtual_address_overwrite
                0x00035268      0x128 examples/experimental_lpn/CMakeFiles/lpn_nrf52840_xxAA_s140_6.1.0.dir/__/__/models/foundation/config/src/config_server.c.obj
 .text.handle_model_app_get
                0x00035390      0x1a4 examples/experimental_lpn/CMakeFiles/lpn_nrf52840_xxAA_s140_6.1.0.dir/__/__/models/foundation/config/src/config_server.c.obj
 .text.handle_config_model_subscription_overwrite
                0x00035534      0x122 examples/experimental_lpn/CMakeFiles/lpn_nrf52840_xxAA_s140_6.1.0.dir/__/__/models/foundation/config/src/config_server.c.obj
 *fill*         0x00035656        0x2 
 .text.handle_model_app_bind_unbind
                0x00035658      0x1f8 examples/experimental_lpn/CMakeFiles/lpn_nrf52840_xxAA_s140_6.1.0.dir/__/__/models/foundation/config/src/config_server.c.obj
 .text.handle_config_sig_model_subscription_get
                0x00035850       0xa2 examples/experimental_lpn/CMakeFiles/lpn_nrf52840_xxAA_s140_6.1.0.dir/__/__/models/foundation/config/src/config_server.c.obj
 .text.handle_config_vendor_model_subscription_get
                0x000358f2       0xde examples/experimental_lpn/CMakeFiles/lpn_nrf52840_xxAA_s140_6.1.0.dir/__/__/models/foundation/config/src/config_server.c.obj
 .text.handle_config_model_publication_set
                0x000359d0      0x2dc examples/experimental_lpn/CMakeFiles/lpn_nrf52840_xxAA_s140_6.1.0.dir/__/__/models/foundation/config/src/config_server.c.obj
 .text.config_server_init
                0x00035cac       0x60 examples/experimental_lpn/CMakeFiles/lpn_nrf52840_xxAA_s140_6.1.0.dir/__/__/models/foundation/config/src/config_server.c.obj
                0x00035cac                config_server_init
 .text.config_server_bind
                0x00035d0c       0x10 examples/experimental_lpn/CMakeFiles/lpn_nrf52840_xxAA_s140_6.1.0.dir/__/__/models/foundation/config/src/config_server.c.obj
                0x00035d0c                config_server_bind
 .text.packed_index_list_create
                0x00035d1c       0x32 examples/experimental_lpn/CMakeFiles/lpn_nrf52840_xxAA_s140_6.1.0.dir/__/__/models/foundation/config/src/packed_index_list.c.obj
                0x00035d1c                packed_index_list_create
 *fill*         0x00035d4e        0x2 
 .text.attention_timer_set
                0x00035d50       0x8c examples/experimental_lpn/CMakeFiles/lpn_nrf52840_xxAA_s140_6.1.0.dir/__/__/models/foundation/health/src/health_server.c.obj
 .text.attention_timer_handler
                0x00035ddc       0x5c examples/experimental_lpn/CMakeFiles/lpn_nrf52840_xxAA_s140_6.1.0.dir/__/__/models/foundation/health/src/health_server.c.obj
 .text.send_attention_status
                0x00035e38       0x4a examples/experimental_lpn/CMakeFiles/lpn_nrf52840_xxAA_s140_6.1.0.dir/__/__/models/foundation/health/src/health_server.c.obj
 .text.handle_attention_get
                0x00035e82        0xc examples/experimental_lpn/CMakeFiles/lpn_nrf52840_xxAA_s140_6.1.0.dir/__/__/models/foundation/health/src/health_server.c.obj
 .text.send_period_status
                0x00035e8e       0x48 examples/experimental_lpn/CMakeFiles/lpn_nrf52840_xxAA_s140_6.1.0.dir/__/__/models/foundation/health/src/health_server.c.obj
 .text.handle_period_get
                0x00035ed6        0xc examples/experimental_lpn/CMakeFiles/lpn_nrf52840_xxAA_s140_6.1.0.dir/__/__/models/foundation/health/src/health_server.c.obj
 .text.handle_attention_set
                0x00035ee2       0x2e examples/experimental_lpn/CMakeFiles/lpn_nrf52840_xxAA_s140_6.1.0.dir/__/__/models/foundation/health/src/health_server.c.obj
 .text.handle_period_set
                0x00035f10       0x22 examples/experimental_lpn/CMakeFiles/lpn_nrf52840_xxAA_s140_6.1.0.dir/__/__/models/foundation/health/src/health_server.c.obj
 *fill*         0x00035f32        0x2 
 .text.bitfield_next_get.part.0.constprop.9
                0x00035f34       0x44 examples/experimental_lpn/CMakeFiles/lpn_nrf52840_xxAA_s140_6.1.0.dir/__/__/models/foundation/health/src/health_server.c.obj
 .text.send_fault_status
                0x00035f78       0x96 examples/experimental_lpn/CMakeFiles/lpn_nrf52840_xxAA_s140_6.1.0.dir/__/__/models/foundation/health/src/health_server.c.obj
 .text.health_publish_timeout_handler
                0x0003600e        0xa examples/experimental_lpn/CMakeFiles/lpn_nrf52840_xxAA_s140_6.1.0.dir/__/__/models/foundation/health/src/health_server.c.obj
 .text.handle_fault_test
                0x00036018       0x68 examples/experimental_lpn/CMakeFiles/lpn_nrf52840_xxAA_s140_6.1.0.dir/__/__/models/foundation/health/src/health_server.c.obj
 .text.handle_fault_get
                0x00036080       0x32 examples/experimental_lpn/CMakeFiles/lpn_nrf52840_xxAA_s140_6.1.0.dir/__/__/models/foundation/health/src/health_server.c.obj
 .text.handle_fault_clear
                0x000360b2       0x48 examples/experimental_lpn/CMakeFiles/lpn_nrf52840_xxAA_s140_6.1.0.dir/__/__/models/foundation/health/src/health_server.c.obj
 *fill*         0x000360fa        0x2 
 .text.health_server_init
                0x000360fc       0x6c examples/experimental_lpn/CMakeFiles/lpn_nrf52840_xxAA_s140_6.1.0.dir/__/__/models/foundation/health/src/health_server.c.obj
                0x000360fc                health_server_init
 .text.add_to_publication_list
                0x00036168       0x78 examples/experimental_lpn/CMakeFiles/lpn_nrf52840_xxAA_s140_6.1.0.dir/__/__/mesh/access/src/access_publish.c.obj
 .text.step_resolution_to_us
                0x000361e0       0x38 examples/experimental_lpn/CMakeFiles/lpn_nrf52840_xxAA_s140_6.1.0.dir/__/__/mesh/access/src/access_publish.c.obj
 .text.schedule_publication_timer
                0x00036218      0x184 examples/experimental_lpn/CMakeFiles/lpn_nrf52840_xxAA_s140_6.1.0.dir/__/__/mesh/access/src/access_publish.c.obj
 .text.publish_timer_tick
                0x0003639c       0xa8 examples/experimental_lpn/CMakeFiles/lpn_nrf52840_xxAA_s140_6.1.0.dir/__/__/mesh/access/src/access_publish.c.obj
 .text.access_publish_init
                0x00036444       0x38 examples/experimental_lpn/CMakeFiles/lpn_nrf52840_xxAA_s140_6.1.0.dir/__/__/mesh/access/src/access_publish.c.obj
                0x00036444                access_publish_init
 .text.access_publish_period_set
                0x0003647c       0x60 examples/experimental_lpn/CMakeFiles/lpn_nrf52840_xxAA_s140_6.1.0.dir/__/__/mesh/access/src/access_publish.c.obj
                0x0003647c                access_publish_period_set
 .text.access_publish_period_get
                0x000364dc       0x22 examples/experimental_lpn/CMakeFiles/lpn_nrf52840_xxAA_s140_6.1.0.dir/__/__/mesh/access/src/access_publish.c.obj
                0x000364dc                access_publish_period_get
 .text.bitfield_get
                0x000364fe       0x1a examples/experimental_lpn/CMakeFiles/lpn_nrf52840_xxAA_s140_6.1.0.dir/__/__/mesh/access/src/access.c.obj
 .text.is_valid_opcode
                0x00036518       0x42 examples/experimental_lpn/CMakeFiles/lpn_nrf52840_xxAA_s140_6.1.0.dir/__/__/mesh/access/src/access.c.obj
 *fill*         0x0003655a        0x2 
 .text.model_handle_valid_and_allocated
                0x0003655c       0x20 examples/experimental_lpn/CMakeFiles/lpn_nrf52840_xxAA_s140_6.1.0.dir/__/__/mesh/access/src/access.c.obj
 .text.flash_manager_mem_available
                0x0003657c        0x2 examples/experimental_lpn/CMakeFiles/lpn_nrf52840_xxAA_s140_6.1.0.dir/__/__/mesh/access/src/access.c.obj
 *fill*         0x0003657e        0x2 
 .text.restore_acquired_subscription
                0x00036580       0x30 examples/experimental_lpn/CMakeFiles/lpn_nrf52840_xxAA_s140_6.1.0.dir/__/__/mesh/access/src/access.c.obj
 .text.restore_acquired_element
                0x000365b0       0x24 examples/experimental_lpn/CMakeFiles/lpn_nrf52840_xxAA_s140_6.1.0.dir/__/__/mesh/access/src/access.c.obj
 .text.restore_flash_data
                0x000365d4       0x28 examples/experimental_lpn/CMakeFiles/lpn_nrf52840_xxAA_s140_6.1.0.dir/__/__/mesh/access/src/access.c.obj
 .text.flash_invalidate_complete
                0x000365fc        0x6 examples/experimental_lpn/CMakeFiles/lpn_nrf52840_xxAA_s140_6.1.0.dir/__/__/mesh/access/src/access.c.obj
 *fill*         0x00036602        0x2 
 .text.access_flash_config_clear
                0x00036604       0x28 examples/experimental_lpn/CMakeFiles/lpn_nrf52840_xxAA_s140_6.1.0.dir/__/__/mesh/access/src/access.c.obj
 .text.access_flash_config_store
                0x0003662c      0x158 examples/experimental_lpn/CMakeFiles/lpn_nrf52840_xxAA_s140_6.1.0.dir/__/__/mesh/access/src/access.c.obj
                0x0003662c                access_flash_config_store
 .text.access_state_clear
                0x00036784       0x48 examples/experimental_lpn/CMakeFiles/lpn_nrf52840_xxAA_s140_6.1.0.dir/__/__/mesh/access/src/access.c.obj
 .text.flash_write_complete
                0x000367cc       0x50 examples/experimental_lpn/CMakeFiles/lpn_nrf52840_xxAA_s140_6.1.0.dir/__/__/mesh/access/src/access.c.obj
 .text.unlikely.bitfield_next_get.part.0.constprop.5
                0x0003681c       0x34 examples/experimental_lpn/CMakeFiles/lpn_nrf52840_xxAA_s140_6.1.0.dir/__/__/mesh/access/src/access.c.obj
 .text.packet_tx
                0x00036850      0x2ec examples/experimental_lpn/CMakeFiles/lpn_nrf52840_xxAA_s140_6.1.0.dir/__/__/mesh/access/src/access.c.obj
 .text.restore_acquired_model
                0x00036b3c       0x90 examples/experimental_lpn/CMakeFiles/lpn_nrf52840_xxAA_s140_6.1.0.dir/__/__/mesh/access/src/access.c.obj
 .text.access_flash_config_load
                0x00036bcc      0x13c examples/experimental_lpn/CMakeFiles/lpn_nrf52840_xxAA_s140_6.1.0.dir/__/__/mesh/access/src/access.c.obj
                0x00036bcc                access_flash_config_load
 .text.access_incoming_handle
                0x00036d08      0x104 examples/experimental_lpn/CMakeFiles/lpn_nrf52840_xxAA_s140_6.1.0.dir/__/__/mesh/access/src/access.c.obj
                0x00036d08                access_incoming_handle
 .text.mesh_evt_cb
                0x00036e0c      0x134 examples/experimental_lpn/CMakeFiles/lpn_nrf52840_xxAA_s140_6.1.0.dir/__/__/mesh/access/src/access.c.obj
 .text.access_clear
                0x00036f40       0x12 examples/experimental_lpn/CMakeFiles/lpn_nrf52840_xxAA_s140_6.1.0.dir/__/__/mesh/access/src/access.c.obj
                0x00036f40                access_clear
 *fill*         0x00036f52        0x2 
 .text.access_model_add
                0x00036f54      0x1c4 examples/experimental_lpn/CMakeFiles/lpn_nrf52840_xxAA_s140_6.1.0.dir/__/__/mesh/access/src/access.c.obj
                0x00036f54                access_model_add
 .text.access_model_publish
                0x00037118        0xc examples/experimental_lpn/CMakeFiles/lpn_nrf52840_xxAA_s140_6.1.0.dir/__/__/mesh/access/src/access.c.obj
                0x00037118                access_model_publish
 .text.access_model_reply
                0x00037124       0x12 examples/experimental_lpn/CMakeFiles/lpn_nrf52840_xxAA_s140_6.1.0.dir/__/__/mesh/access/src/access.c.obj
                0x00037124                access_model_reply
 *fill*         0x00037136        0x2 
 .text.access_model_publish_address_set
                0x00037138       0x3c examples/experimental_lpn/CMakeFiles/lpn_nrf52840_xxAA_s140_6.1.0.dir/__/__/mesh/access/src/access.c.obj
                0x00037138                access_model_publish_address_set
 .text.access_model_publish_address_get
                0x00037174       0x28 examples/experimental_lpn/CMakeFiles/lpn_nrf52840_xxAA_s140_6.1.0.dir/__/__/mesh/access/src/access.c.obj
                0x00037174                access_model_publish_address_get
 .text.access_model_publish_retransmit_set
                0x0003719c       0x4c examples/experimental_lpn/CMakeFiles/lpn_nrf52840_xxAA_s140_6.1.0.dir/__/__/mesh/access/src/access.c.obj
                0x0003719c                access_model_publish_retransmit_set
 .text.access_model_publish_retransmit_get
                0x000371e8       0x2c examples/experimental_lpn/CMakeFiles/lpn_nrf52840_xxAA_s140_6.1.0.dir/__/__/mesh/access/src/access.c.obj
                0x000371e8                access_model_publish_retransmit_get
 .text.access_model_publish_period_set
                0x00037214       0x6c examples/experimental_lpn/CMakeFiles/lpn_nrf52840_xxAA_s140_6.1.0.dir/__/__/mesh/access/src/access.c.obj
                0x00037214                access_model_publish_period_set
 .text.access_model_publish_period_get
                0x00037280       0x3c examples/experimental_lpn/CMakeFiles/lpn_nrf52840_xxAA_s140_6.1.0.dir/__/__/mesh/access/src/access.c.obj
                0x00037280                access_model_publish_period_get
 .text.access_model_subscription_list_alloc
                0x000372bc       0x50 examples/experimental_lpn/CMakeFiles/lpn_nrf52840_xxAA_s140_6.1.0.dir/__/__/mesh/access/src/access.c.obj
                0x000372bc                access_model_subscription_list_alloc
 .text.access_model_subscription_add
                0x0003730c       0x60 examples/experimental_lpn/CMakeFiles/lpn_nrf52840_xxAA_s140_6.1.0.dir/__/__/mesh/access/src/access.c.obj
                0x0003730c                access_model_subscription_add
 .text.access_model_subscription_remove
                0x0003736c       0x60 examples/experimental_lpn/CMakeFiles/lpn_nrf52840_xxAA_s140_6.1.0.dir/__/__/mesh/access/src/access.c.obj
                0x0003736c                access_model_subscription_remove
 .text.access_model_subscriptions_get
                0x000373cc       0x80 examples/experimental_lpn/CMakeFiles/lpn_nrf52840_xxAA_s140_6.1.0.dir/__/__/mesh/access/src/access.c.obj
                0x000373cc                access_model_subscriptions_get
 .text.access_model_application_bind
                0x0003744c       0x50 examples/experimental_lpn/CMakeFiles/lpn_nrf52840_xxAA_s140_6.1.0.dir/__/__/mesh/access/src/access.c.obj
                0x0003744c                access_model_application_bind
 .text.access_model_application_unbind
                0x0003749c       0x50 examples/experimental_lpn/CMakeFiles/lpn_nrf52840_xxAA_s140_6.1.0.dir/__/__/mesh/access/src/access.c.obj
                0x0003749c                access_model_application_unbind
 .text.access_model_applications_get
                0x000374ec       0x58 examples/experimental_lpn/CMakeFiles/lpn_nrf52840_xxAA_s140_6.1.0.dir/__/__/mesh/access/src/access.c.obj
                0x000374ec                access_model_applications_get
 .text.access_model_publish_application_set
                0x00037544       0x3c examples/experimental_lpn/CMakeFiles/lpn_nrf52840_xxAA_s140_6.1.0.dir/__/__/mesh/access/src/access.c.obj
                0x00037544                access_model_publish_application_set
 .text.access_model_publish_application_get
                0x00037580       0x28 examples/experimental_lpn/CMakeFiles/lpn_nrf52840_xxAA_s140_6.1.0.dir/__/__/mesh/access/src/access.c.obj
                0x00037580                access_model_publish_application_get
 .text.access_default_ttl_set
                0x000375a8       0x18 examples/experimental_lpn/CMakeFiles/lpn_nrf52840_xxAA_s140_6.1.0.dir/__/__/mesh/access/src/access.c.obj
                0x000375a8                access_default_ttl_set
 .text.access_default_ttl_get
                0x000375c0        0xc examples/experimental_lpn/CMakeFiles/lpn_nrf52840_xxAA_s140_6.1.0.dir/__/__/mesh/access/src/access.c.obj
                0x000375c0                access_default_ttl_get
 .text.access_model_publish_friendship_credential_flag_set
                0x000375cc       0x38 examples/experimental_lpn/CMakeFiles/lpn_nrf52840_xxAA_s140_6.1.0.dir/__/__/mesh/access/src/access.c.obj
                0x000375cc                access_model_publish_friendship_credential_flag_set
 .text.access_model_publish_friendship_credential_flag_get
                0x00037604       0x28 examples/experimental_lpn/CMakeFiles/lpn_nrf52840_xxAA_s140_6.1.0.dir/__/__/mesh/access/src/access.c.obj
                0x00037604                access_model_publish_friendship_credential_flag_get
 .text.access_model_publish_ttl_set
                0x0003762c       0x40 examples/experimental_lpn/CMakeFiles/lpn_nrf52840_xxAA_s140_6.1.0.dir/__/__/mesh/access/src/access.c.obj
                0x0003762c                access_model_publish_ttl_set
 .text.access_model_publish_ttl_get
                0x0003766c       0x28 examples/experimental_lpn/CMakeFiles/lpn_nrf52840_xxAA_s140_6.1.0.dir/__/__/mesh/access/src/access.c.obj
                0x0003766c                access_model_publish_ttl_get
 .text.access_element_location_get
                0x00037694       0x20 examples/experimental_lpn/CMakeFiles/lpn_nrf52840_xxAA_s140_6.1.0.dir/__/__/mesh/access/src/access.c.obj
                0x00037694                access_element_location_get
 .text.access_element_sig_model_count_get
                0x000376b4       0x24 examples/experimental_lpn/CMakeFiles/lpn_nrf52840_xxAA_s140_6.1.0.dir/__/__/mesh/access/src/access.c.obj
                0x000376b4                access_element_sig_model_count_get
 .text.access_element_vendor_model_count_get
                0x000376d8       0x24 examples/experimental_lpn/CMakeFiles/lpn_nrf52840_xxAA_s140_6.1.0.dir/__/__/mesh/access/src/access.c.obj
                0x000376d8                access_element_vendor_model_count_get
 .text.access_model_id_get
                0x000376fc       0x2c examples/experimental_lpn/CMakeFiles/lpn_nrf52840_xxAA_s140_6.1.0.dir/__/__/mesh/access/src/access.c.obj
                0x000376fc                access_model_id_get
 .text.access_handle_get
                0x00037728       0x50 examples/experimental_lpn/CMakeFiles/lpn_nrf52840_xxAA_s140_6.1.0.dir/__/__/mesh/access/src/access.c.obj
                0x00037728                access_handle_get
 .text.access_element_models_get
                0x00037778       0x50 examples/experimental_lpn/CMakeFiles/lpn_nrf52840_xxAA_s140_6.1.0.dir/__/__/mesh/access/src/access.c.obj
                0x00037778                access_element_models_get
 .text.access_model_p_args_get
                0x000377c8       0x28 examples/experimental_lpn/CMakeFiles/lpn_nrf52840_xxAA_s140_6.1.0.dir/__/__/mesh/access/src/access.c.obj
                0x000377c8                access_model_p_args_get
 .text.access_model_publication_stop
                0x000377f0       0x74 examples/experimental_lpn/CMakeFiles/lpn_nrf52840_xxAA_s140_6.1.0.dir/__/__/mesh/access/src/access.c.obj
                0x000377f0                access_model_publication_stop
 .text.access_model_publication_by_appkey_stop
                0x00037864       0x36 examples/experimental_lpn/CMakeFiles/lpn_nrf52840_xxAA_s140_6.1.0.dir/__/__/mesh/access/src/access.c.obj
                0x00037864                access_model_publication_by_appkey_stop
 .text.access_flash_area_get
                0x0003789a        0xc examples/experimental_lpn/CMakeFiles/lpn_nrf52840_xxAA_s140_6.1.0.dir/__/__/mesh/access/src/access.c.obj
                0x0003789a                access_flash_area_get
 *fill*         0x000378a6        0x2 
 .text.add_flash_manager
                0x000378a8       0x54 examples/experimental_lpn/CMakeFiles/lpn_nrf52840_xxAA_s140_6.1.0.dir/__/__/mesh/access/src/access.c.obj
 .text.access_init
                0x000378fc       0x2c examples/experimental_lpn/CMakeFiles/lpn_nrf52840_xxAA_s140_6.1.0.dir/__/__/mesh/access/src/access.c.obj
                0x000378fc                access_init
 .text.flash_remove_complete
                0x00037928       0x64 examples/experimental_lpn/CMakeFiles/lpn_nrf52840_xxAA_s140_6.1.0.dir/__/__/mesh/access/src/access.c.obj
 .text.reliable_timer_cb
                0x0003798c      0x190 examples/experimental_lpn/CMakeFiles/lpn_nrf52840_xxAA_s140_6.1.0.dir/__/__/mesh/access/src/access_reliable.c.obj
 .text.remove_and_reschedule
                0x00037b1c       0xac examples/experimental_lpn/CMakeFiles/lpn_nrf52840_xxAA_s140_6.1.0.dir/__/__/mesh/access/src/access_reliable.c.obj
 .text.access_reliable_message_rx_cb
                0x00037bc8       0x68 examples/experimental_lpn/CMakeFiles/lpn_nrf52840_xxAA_s140_6.1.0.dir/__/__/mesh/access/src/access_reliable.c.obj
                0x00037bc8                access_reliable_message_rx_cb
 .text.access_reliable_init
                0x00037c30       0x1c examples/experimental_lpn/CMakeFiles/lpn_nrf52840_xxAA_s140_6.1.0.dir/__/__/mesh/access/src/access_reliable.c.obj
                0x00037c30                access_reliable_init
 .text.access_reliable_cancel_all
                0x00037c4c       0x60 examples/experimental_lpn/CMakeFiles/lpn_nrf52840_xxAA_s140_6.1.0.dir/__/__/mesh/access/src/access_reliable.c.obj
                0x00037c4c                access_reliable_cancel_all
 .text.access_model_reliable_cancel
                0x00037cac       0x68 examples/experimental_lpn/CMakeFiles/lpn_nrf52840_xxAA_s140_6.1.0.dir/__/__/mesh/access/src/access_reliable.c.obj
                0x00037cac                access_model_reliable_cancel
 .text.access_loopback_process
                0x00037d14       0x28 examples/experimental_lpn/CMakeFiles/lpn_nrf52840_xxAA_s140_6.1.0.dir/__/__/mesh/access/src/access_loopback.c.obj
 .text.is_access_loopback
                0x00037d3c        0x4 examples/experimental_lpn/CMakeFiles/lpn_nrf52840_xxAA_s140_6.1.0.dir/__/__/mesh/access/src/access_loopback.c.obj
                0x00037d3c                is_access_loopback
 .text.access_loopback_init
                0x00037d40       0x18 examples/experimental_lpn/CMakeFiles/lpn_nrf52840_xxAA_s140_6.1.0.dir/__/__/mesh/access/src/access_loopback.c.obj
                0x00037d40                access_loopback_init
 .text.access_loopback_handle
                0x00037d58       0x80 examples/experimental_lpn/CMakeFiles/lpn_nrf52840_xxAA_s140_6.1.0.dir/__/__/mesh/access/src/access_loopback.c.obj
                0x00037d58                access_loopback_handle
 .text.bitfield_get
                0x00037dd8       0x1a examples/experimental_lpn/CMakeFiles/lpn_nrf52840_xxAA_s140_6.1.0.dir/__/__/mesh/access/src/device_state_manager.c.obj
 .text.bitfield_set
                0x00037df2       0x18 examples/experimental_lpn/CMakeFiles/lpn_nrf52840_xxAA_s140_6.1.0.dir/__/__/mesh/access/src/device_state_manager.c.obj
 .text.bitfield_clear
                0x00037e0a       0x1a examples/experimental_lpn/CMakeFiles/lpn_nrf52840_xxAA_s140_6.1.0.dir/__/__/mesh/access/src/device_state_manager.c.obj
 .text.bitfield_is_all_clear
                0x00037e24       0x3c examples/experimental_lpn/CMakeFiles/lpn_nrf52840_xxAA_s140_6.1.0.dir/__/__/mesh/access/src/device_state_manager.c.obj
 .text.address_handle_virtual_valid
                0x00037e60       0x14 examples/experimental_lpn/CMakeFiles/lpn_nrf52840_xxAA_s140_6.1.0.dir/__/__/mesh/access/src/device_state_manager.c.obj
 .text.net_key_handle_get
                0x00037e74       0x38 examples/experimental_lpn/CMakeFiles/lpn_nrf52840_xxAA_s140_6.1.0.dir/__/__/mesh/access/src/device_state_manager.c.obj
 .text.dev_key_handle_get
                0x00037eac       0x30 examples/experimental_lpn/CMakeFiles/lpn_nrf52840_xxAA_s140_6.1.0.dir/__/__/mesh/access/src/device_state_manager.c.obj
 .text.app_key_handle_get
                0x00037edc       0x38 examples/experimental_lpn/CMakeFiles/lpn_nrf52840_xxAA_s140_6.1.0.dir/__/__/mesh/access/src/device_state_manager.c.obj
 .text.friendship_index_by_secmat_get
                0x00037f14       0x40 examples/experimental_lpn/CMakeFiles/lpn_nrf52840_xxAA_s140_6.1.0.dir/__/__/mesh/access/src/device_state_manager.c.obj
 .text.addr_nonvirtual_to_flash_entry
                0x00037f54       0x10 examples/experimental_lpn/CMakeFiles/lpn_nrf52840_xxAA_s140_6.1.0.dir/__/__/mesh/access/src/device_state_manager.c.obj
 .text.devkey_set
                0x00037f64       0x4c examples/experimental_lpn/CMakeFiles/lpn_nrf52840_xxAA_s140_6.1.0.dir/__/__/mesh/access/src/device_state_manager.c.obj
 .text.devkey_to_dsm_entry
                0x00037fb0       0x16 examples/experimental_lpn/CMakeFiles/lpn_nrf52840_xxAA_s140_6.1.0.dir/__/__/mesh/access/src/device_state_manager.c.obj
 *fill*         0x00037fc6        0x2 
 .text.devkey_to_flash_entry
                0x00037fc8       0x28 examples/experimental_lpn/CMakeFiles/lpn_nrf52840_xxAA_s140_6.1.0.dir/__/__/mesh/access/src/device_state_manager.c.obj
 .text.addr_virtual_to_flash_entry
                0x00037ff0       0x18 examples/experimental_lpn/CMakeFiles/lpn_nrf52840_xxAA_s140_6.1.0.dir/__/__/mesh/access/src/device_state_manager.c.obj
 .text.addr_unicast_to_dsm_entry
                0x00038008        0xc examples/experimental_lpn/CMakeFiles/lpn_nrf52840_xxAA_s140_6.1.0.dir/__/__/mesh/access/src/device_state_manager.c.obj
 .text.addr_unicast_to_flash_entry
                0x00038014       0x10 examples/experimental_lpn/CMakeFiles/lpn_nrf52840_xxAA_s140_6.1.0.dir/__/__/mesh/access/src/device_state_manager.c.obj
 .text.flash_read_callback
                0x00038024       0xa8 examples/experimental_lpn/CMakeFiles/lpn_nrf52840_xxAA_s140_6.1.0.dir/__/__/mesh/access/src/device_state_manager.c.obj
 .text.flash_mem_listener_callback
                0x000380cc       0x14 examples/experimental_lpn/CMakeFiles/lpn_nrf52840_xxAA_s140_6.1.0.dir/__/__/mesh/access/src/device_state_manager.c.obj
 .text.get_subnet_handle
                0x000380e0       0x34 examples/experimental_lpn/CMakeFiles/lpn_nrf52840_xxAA_s140_6.1.0.dir/__/__/mesh/access/src/device_state_manager.c.obj
 .text.appkey_set
                0x00038114       0x70 examples/experimental_lpn/CMakeFiles/lpn_nrf52840_xxAA_s140_6.1.0.dir/__/__/mesh/access/src/device_state_manager.c.obj
 .text.appkey_to_flash_entry
                0x00038184       0x54 examples/experimental_lpn/CMakeFiles/lpn_nrf52840_xxAA_s140_6.1.0.dir/__/__/mesh/access/src/device_state_manager.c.obj
 .text.subnet_to_flash_entry
                0x000381d8       0x60 examples/experimental_lpn/CMakeFiles/lpn_nrf52840_xxAA_s140_6.1.0.dir/__/__/mesh/access/src/device_state_manager.c.obj
 .text.bitfield_clear_all
                0x00038238        0xe examples/experimental_lpn/CMakeFiles/lpn_nrf52840_xxAA_s140_6.1.0.dir/__/__/mesh/access/src/device_state_manager.c.obj
 .text.friendship_clear
                0x00038246       0x24 examples/experimental_lpn/CMakeFiles/lpn_nrf52840_xxAA_s140_6.1.0.dir/__/__/mesh/access/src/device_state_manager.c.obj
 *fill*         0x0003826a        0x2 
 .text.subnet_set
                0x0003826c       0xac examples/experimental_lpn/CMakeFiles/lpn_nrf52840_xxAA_s140_6.1.0.dir/__/__/mesh/access/src/device_state_manager.c.obj
 .text.virtual_address_set
                0x00038318       0x4c examples/experimental_lpn/CMakeFiles/lpn_nrf52840_xxAA_s140_6.1.0.dir/__/__/mesh/access/src/device_state_manager.c.obj
 .text.addr_virtual_to_dsm_entry
                0x00038364        0xe examples/experimental_lpn/CMakeFiles/lpn_nrf52840_xxAA_s140_6.1.0.dir/__/__/mesh/access/src/device_state_manager.c.obj
 *fill*         0x00038372        0x2 
 .text.reset_flash_area
                0x00038374       0x28 examples/experimental_lpn/CMakeFiles/lpn_nrf52840_xxAA_s140_6.1.0.dir/__/__/mesh/access/src/device_state_manager.c.obj
 .text.flash_save
                0x0003839c       0x7c examples/experimental_lpn/CMakeFiles/lpn_nrf52840_xxAA_s140_6.1.0.dir/__/__/mesh/access/src/device_state_manager.c.obj
 .text.flash_invalidate
                0x00038418       0x64 examples/experimental_lpn/CMakeFiles/lpn_nrf52840_xxAA_s140_6.1.0.dir/__/__/mesh/access/src/device_state_manager.c.obj
 .text.flash_update_all
                0x0003847c       0x6c examples/experimental_lpn/CMakeFiles/lpn_nrf52840_xxAA_s140_6.1.0.dir/__/__/mesh/access/src/device_state_manager.c.obj
 .text.virtual_address_uuid_index_get
                0x000384e8       0x3c examples/experimental_lpn/CMakeFiles/lpn_nrf52840_xxAA_s140_6.1.0.dir/__/__/mesh/access/src/device_state_manager.c.obj
 .text.add_address_virtual
                0x00038524       0xa0 examples/experimental_lpn/CMakeFiles/lpn_nrf52840_xxAA_s140_6.1.0.dir/__/__/mesh/access/src/device_state_manager.c.obj
 .text.app_tx_secmat_get
                0x000385c4       0x8c examples/experimental_lpn/CMakeFiles/lpn_nrf52840_xxAA_s140_6.1.0.dir/__/__/mesh/access/src/device_state_manager.c.obj
 .text.get_subnet_handle_by_beacon_info
                0x00038650       0x24 examples/experimental_lpn/CMakeFiles/lpn_nrf52840_xxAA_s140_6.1.0.dir/__/__/mesh/access/src/device_state_manager.c.obj
 .text.get_app_handle
                0x00038674       0x34 examples/experimental_lpn/CMakeFiles/lpn_nrf52840_xxAA_s140_6.1.0.dir/__/__/mesh/access/src/device_state_manager.c.obj
 .text.appkey_to_dsm_entry
                0x000386a8       0x68 examples/experimental_lpn/CMakeFiles/lpn_nrf52840_xxAA_s140_6.1.0.dir/__/__/mesh/access/src/device_state_manager.c.obj
 .text.subnet_to_dsm_entry
                0x00038710       0x68 examples/experimental_lpn/CMakeFiles/lpn_nrf52840_xxAA_s140_6.1.0.dir/__/__/mesh/access/src/device_state_manager.c.obj
 .text.flash_operation_complete
                0x00038778       0x4c examples/experimental_lpn/CMakeFiles/lpn_nrf52840_xxAA_s140_6.1.0.dir/__/__/mesh/access/src/device_state_manager.c.obj
 .text.flash_invalidate_complete
                0x000387c4        0x8 examples/experimental_lpn/CMakeFiles/lpn_nrf52840_xxAA_s140_6.1.0.dir/__/__/mesh/access/src/device_state_manager.c.obj
 .text.flash_write_complete
                0x000387cc        0x8 examples/experimental_lpn/CMakeFiles/lpn_nrf52840_xxAA_s140_6.1.0.dir/__/__/mesh/access/src/device_state_manager.c.obj
 .text.add_address.part.10
                0x000387d4      0x168 examples/experimental_lpn/CMakeFiles/lpn_nrf52840_xxAA_s140_6.1.0.dir/__/__/mesh/access/src/device_state_manager.c.obj
 .text.bitfield_next_get.part.0.constprop.22
                0x0003893c       0x38 examples/experimental_lpn/CMakeFiles/lpn_nrf52840_xxAA_s140_6.1.0.dir/__/__/mesh/access/src/device_state_manager.c.obj
 .text.address_handle_valid
                0x00038974       0x28 examples/experimental_lpn/CMakeFiles/lpn_nrf52840_xxAA_s140_6.1.0.dir/__/__/mesh/access/src/device_state_manager.c.obj
 .text.address_handle_nonvirtual_valid
                0x0003899c       0x14 examples/experimental_lpn/CMakeFiles/lpn_nrf52840_xxAA_s140_6.1.0.dir/__/__/mesh/access/src/device_state_manager.c.obj
 .text.address_delete_if_unused
                0x000389b0       0x78 examples/experimental_lpn/CMakeFiles/lpn_nrf52840_xxAA_s140_6.1.0.dir/__/__/mesh/access/src/device_state_manager.c.obj
 .text.addr_nonvirtual_to_dsm_entry
                0x00038a28       0x38 examples/experimental_lpn/CMakeFiles/lpn_nrf52840_xxAA_s140_6.1.0.dir/__/__/mesh/access/src/device_state_manager.c.obj
 .text.dsm_flash_config_load
                0x00038a60       0x7c examples/experimental_lpn/CMakeFiles/lpn_nrf52840_xxAA_s140_6.1.0.dir/__/__/mesh/access/src/device_state_manager.c.obj
                0x00038a60                dsm_flash_config_load
 .text.dsm_flash_area_get
                0x00038adc        0xc examples/experimental_lpn/CMakeFiles/lpn_nrf52840_xxAA_s140_6.1.0.dir/__/__/mesh/access/src/device_state_manager.c.obj
                0x00038adc                dsm_flash_area_get
 .text.build_flash_area
                0x00038ae8       0x8c examples/experimental_lpn/CMakeFiles/lpn_nrf52840_xxAA_s140_6.1.0.dir/__/__/mesh/access/src/device_state_manager.c.obj
 .text.flash_remove_complete
                0x00038b74        0x4 examples/experimental_lpn/CMakeFiles/lpn_nrf52840_xxAA_s140_6.1.0.dir/__/__/mesh/access/src/device_state_manager.c.obj
 .text.dsm_clear
                0x00038b78       0xb0 examples/experimental_lpn/CMakeFiles/lpn_nrf52840_xxAA_s140_6.1.0.dir/__/__/mesh/access/src/device_state_manager.c.obj
                0x00038b78                dsm_clear
 .text.dsm_init
                0x00038c28       0x48 examples/experimental_lpn/CMakeFiles/lpn_nrf52840_xxAA_s140_6.1.0.dir/__/__/mesh/access/src/device_state_manager.c.obj
                0x00038c28                dsm_init
 .text.dsm_local_unicast_addresses_set
                0x00038c70       0x78 examples/experimental_lpn/CMakeFiles/lpn_nrf52840_xxAA_s140_6.1.0.dir/__/__/mesh/access/src/device_state_manager.c.obj
                0x00038c70                dsm_local_unicast_addresses_set
 .text.dsm_local_unicast_addresses_get
                0x00038ce8       0x20 examples/experimental_lpn/CMakeFiles/lpn_nrf52840_xxAA_s140_6.1.0.dir/__/__/mesh/access/src/device_state_manager.c.obj
                0x00038ce8                dsm_local_unicast_addresses_get
 .text.dsm_address_publish_add
                0x00038d08        0xc examples/experimental_lpn/CMakeFiles/lpn_nrf52840_xxAA_s140_6.1.0.dir/__/__/mesh/access/src/device_state_manager.c.obj
                0x00038d08                dsm_address_publish_add
 .text.dsm_address_publish_add_handle
                0x00038d14       0x38 examples/experimental_lpn/CMakeFiles/lpn_nrf52840_xxAA_s140_6.1.0.dir/__/__/mesh/access/src/device_state_manager.c.obj
                0x00038d14                dsm_address_publish_add_handle
 .text.dsm_address_publish_virtual_add
                0x00038d4c        0x6 examples/experimental_lpn/CMakeFiles/lpn_nrf52840_xxAA_s140_6.1.0.dir/__/__/mesh/access/src/device_state_manager.c.obj
                0x00038d4c                dsm_address_publish_virtual_add
 *fill*         0x00038d52        0x2 
 .text.dsm_address_publish_remove
                0x00038d54       0x44 examples/experimental_lpn/CMakeFiles/lpn_nrf52840_xxAA_s140_6.1.0.dir/__/__/mesh/access/src/device_state_manager.c.obj
                0x00038d54                dsm_address_publish_remove
 .text.dsm_address_subscription_add
                0x00038d98        0xc examples/experimental_lpn/CMakeFiles/lpn_nrf52840_xxAA_s140_6.1.0.dir/__/__/mesh/access/src/device_state_manager.c.obj
                0x00038d98                dsm_address_subscription_add
 .text.dsm_address_subscription_virtual_add
                0x00038da4        0x6 examples/experimental_lpn/CMakeFiles/lpn_nrf52840_xxAA_s140_6.1.0.dir/__/__/mesh/access/src/device_state_manager.c.obj
                0x00038da4                dsm_address_subscription_virtual_add
 *fill*         0x00038daa        0x2 
 .text.dsm_address_subscription_add_handle
                0x00038dac       0x38 examples/experimental_lpn/CMakeFiles/lpn_nrf52840_xxAA_s140_6.1.0.dir/__/__/mesh/access/src/device_state_manager.c.obj
                0x00038dac                dsm_address_subscription_add_handle
 .text.dsm_address_get
                0x00038de4       0x5c examples/experimental_lpn/CMakeFiles/lpn_nrf52840_xxAA_s140_6.1.0.dir/__/__/mesh/access/src/device_state_manager.c.obj
                0x00038de4                dsm_address_get
 .text.dsm_address_subscription_remove
                0x00038e40       0x90 examples/experimental_lpn/CMakeFiles/lpn_nrf52840_xxAA_s140_6.1.0.dir/__/__/mesh/access/src/device_state_manager.c.obj
                0x00038e40                dsm_address_subscription_remove
 .text.dsm_address_handle_get
                0x00038ed0       0x98 examples/experimental_lpn/CMakeFiles/lpn_nrf52840_xxAA_s140_6.1.0.dir/__/__/mesh/access/src/device_state_manager.c.obj
                0x00038ed0                dsm_address_handle_get
 .text.dsm_net_key_index_to_subnet_handle
                0x00038f68       0x1c examples/experimental_lpn/CMakeFiles/lpn_nrf52840_xxAA_s140_6.1.0.dir/__/__/mesh/access/src/device_state_manager.c.obj
                0x00038f68                dsm_net_key_index_to_subnet_handle
 .text.dsm_subnet_handle_get
                0x00038f84       0x28 examples/experimental_lpn/CMakeFiles/lpn_nrf52840_xxAA_s140_6.1.0.dir/__/__/mesh/access/src/device_state_manager.c.obj
                0x00038f84                dsm_subnet_handle_get
 .text.dsm_appkey_index_to_appkey_handle
                0x00038fac       0x1c examples/experimental_lpn/CMakeFiles/lpn_nrf52840_xxAA_s140_6.1.0.dir/__/__/mesh/access/src/device_state_manager.c.obj
                0x00038fac                dsm_appkey_index_to_appkey_handle
 .text.dsm_appkey_handle_get
                0x00038fc8        0xc examples/experimental_lpn/CMakeFiles/lpn_nrf52840_xxAA_s140_6.1.0.dir/__/__/mesh/access/src/device_state_manager.c.obj
                0x00038fc8                dsm_appkey_handle_get
 .text.dsm_appkey_handle_to_appkey_index
                0x00038fd4       0x30 examples/experimental_lpn/CMakeFiles/lpn_nrf52840_xxAA_s140_6.1.0.dir/__/__/mesh/access/src/device_state_manager.c.obj
                0x00038fd4                dsm_appkey_handle_to_appkey_index
 .text.dsm_appkey_handle_to_subnet_handle
                0x00039004       0x64 examples/experimental_lpn/CMakeFiles/lpn_nrf52840_xxAA_s140_6.1.0.dir/__/__/mesh/access/src/device_state_manager.c.obj
                0x00039004                dsm_appkey_handle_to_subnet_handle
 .text.dsm_subnet_add
                0x00039068       0x78 examples/experimental_lpn/CMakeFiles/lpn_nrf52840_xxAA_s140_6.1.0.dir/__/__/mesh/access/src/device_state_manager.c.obj
                0x00039068                dsm_subnet_add
 .text.dsm_subnet_kr_phase_get
                0x000390e0       0x2c examples/experimental_lpn/CMakeFiles/lpn_nrf52840_xxAA_s140_6.1.0.dir/__/__/mesh/access/src/device_state_manager.c.obj
                0x000390e0                dsm_subnet_kr_phase_get
 .text.dsm_subnet_update
                0x0003910c       0xd8 examples/experimental_lpn/CMakeFiles/lpn_nrf52840_xxAA_s140_6.1.0.dir/__/__/mesh/access/src/device_state_manager.c.obj
                0x0003910c                dsm_subnet_update
 .text.dsm_subnet_update_swap_keys
                0x000391e4       0x50 examples/experimental_lpn/CMakeFiles/lpn_nrf52840_xxAA_s140_6.1.0.dir/__/__/mesh/access/src/device_state_manager.c.obj
                0x000391e4                dsm_subnet_update_swap_keys
 .text.dsm_subnet_update_commit
                0x00039234       0xd4 examples/experimental_lpn/CMakeFiles/lpn_nrf52840_xxAA_s140_6.1.0.dir/__/__/mesh/access/src/device_state_manager.c.obj
                0x00039234                dsm_subnet_update_commit
 .text.mesh_evt_handler
                0x00039308      0x118 examples/experimental_lpn/CMakeFiles/lpn_nrf52840_xxAA_s140_6.1.0.dir/__/__/mesh/access/src/device_state_manager.c.obj
 .text.dsm_subnet_get_all
                0x00039420       0x3c examples/experimental_lpn/CMakeFiles/lpn_nrf52840_xxAA_s140_6.1.0.dir/__/__/mesh/access/src/device_state_manager.c.obj
                0x00039420                dsm_subnet_get_all
 .text.dsm_devkey_add
                0x0003945c       0x78 examples/experimental_lpn/CMakeFiles/lpn_nrf52840_xxAA_s140_6.1.0.dir/__/__/mesh/access/src/device_state_manager.c.obj
                0x0003945c                dsm_devkey_add
 .text.dsm_devkey_handle_get
                0x000394d4       0x34 examples/experimental_lpn/CMakeFiles/lpn_nrf52840_xxAA_s140_6.1.0.dir/__/__/mesh/access/src/device_state_manager.c.obj
                0x000394d4                dsm_devkey_handle_get
 .text.dsm_appkey_add
                0x00039508       0x7c examples/experimental_lpn/CMakeFiles/lpn_nrf52840_xxAA_s140_6.1.0.dir/__/__/mesh/access/src/device_state_manager.c.obj
                0x00039508                dsm_appkey_add
 .text.dsm_appkey_update
                0x00039584       0x90 examples/experimental_lpn/CMakeFiles/lpn_nrf52840_xxAA_s140_6.1.0.dir/__/__/mesh/access/src/device_state_manager.c.obj
                0x00039584                dsm_appkey_update
 .text.dsm_appkey_delete
                0x00039614       0x2c examples/experimental_lpn/CMakeFiles/lpn_nrf52840_xxAA_s140_6.1.0.dir/__/__/mesh/access/src/device_state_manager.c.obj
                0x00039614                dsm_appkey_delete
 .text.dsm_subnet_delete
                0x00039640       0x98 examples/experimental_lpn/CMakeFiles/lpn_nrf52840_xxAA_s140_6.1.0.dir/__/__/mesh/access/src/device_state_manager.c.obj
                0x00039640                dsm_subnet_delete
 .text.dsm_appkey_get_all
                0x000396d8       0x58 examples/experimental_lpn/CMakeFiles/lpn_nrf52840_xxAA_s140_6.1.0.dir/__/__/mesh/access/src/device_state_manager.c.obj
                0x000396d8                dsm_appkey_get_all
 .text.dsm_tx_secmat_get
                0x00039730       0x44 examples/experimental_lpn/CMakeFiles/lpn_nrf52840_xxAA_s140_6.1.0.dir/__/__/mesh/access/src/device_state_manager.c.obj
                0x00039730                dsm_tx_secmat_get
 .text.dsm_tx_friendship_secmat_get
                0x00039774       0x54 examples/experimental_lpn/CMakeFiles/lpn_nrf52840_xxAA_s140_6.1.0.dir/__/__/mesh/access/src/device_state_manager.c.obj
                0x00039774                dsm_tx_friendship_secmat_get
 .text.dsm_beacon_info_get
                0x000397c8       0x2c examples/experimental_lpn/CMakeFiles/lpn_nrf52840_xxAA_s140_6.1.0.dir/__/__/mesh/access/src/device_state_manager.c.obj
                0x000397c8                dsm_beacon_info_get
 .text.dsm_net_secmat_from_keyindex_get
                0x000397f4       0x30 examples/experimental_lpn/CMakeFiles/lpn_nrf52840_xxAA_s140_6.1.0.dir/__/__/mesh/access/src/device_state_manager.c.obj
                0x000397f4                dsm_net_secmat_from_keyindex_get
 .text.nrf_mesh_net_secmat_next_get
                0x00039824      0x120 examples/experimental_lpn/CMakeFiles/lpn_nrf52840_xxAA_s140_6.1.0.dir/__/__/mesh/access/src/device_state_manager.c.obj
                0x00039824                nrf_mesh_net_secmat_next_get
 .text.nrf_mesh_app_secmat_next_get
                0x00039944       0x70 examples/experimental_lpn/CMakeFiles/lpn_nrf52840_xxAA_s140_6.1.0.dir/__/__/mesh/access/src/device_state_manager.c.obj
                0x00039944                nrf_mesh_app_secmat_next_get
 .text.nrf_mesh_devkey_secmat_get
                0x000399b4       0x28 examples/experimental_lpn/CMakeFiles/lpn_nrf52840_xxAA_s140_6.1.0.dir/__/__/mesh/access/src/device_state_manager.c.obj
                0x000399b4                nrf_mesh_devkey_secmat_get
 .text.nrf_mesh_primary_net_secmat_get
                0x000399dc       0x44 examples/experimental_lpn/CMakeFiles/lpn_nrf52840_xxAA_s140_6.1.0.dir/__/__/mesh/access/src/device_state_manager.c.obj
                0x000399dc                nrf_mesh_primary_net_secmat_get
 .text.nrf_mesh_beacon_info_next_get
                0x00039a20       0xb4 examples/experimental_lpn/CMakeFiles/lpn_nrf52840_xxAA_s140_6.1.0.dir/__/__/mesh/access/src/device_state_manager.c.obj
                0x00039a20                nrf_mesh_beacon_info_next_get
 .text.nrf_mesh_rx_address_get
                0x00039ad4      0x130 examples/experimental_lpn/CMakeFiles/lpn_nrf52840_xxAA_s140_6.1.0.dir/__/__/mesh/access/src/device_state_manager.c.obj
                0x00039ad4                nrf_mesh_rx_address_get
 .text.dsm_address_is_rx
                0x00039c04       0x48 examples/experimental_lpn/CMakeFiles/lpn_nrf52840_xxAA_s140_6.1.0.dir/__/__/mesh/access/src/device_state_manager.c.obj
                0x00039c04                dsm_address_is_rx
 .text.nrf_mesh_unicast_address_get
                0x00039c4c       0x20 examples/experimental_lpn/CMakeFiles/lpn_nrf52840_xxAA_s140_6.1.0.dir/__/__/mesh/access/src/device_state_manager.c.obj
                0x00039c4c                nrf_mesh_unicast_address_get
 .text.nrf_mesh_friendship_secmat_params_set
                0x00039c6c       0x6c examples/experimental_lpn/CMakeFiles/lpn_nrf52840_xxAA_s140_6.1.0.dir/__/__/mesh/access/src/device_state_manager.c.obj
                0x00039c6c                nrf_mesh_friendship_secmat_params_set
 .text.nrf_mesh_friendship_secmat_get
                0x00039cd8       0x48 examples/experimental_lpn/CMakeFiles/lpn_nrf52840_xxAA_s140_6.1.0.dir/__/__/mesh/access/src/device_state_manager.c.obj
                0x00039cd8                nrf_mesh_friendship_secmat_get
 .text.user_op_alloc
                0x00039d20       0x2c examples/experimental_lpn/CMakeFiles/lpn_nrf52840_xxAA_s140_6.1.0.dir/__/__/external/app_timer/app_timer_mesh.c.obj
 .text.timer_stop_op_schedule
                0x00039d4c       0x50 examples/experimental_lpn/CMakeFiles/lpn_nrf52840_xxAA_s140_6.1.0.dir/__/__/external/app_timer/app_timer_mesh.c.obj
 .text.nrfx_coredep_delay_us.part.0.constprop.4
                0x00039d9c       0x10 examples/experimental_lpn/CMakeFiles/lpn_nrf52840_xxAA_s140_6.1.0.dir/__/__/external/app_timer/app_timer_mesh.c.obj
 .text.RTC1_IRQHandler
                0x00039dac       0xc0 examples/experimental_lpn/CMakeFiles/lpn_nrf52840_xxAA_s140_6.1.0.dir/__/__/external/app_timer/app_timer_mesh.c.obj
                0x00039dac                RTC1_IRQHandler
 .text.SWI0_EGU0_IRQHandler
                0x00039e6c      0x290 examples/experimental_lpn/CMakeFiles/lpn_nrf52840_xxAA_s140_6.1.0.dir/__/__/external/app_timer/app_timer_mesh.c.obj
                0x00039e6c                SWI0_EGU0_IRQHandler
 .text.app_timer_init
                0x0003a0fc       0xb8 examples/experimental_lpn/CMakeFiles/lpn_nrf52840_xxAA_s140_6.1.0.dir/__/__/external/app_timer/app_timer_mesh.c.obj
                0x0003a0fc                app_timer_init
 .text.app_timer_create
                0x0003a1b4       0x24 examples/experimental_lpn/CMakeFiles/lpn_nrf52840_xxAA_s140_6.1.0.dir/__/__/external/app_timer/app_timer_mesh.c.obj
                0x0003a1b4                app_timer_create
 .text.app_timer_start
                0x0003a1d8       0x8c examples/experimental_lpn/CMakeFiles/lpn_nrf52840_xxAA_s140_6.1.0.dir/__/__/external/app_timer/app_timer_mesh.c.obj
                0x0003a1d8                app_timer_start
 .text.app_timer_stop
                0x0003a264       0x20 examples/experimental_lpn/CMakeFiles/lpn_nrf52840_xxAA_s140_6.1.0.dir/__/__/external/app_timer/app_timer_mesh.c.obj
                0x0003a264                app_timer_stop
 .text.is_app_timer_init
                0x0003a284        0xc examples/experimental_lpn/CMakeFiles/lpn_nrf52840_xxAA_s140_6.1.0.dir/__/__/external/app_timer/app_timer_mesh.c.obj
                0x0003a284                is_app_timer_init
 .text.complete_provisioning
                0x0003a290       0x24 examples/experimental_lpn/CMakeFiles/lpn_nrf52840_xxAA_s140_6.1.0.dir/__/__/mesh/prov/src/prov_provisionee.c.obj
 .text.prov_provisionee_cb_link_established
                0x0003a2b4       0x36 examples/experimental_lpn/CMakeFiles/lpn_nrf52840_xxAA_s140_6.1.0.dir/__/__/mesh/prov/src/prov_provisionee.c.obj
 .text.prov_provisionee_cb_link_closed
                0x0003a2ea       0x34 examples/experimental_lpn/CMakeFiles/lpn_nrf52840_xxAA_s140_6.1.0.dir/__/__/mesh/prov/src/prov_provisionee.c.obj
 .text.request_authentication
                0x0003a31e       0x8a examples/experimental_lpn/CMakeFiles/lpn_nrf52840_xxAA_s140_6.1.0.dir/__/__/mesh/prov/src/prov_provisionee.c.obj
 .text.send_failed
                0x0003a3a8       0x3a examples/experimental_lpn/CMakeFiles/lpn_nrf52840_xxAA_s140_6.1.0.dir/__/__/mesh/prov/src/prov_provisionee.c.obj
 .text.start_authentication
                0x0003a3e2       0x52 examples/experimental_lpn/CMakeFiles/lpn_nrf52840_xxAA_s140_6.1.0.dir/__/__/mesh/prov/src/prov_provisionee.c.obj
 .text.prov_provisionee_cb_ack_received
                0x0003a434       0xc8 examples/experimental_lpn/CMakeFiles/lpn_nrf52840_xxAA_s140_6.1.0.dir/__/__/mesh/prov/src/prov_provisionee.c.obj
 .text.prov_provisionee_pkt_in
                0x0003a4fc      0x352 examples/experimental_lpn/CMakeFiles/lpn_nrf52840_xxAA_s140_6.1.0.dir/__/__/mesh/prov/src/prov_provisionee.c.obj
 *fill*         0x0003a84e        0x2 
 .text.prov_provisionee_listen
                0x0003a850       0x30 examples/experimental_lpn/CMakeFiles/lpn_nrf52840_xxAA_s140_6.1.0.dir/__/__/mesh/prov/src/prov_provisionee.c.obj
                0x0003a850                prov_provisionee_listen
 .text.prov_provisionee_auth_data
                0x0003a880       0x98 examples/experimental_lpn/CMakeFiles/lpn_nrf52840_xxAA_s140_6.1.0.dir/__/__/mesh/prov/src/prov_provisionee.c.obj
                0x0003a880                prov_provisionee_auth_data
 .text.bearer_compare_callback
                0x0003a918        0xc examples/experimental_lpn/CMakeFiles/lpn_nrf52840_xxAA_s140_6.1.0.dir/__/__/mesh/prov/src/nrf_mesh_prov.c.obj
 .text.bitfield_next_get.part.0.constprop.4
                0x0003a924       0x34 examples/experimental_lpn/CMakeFiles/lpn_nrf52840_xxAA_s140_6.1.0.dir/__/__/mesh/prov/src/nrf_mesh_prov.c.obj
 .text.nrf_mesh_prov_init
                0x0003a958       0x32 examples/experimental_lpn/CMakeFiles/lpn_nrf52840_xxAA_s140_6.1.0.dir/__/__/mesh/prov/src/nrf_mesh_prov.c.obj
                0x0003a958                nrf_mesh_prov_init
 *fill*         0x0003a98a        0x2 
 .text.nrf_mesh_prov_bearer_add
                0x0003a98c       0x28 examples/experimental_lpn/CMakeFiles/lpn_nrf52840_xxAA_s140_6.1.0.dir/__/__/mesh/prov/src/nrf_mesh_prov.c.obj
                0x0003a98c                nrf_mesh_prov_bearer_add
 .text.nrf_mesh_prov_generate_keys
                0x0003a9b4        0x4 examples/experimental_lpn/CMakeFiles/lpn_nrf52840_xxAA_s140_6.1.0.dir/__/__/mesh/prov/src/nrf_mesh_prov.c.obj
                0x0003a9b4                nrf_mesh_prov_generate_keys
 .text.nrf_mesh_prov_listen_stop
                0x0003a9b8       0x2e examples/experimental_lpn/CMakeFiles/lpn_nrf52840_xxAA_s140_6.1.0.dir/__/__/mesh/prov/src/nrf_mesh_prov.c.obj
                0x0003a9b8                nrf_mesh_prov_listen_stop
 .text.nrf_mesh_prov_listen
                0x0003a9e6       0x88 examples/experimental_lpn/CMakeFiles/lpn_nrf52840_xxAA_s140_6.1.0.dir/__/__/mesh/prov/src/nrf_mesh_prov.c.obj
                0x0003a9e6                nrf_mesh_prov_listen
 .text.nrf_mesh_prov_auth_data_provide
                0x0003aa6e        0xe examples/experimental_lpn/CMakeFiles/lpn_nrf52840_xxAA_s140_6.1.0.dir/__/__/mesh/prov/src/nrf_mesh_prov.c.obj
                0x0003aa6e                nrf_mesh_prov_auth_data_provide
 .text.send_data
                0x0003aa7c       0x28 examples/experimental_lpn/CMakeFiles/lpn_nrf52840_xxAA_s140_6.1.0.dir/__/__/mesh/prov/src/provisioning.c.obj
 .text.prov_packet_length_valid
                0x0003aaa4       0x1c examples/experimental_lpn/CMakeFiles/lpn_nrf52840_xxAA_s140_6.1.0.dir/__/__/mesh/prov/src/provisioning.c.obj
                0x0003aaa4                prov_packet_length_valid
 .text.prov_tx_capabilities
                0x0003aac0       0x1e examples/experimental_lpn/CMakeFiles/lpn_nrf52840_xxAA_s140_6.1.0.dir/__/__/mesh/prov/src/provisioning.c.obj
                0x0003aac0                prov_tx_capabilities
 .text.prov_tx_public_key
                0x0003aade       0x26 examples/experimental_lpn/CMakeFiles/lpn_nrf52840_xxAA_s140_6.1.0.dir/__/__/mesh/prov/src/provisioning.c.obj
                0x0003aade                prov_tx_public_key
 .text.prov_tx_input_complete
                0x0003ab04       0x16 examples/experimental_lpn/CMakeFiles/lpn_nrf52840_xxAA_s140_6.1.0.dir/__/__/mesh/prov/src/provisioning.c.obj
                0x0003ab04                prov_tx_input_complete
 .text.prov_tx_confirmation
                0x0003ab1a       0x26 examples/experimental_lpn/CMakeFiles/lpn_nrf52840_xxAA_s140_6.1.0.dir/__/__/mesh/prov/src/provisioning.c.obj
                0x0003ab1a                prov_tx_confirmation
 .text.prov_tx_random
                0x0003ab40       0x26 examples/experimental_lpn/CMakeFiles/lpn_nrf52840_xxAA_s140_6.1.0.dir/__/__/mesh/prov/src/provisioning.c.obj
                0x0003ab40                prov_tx_random
 .text.prov_tx_complete
                0x0003ab66       0x16 examples/experimental_lpn/CMakeFiles/lpn_nrf52840_xxAA_s140_6.1.0.dir/__/__/mesh/prov/src/provisioning.c.obj
                0x0003ab66                prov_tx_complete
 .text.prov_tx_failed
                0x0003ab7c       0x1a examples/experimental_lpn/CMakeFiles/lpn_nrf52840_xxAA_s140_6.1.0.dir/__/__/mesh/prov/src/provisioning.c.obj
                0x0003ab7c                prov_tx_failed
 *fill*         0x0003ab96        0x2 
 .text.prov_beacon_unprov_packet_in
                0x0003ab98       0x88 examples/experimental_lpn/CMakeFiles/lpn_nrf52840_xxAA_s140_6.1.0.dir/__/__/mesh/prov/src/prov_beacon.c.obj
                0x0003ab98                prov_beacon_unprov_packet_in
 .text.ecdh_offloading_get
                0x0003ac20       0x1c examples/experimental_lpn/CMakeFiles/lpn_nrf52840_xxAA_s140_6.1.0.dir/__/__/mesh/prov/src/prov_utils.c.obj
 .text.ecdh_offloading_set
                0x0003ac3c       0x1c examples/experimental_lpn/CMakeFiles/lpn_nrf52840_xxAA_s140_6.1.0.dir/__/__/mesh/prov/src/prov_utils.c.obj
 .text.oob_gen_numeric
                0x0003ac58       0x3c examples/experimental_lpn/CMakeFiles/lpn_nrf52840_xxAA_s140_6.1.0.dir/__/__/mesh/prov/src/prov_utils.c.obj
 .text.oob_gen_alphanumeric
                0x0003ac94       0x34 examples/experimental_lpn/CMakeFiles/lpn_nrf52840_xxAA_s140_6.1.0.dir/__/__/mesh/prov/src/prov_utils.c.obj
 .text.prov_utils_authentication_values_derive
                0x0003acc8       0xa0 examples/experimental_lpn/CMakeFiles/lpn_nrf52840_xxAA_s140_6.1.0.dir/__/__/mesh/prov/src/prov_utils.c.obj
                0x0003acc8                prov_utils_authentication_values_derive
 .text.prov_utils_keys_generate
                0x0003ad68       0x1e examples/experimental_lpn/CMakeFiles/lpn_nrf52840_xxAA_s140_6.1.0.dir/__/__/mesh/prov/src/prov_utils.c.obj
                0x0003ad68                prov_utils_keys_generate
 *fill*         0x0003ad86        0x2 
 .text.prov_utils_derive_keys
                0x0003ad88       0xac examples/experimental_lpn/CMakeFiles/lpn_nrf52840_xxAA_s140_6.1.0.dir/__/__/mesh/prov/src/prov_utils.c.obj
                0x0003ad88                prov_utils_derive_keys
 .text.prov_utils_calculate_shared_secret
                0x0003ae34       0x36 examples/experimental_lpn/CMakeFiles/lpn_nrf52840_xxAA_s140_6.1.0.dir/__/__/mesh/prov/src/prov_utils.c.obj
                0x0003ae34                prov_utils_calculate_shared_secret
 .text.prov_utils_generate_oob_data
                0x0003ae6a       0x8a examples/experimental_lpn/CMakeFiles/lpn_nrf52840_xxAA_s140_6.1.0.dir/__/__/mesh/prov/src/prov_utils.c.obj
                0x0003ae6a                prov_utils_generate_oob_data
 .text.prov_utils_confirmation_check
                0x0003aef4       0x5c examples/experimental_lpn/CMakeFiles/lpn_nrf52840_xxAA_s140_6.1.0.dir/__/__/mesh/prov/src/prov_utils.c.obj
                0x0003aef4                prov_utils_confirmation_check
 .text.mesh_opt_prov_ecdh_offloading_get
                0x0003af50       0x10 examples/experimental_lpn/CMakeFiles/lpn_nrf52840_xxAA_s140_6.1.0.dir/__/__/mesh/prov/src/prov_utils.c.obj
                0x0003af50                mesh_opt_prov_ecdh_offloading_get
 .text.prov_utils_use_ecdh_offloading
                0x0003af60       0x1c examples/experimental_lpn/CMakeFiles/lpn_nrf52840_xxAA_s140_6.1.0.dir/__/__/mesh/prov/src/prov_utils.c.obj
                0x0003af60                prov_utils_use_ecdh_offloading
 .text.pb_gatt_fsm_action
                0x0003af7c       0x10 examples/experimental_lpn/CMakeFiles/lpn_nrf52840_xxAA_s140_6.1.0.dir/__/__/mesh/prov/src/nrf_mesh_prov_bearer_gatt.c.obj
 .text.pb_gatt_fsm_guard
                0x0003af8c        0xa examples/experimental_lpn/CMakeFiles/lpn_nrf52840_xxAA_s140_6.1.0.dir/__/__/mesh/prov/src/nrf_mesh_prov_bearer_gatt.c.obj
 .text.a_link_open
                0x0003af96        0xa examples/experimental_lpn/CMakeFiles/lpn_nrf52840_xxAA_s140_6.1.0.dir/__/__/mesh/prov/src/nrf_mesh_prov_bearer_gatt.c.obj
 .text.a_pdu_ack
                0x0003afa0        0xa examples/experimental_lpn/CMakeFiles/lpn_nrf52840_xxAA_s140_6.1.0.dir/__/__/mesh/prov/src/nrf_mesh_prov_bearer_gatt.c.obj
 .text.link_evt_process
                0x0003afaa        0xa examples/experimental_lpn/CMakeFiles/lpn_nrf52840_xxAA_s140_6.1.0.dir/__/__/mesh/prov/src/nrf_mesh_prov_bearer_gatt.c.obj
 .text.link_timer_cb
                0x0003afb4       0x1e examples/experimental_lpn/CMakeFiles/lpn_nrf52840_xxAA_s140_6.1.0.dir/__/__/mesh/prov/src/nrf_mesh_prov_bearer_gatt.c.obj
 .text.tx_cb    0x0003afd2       0x2c examples/experimental_lpn/CMakeFiles/lpn_nrf52840_xxAA_s140_6.1.0.dir/__/__/mesh/prov/src/nrf_mesh_prov_bearer_gatt.c.obj
 .text.mesh_gatt_event_handler
                0x0003affe       0x86 examples/experimental_lpn/CMakeFiles/lpn_nrf52840_xxAA_s140_6.1.0.dir/__/__/mesh/prov/src/nrf_mesh_prov_bearer_gatt.c.obj
 .text.a_listen_stop
                0x0003b084        0x4 examples/experimental_lpn/CMakeFiles/lpn_nrf52840_xxAA_s140_6.1.0.dir/__/__/mesh/prov/src/nrf_mesh_prov_bearer_gatt.c.obj
 .text.a_listen_start
                0x0003b088       0x3e examples/experimental_lpn/CMakeFiles/lpn_nrf52840_xxAA_s140_6.1.0.dir/__/__/mesh/prov/src/nrf_mesh_prov_bearer_gatt.c.obj
 .text.link_timer_reset
                0x0003b0c6       0x18 examples/experimental_lpn/CMakeFiles/lpn_nrf52840_xxAA_s140_6.1.0.dir/__/__/mesh/prov/src/nrf_mesh_prov_bearer_gatt.c.obj
 .text.a_pdu_rx
                0x0003b0de       0x1e examples/experimental_lpn/CMakeFiles/lpn_nrf52840_xxAA_s140_6.1.0.dir/__/__/mesh/prov/src/nrf_mesh_prov_bearer_gatt.c.obj
 .text.a_link_timer_start
                0x0003b0fc        0x6 examples/experimental_lpn/CMakeFiles/lpn_nrf52840_xxAA_s140_6.1.0.dir/__/__/mesh/prov/src/nrf_mesh_prov_bearer_gatt.c.obj
 .text.a_pdu_tx
                0x0003b102       0x42 examples/experimental_lpn/CMakeFiles/lpn_nrf52840_xxAA_s140_6.1.0.dir/__/__/mesh/prov/src/nrf_mesh_prov_bearer_gatt.c.obj
 .text.a_link_close_notify
                0x0003b144       0x1c examples/experimental_lpn/CMakeFiles/lpn_nrf52840_xxAA_s140_6.1.0.dir/__/__/mesh/prov/src/nrf_mesh_prov_bearer_gatt.c.obj
 .text.a_link_close
                0x0003b160       0x18 examples/experimental_lpn/CMakeFiles/lpn_nrf52840_xxAA_s140_6.1.0.dir/__/__/mesh/prov/src/nrf_mesh_prov_bearer_gatt.c.obj
 .text.link_evt_send
                0x0003b178       0x28 examples/experimental_lpn/CMakeFiles/lpn_nrf52840_xxAA_s140_6.1.0.dir/__/__/mesh/prov/src/nrf_mesh_prov_bearer_gatt.c.obj
 .text.link_close_cb
                0x0003b1a0       0x24 examples/experimental_lpn/CMakeFiles/lpn_nrf52840_xxAA_s140_6.1.0.dir/__/__/mesh/prov/src/nrf_mesh_prov_bearer_gatt.c.obj
 .text.listen_stop_cb
                0x0003b1c4       0x24 examples/experimental_lpn/CMakeFiles/lpn_nrf52840_xxAA_s140_6.1.0.dir/__/__/mesh/prov/src/nrf_mesh_prov_bearer_gatt.c.obj
 .text.listen_start_cb
                0x0003b1e8       0x34 examples/experimental_lpn/CMakeFiles/lpn_nrf52840_xxAA_s140_6.1.0.dir/__/__/mesh/prov/src/nrf_mesh_prov_bearer_gatt.c.obj
 .text.nrf_mesh_prov_bearer_gatt_init
                0x0003b21c       0x6c examples/experimental_lpn/CMakeFiles/lpn_nrf52840_xxAA_s140_6.1.0.dir/__/__/mesh/prov/src/nrf_mesh_prov_bearer_gatt.c.obj
                0x0003b21c                nrf_mesh_prov_bearer_gatt_init
 .text.nrf_mesh_prov_bearer_gatt_interface_get
                0x0003b288       0x14 examples/experimental_lpn/CMakeFiles/lpn_nrf52840_xxAA_s140_6.1.0.dir/__/__/mesh/prov/src/nrf_mesh_prov_bearer_gatt.c.obj
                0x0003b288                nrf_mesh_prov_bearer_gatt_interface_get
 .text.errata_120
                0x0003b29c       0x20 examples/experimental_lpn/CMakeFiles/lpn_nrf52840_xxAA_s140_6.1.0.dir/C_/mesh/deps/nRF5_SDK_15.2.0_9412b96/modules/nrfx/mdk/system_nrf52840.c.obj
 .text.SystemInit
                0x0003b2bc      0x1b8 examples/experimental_lpn/CMakeFiles/lpn_nrf52840_xxAA_s140_6.1.0.dir/C_/mesh/deps/nRF5_SDK_15.2.0_9412b96/modules/nrfx/mdk/system_nrf52840.c.obj
                0x0003b2bc                SystemInit
 .text          0x0003b474       0x3c examples/experimental_lpn/CMakeFiles/lpn_nrf52840_xxAA_s140_6.1.0.dir/C_/mesh/deps/nRF5_SDK_15.2.0_9412b96/modules/nrfx/mdk/gcc_startup_nrf52840.S.obj
                0x0003b474                Reset_Handler
                0x0003b49c                NMI_Handler
                0x0003b49e                HardFault_Handler
                0x0003b4a0                MemoryManagement_Handler
                0x0003b4a2                BusFault_Handler
                0x0003b4a4                UsageFault_Handler
                0x0003b4a6                SVC_Handler
                0x0003b4a8                DebugMon_Handler
                0x0003b4aa                PendSV_Handler
                0x0003b4ac                SysTick_Handler
                0x0003b4ae                TEMP_IRQHandler
                0x0003b4ae                TIMER3_IRQHandler
                0x0003b4ae                PWM3_IRQHandler
                0x0003b4ae                FPU_IRQHandler
                0x0003b4ae                USBD_IRQHandler
                0x0003b4ae                SPIM0_SPIS0_TWIM0_TWIS0_SPI0_TWI0_IRQHandler
                0x0003b4ae                PDM_IRQHandler
                0x0003b4ae                UARTE0_UART0_IRQHandler
                0x0003b4ae                TIMER4_IRQHandler
                0x0003b4ae                CRYPTOCELL_IRQHandler
                0x0003b4ae                I2S_IRQHandler
                0x0003b4ae                SWI4_EGU4_IRQHandler
                0x0003b4ae                TIMER0_IRQHandler
                0x0003b4ae                RTC0_IRQHandler
                0x0003b4ae                POWER_CLOCK_IRQHandler
                0x0003b4ae                TIMER1_IRQHandler
                0x0003b4ae                SPIM3_IRQHandler
                0x0003b4ae                PWM2_IRQHandler
                0x0003b4ae                ECB_IRQHandler
                0x0003b4ae                SPIM1_SPIS1_TWIM1_TWIS1_SPI1_TWI1_IRQHandler
                0x0003b4ae                Default_Handler
                0x0003b4ae                SAADC_IRQHandler
                0x0003b4ae                CCM_AAR_IRQHandler
                0x0003b4ae                WDT_IRQHandler
                0x0003b4ae                RADIO_IRQHandler
                0x0003b4ae                SWI5_EGU5_IRQHandler
                0x0003b4ae                RNG_IRQHandler
                0x0003b4ae                RTC2_IRQHandler
                0x0003b4ae                PWM0_IRQHandler
                0x0003b4ae                SWI3_EGU3_IRQHandler
                0x0003b4ae                SWI1_EGU1_IRQHandler
                0x0003b4ae                SPIM2_SPIS2_SPI2_IRQHandler
                0x0003b4ae                NFCT_IRQHandler
                0x0003b4ae                UARTE1_IRQHandler
                0x0003b4ae                MWU_IRQHandler
                0x0003b4ae                PWM1_IRQHandler
                0x0003b4ae                QSPI_IRQHandler
                0x0003b4ae                COMP_LPCOMP_IRQHandler
 .text.app_error_handler_bare
                0x0003b4b0       0x1a examples/experimental_lpn/CMakeFiles/lpn_nrf52840_xxAA_s140_6.1.0.dir/C_/mesh/deps/nRF5_SDK_15.2.0_9412b96/components/libraries/util/app_error.c.obj
                0x0003b4b0                app_error_handler_bare
 .text.app_error_handler
                0x0003b4ca       0x1a examples/experimental_lpn/CMakeFiles/lpn_nrf52840_xxAA_s140_6.1.0.dir/C_/mesh/deps/nRF5_SDK_15.2.0_9412b96/components/libraries/util/app_error_handler_gcc.c.obj
                0x0003b4ca                app_error_handler
 .text._GetAvailWriteSpace
                0x0003b4e4       0x1c external/rtt/librtt_nrf52840_xxAA.a(SEGGER_RTT.c.obj)
 .text._WriteNoCheck
                0x0003b500       0x3c external/rtt/librtt_nrf52840_xxAA.a(SEGGER_RTT.c.obj)
 .text._WriteBlocking
                0x0003b53c       0x52 external/rtt/librtt_nrf52840_xxAA.a(SEGGER_RTT.c.obj)
 *fill*         0x0003b58e        0x2 
 .text._DoInit  0x0003b590       0x60 external/rtt/librtt_nrf52840_xxAA.a(SEGGER_RTT.c.obj)
 .text.SEGGER_RTT_ReadNoLock
                0x0003b5f0       0x88 external/rtt/librtt_nrf52840_xxAA.a(SEGGER_RTT.c.obj)
                0x0003b5f0                SEGGER_RTT_ReadNoLock
 .text.SEGGER_RTT_Read
                0x0003b678       0x1c external/rtt/librtt_nrf52840_xxAA.a(SEGGER_RTT.c.obj)
                0x0003b678                SEGGER_RTT_Read
 .text.SEGGER_RTT_WriteNoLock
                0x0003b694       0x68 external/rtt/librtt_nrf52840_xxAA.a(SEGGER_RTT.c.obj)
                0x0003b694                SEGGER_RTT_WriteNoLock
 .text.SEGGER_RTT_Write
                0x0003b6fc       0x34 external/rtt/librtt_nrf52840_xxAA.a(SEGGER_RTT.c.obj)
                0x0003b6fc                SEGGER_RTT_Write
 .text.SEGGER_RTT_GetKey
                0x0003b730       0x20 external/rtt/librtt_nrf52840_xxAA.a(SEGGER_RTT.c.obj)
                0x0003b730                SEGGER_RTT_GetKey
 .text._StoreChar
                0x0003b750       0x3e external/rtt/librtt_nrf52840_xxAA.a(SEGGER_RTT_printf.c.obj)
 *fill*         0x0003b78e        0x2 
 .text._PrintUnsigned
                0x0003b790       0xd0 external/rtt/librtt_nrf52840_xxAA.a(SEGGER_RTT_printf.c.obj)
 .text.SEGGER_RTT_vprintf
                0x0003b860      0x246 external/rtt/librtt_nrf52840_xxAA.a(SEGGER_RTT_printf.c.obj)
                0x0003b860                SEGGER_RTT_vprintf
 .text.SEGGER_RTT_printf
                0x0003baa6       0x1e external/rtt/librtt_nrf52840_xxAA.a(SEGGER_RTT_printf.c.obj)
                0x0003baa6                SEGGER_RTT_printf
 .text.uECC_vli_mult
                0x0003bac4       0x64 external/micro-ecc/libuECC_nrf52840_xxAA.a(uECC.c.obj)
 .text.uECC_vli_clear
                0x0003bb28       0x16 external/micro-ecc/libuECC_nrf52840_xxAA.a(uECC.c.obj)
 .text.uECC_vli_isZero
                0x0003bb3e       0x1e external/micro-ecc/libuECC_nrf52840_xxAA.a(uECC.c.obj)
 .text.uECC_vli_testBit
                0x0003bb5c       0x14 external/micro-ecc/libuECC_nrf52840_xxAA.a(uECC.c.obj)
 .text.uECC_vli_numBits
                0x0003bb70       0x3a external/micro-ecc/libuECC_nrf52840_xxAA.a(uECC.c.obj)
 .text.uECC_vli_set
                0x0003bbaa       0x18 external/micro-ecc/libuECC_nrf52840_xxAA.a(uECC.c.obj)
 .text.uECC_vli_cmp_unsafe
                0x0003bbc2       0x28 external/micro-ecc/libuECC_nrf52840_xxAA.a(uECC.c.obj)
 .text.uECC_vli_rshift1
                0x0003bbea       0x1c external/micro-ecc/libuECC_nrf52840_xxAA.a(uECC.c.obj)
 .text.uECC_vli_modMult_fast
                0x0003bc06       0x20 external/micro-ecc/libuECC_nrf52840_xxAA.a(uECC.c.obj)
 .text.uECC_vli_modSquare_fast
                0x0003bc26        0x8 external/micro-ecc/libuECC_nrf52840_xxAA.a(uECC.c.obj)
 .text.apply_z  0x0003bc2e       0x3e external/micro-ecc/libuECC_nrf52840_xxAA.a(uECC.c.obj)
 .text.uECC_vli_nativeToBytes
                0x0003bc6c       0x28 external/micro-ecc/libuECC_nrf52840_xxAA.a(uECC.c.obj)
 .text.uECC_vli_bytesToNative
                0x0003bc94       0x40 external/micro-ecc/libuECC_nrf52840_xxAA.a(uECC.c.obj)
 .text.default_RNG
                0x0003bcd4        0xc external/micro-ecc/libuECC_nrf52840_xxAA.a(uECC.c.obj)
 .text.uECC_vli_add.isra.0
                0x0003bce0       0x4a external/micro-ecc/libuECC_nrf52840_xxAA.a(uECC.c.obj)
 .text.regularize_k
                0x0003bd2a       0x50 external/micro-ecc/libuECC_nrf52840_xxAA.a(uECC.c.obj)
 .text.uECC_vli_sub.isra.1
                0x0003bd7a       0x4e external/micro-ecc/libuECC_nrf52840_xxAA.a(uECC.c.obj)
 .text.uECC_vli_cmp
                0x0003bdc8       0x30 external/micro-ecc/libuECC_nrf52840_xxAA.a(uECC.c.obj)
 .text.uECC_generate_random_int
                0x0003bdf8       0x78 external/micro-ecc/libuECC_nrf52840_xxAA.a(uECC.c.obj)
 .text.uECC_vli_modAdd
                0x0003be70       0x2e external/micro-ecc/libuECC_nrf52840_xxAA.a(uECC.c.obj)
 *fill*         0x0003be9e        0x2 
 .text.vli_mmod_fast_secp256r1
                0x0003bea0      0x194 external/micro-ecc/libuECC_nrf52840_xxAA.a(uECC.c.obj)
 .text.uECC_vli_modSub.isra.2
                0x0003c034       0x1c external/micro-ecc/libuECC_nrf52840_xxAA.a(uECC.c.obj)
 .text.double_jacobian_default
                0x0003c050      0x14a external/micro-ecc/libuECC_nrf52840_xxAA.a(uECC.c.obj)
 .text.x_side_default
                0x0003c19a       0x5a external/micro-ecc/libuECC_nrf52840_xxAA.a(uECC.c.obj)
 .text.XYcZ_add
                0x0003c1f4       0xbc external/micro-ecc/libuECC_nrf52840_xxAA.a(uECC.c.obj)
 .text.XYcZ_addC
                0x0003c2b0      0x10a external/micro-ecc/libuECC_nrf52840_xxAA.a(uECC.c.obj)
 .text.vli_modInv_update
                0x0003c3ba       0x36 external/micro-ecc/libuECC_nrf52840_xxAA.a(uECC.c.obj)
 .text.uECC_vli_modInv
                0x0003c3f0      0x102 external/micro-ecc/libuECC_nrf52840_xxAA.a(uECC.c.obj)
 .text.EccPoint_mult
                0x0003c4f2      0x19e external/micro-ecc/libuECC_nrf52840_xxAA.a(uECC.c.obj)
 .text.EccPoint_compute_public_key
                0x0003c690       0x54 external/micro-ecc/libuECC_nrf52840_xxAA.a(uECC.c.obj)
 .text.uECC_secp256r1
                0x0003c6e4        0x8 external/micro-ecc/libuECC_nrf52840_xxAA.a(uECC.c.obj)
                0x0003c6e4                uECC_secp256r1
 .text.uECC_make_key
                0x0003c6ec       0x7e external/micro-ecc/libuECC_nrf52840_xxAA.a(uECC.c.obj)
                0x0003c6ec                uECC_make_key
 *fill*         0x0003c76a        0x2 
 .text.uECC_shared_secret
                0x0003c76c       0xbc external/micro-ecc/libuECC_nrf52840_xxAA.a(uECC.c.obj)
                0x0003c76c                uECC_shared_secret
 .text.uECC_valid_point
                0x0003c828       0x86 external/micro-ecc/libuECC_nrf52840_xxAA.a(uECC.c.obj)
                0x0003c828                uECC_valid_point
 .text.uECC_valid_public_key
                0x0003c8ae       0x32 external/micro-ecc/libuECC_nrf52840_xxAA.a(uECC.c.obj)
                0x0003c8ae                uECC_valid_public_key
 .text          0x0003c8e0       0x30 c:/mesh/arm_gcc/bin/../lib/gcc/arm-none-eabi/6.3.1/thumb/v7e-m/fpv4-sp/hard\libgcc.a(_aeabi_uldivmod.o)
                0x0003c8e0                __aeabi_uldivmod
 .text          0x0003c910      0x2dc c:/mesh/arm_gcc/bin/../lib/gcc/arm-none-eabi/6.3.1/thumb/v7e-m/fpv4-sp/hard\libgcc.a(_udivmoddi4.o)
                0x0003c910                __udivmoddi4
 .text          0x0003cbec        0x4 c:/mesh/arm_gcc/bin/../lib/gcc/arm-none-eabi/6.3.1/thumb/v7e-m/fpv4-sp/hard\libgcc.a(_dvmd_tls.o)
                0x0003cbec                __aeabi_idiv0
                0x0003cbec                __aeabi_ldiv0
 .text.exit     0x0003cbf0       0x28 c:/mesh/arm_gcc/bin/../lib/gcc/arm-none-eabi/6.3.1/../../../../arm-none-eabi/lib/thumb/v7e-m/fpv4-sp/hard\libg_nano.a(lib_a-exit.o)
                0x0003cbf0                exit
 .text.__libc_init_array
                0x0003cc18       0x48 c:/mesh/arm_gcc/bin/../lib/gcc/arm-none-eabi/6.3.1/../../../../arm-none-eabi/lib/thumb/v7e-m/fpv4-sp/hard\libg_nano.a(lib_a-init.o)
                0x0003cc18                __libc_init_array
 .text.malloc   0x0003cc60       0x10 c:/mesh/arm_gcc/bin/../lib/gcc/arm-none-eabi/6.3.1/../../../../arm-none-eabi/lib/thumb/v7e-m/fpv4-sp/hard\libg_nano.a(lib_a-malloc.o)
                0x0003cc60                malloc
 .text.free     0x0003cc70       0x10 c:/mesh/arm_gcc/bin/../lib/gcc/arm-none-eabi/6.3.1/../../../../arm-none-eabi/lib/thumb/v7e-m/fpv4-sp/hard\libg_nano.a(lib_a-malloc.o)
                0x0003cc70                free
 .text.memcmp   0x0003cc80       0x1e c:/mesh/arm_gcc/bin/../lib/gcc/arm-none-eabi/6.3.1/../../../../arm-none-eabi/lib/thumb/v7e-m/fpv4-sp/hard\libg_nano.a(lib_a-memcmp.o)
                0x0003cc80                memcmp
 .text.memcpy   0x0003cc9e       0x16 c:/mesh/arm_gcc/bin/../lib/gcc/arm-none-eabi/6.3.1/../../../../arm-none-eabi/lib/thumb/v7e-m/fpv4-sp/hard\libg_nano.a(lib_a-memcpy-stub.o)
                0x0003cc9e                memcpy
 .text.memset   0x0003ccb4       0x10 c:/mesh/arm_gcc/bin/../lib/gcc/arm-none-eabi/6.3.1/../../../../arm-none-eabi/lib/thumb/v7e-m/fpv4-sp/hard\libg_nano.a(lib_a-memset.o)
                0x0003ccb4                memset
 .text._free_r  0x0003ccc4       0x9c c:/mesh/arm_gcc/bin/../lib/gcc/arm-none-eabi/6.3.1/../../../../arm-none-eabi/lib/thumb/v7e-m/fpv4-sp/hard\libg_nano.a(lib_a-nano-freer.o)
                0x0003ccc4                _free_r
 .text._malloc_r
                0x0003cd60       0xbc c:/mesh/arm_gcc/bin/../lib/gcc/arm-none-eabi/6.3.1/../../../../arm-none-eabi/lib/thumb/v7e-m/fpv4-sp/hard\libg_nano.a(lib_a-nano-mallocr.o)
                0x0003cd60                _malloc_r
 .text._sbrk_r  0x0003ce1c       0x20 c:/mesh/arm_gcc/bin/../lib/gcc/arm-none-eabi/6.3.1/../../../../arm-none-eabi/lib/thumb/v7e-m/fpv4-sp/hard\libg_nano.a(lib_a-sbrkr.o)
                0x0003ce1c                _sbrk_r
 .text.strcpy   0x0003ce3c       0x10 c:/mesh/arm_gcc/bin/../lib/gcc/arm-none-eabi/6.3.1/../../../../arm-none-eabi/lib/thumb/v7e-m/fpv4-sp/hard\libg_nano.a(lib_a-strcpy.o)
                0x0003ce3c                strcpy
 .text          0x0003ce4c       0x10 c:/mesh/arm_gcc/bin/../lib/gcc/arm-none-eabi/6.3.1/../../../../arm-none-eabi/lib/thumb/v7e-m/fpv4-sp/hard\libg_nano.a(lib_a-strlen.o)
                0x0003ce4c                strlen
 .text.strrchr  0x0003ce5c       0x26 c:/mesh/arm_gcc/bin/../lib/gcc/arm-none-eabi/6.3.1/../../../../arm-none-eabi/lib/thumb/v7e-m/fpv4-sp/hard\libg_nano.a(lib_a-strrchr.o)
                0x0003ce5c                strrchr
 .text.__malloc_lock
                0x0003ce82        0x2 c:/mesh/arm_gcc/bin/../lib/gcc/arm-none-eabi/6.3.1/../../../../arm-none-eabi/lib/thumb/v7e-m/fpv4-sp/hard\libg_nano.a(lib_a-mlock.o)
                0x0003ce82                __malloc_lock
 .text.__malloc_unlock
                0x0003ce84        0x2 c:/mesh/arm_gcc/bin/../lib/gcc/arm-none-eabi/6.3.1/../../../../arm-none-eabi/lib/thumb/v7e-m/fpv4-sp/hard\libg_nano.a(lib_a-mlock.o)
                0x0003ce84                __malloc_unlock
 .text.strchr   0x0003ce86       0x1c c:/mesh/arm_gcc/bin/../lib/gcc/arm-none-eabi/6.3.1/../../../../arm-none-eabi/lib/thumb/v7e-m/fpv4-sp/hard\libg_nano.a(lib_a-strchr.o)
                0x0003ce86                strchr
 *fill*         0x0003cea2        0x2 
 .text._sbrk    0x0003cea4       0x1c c:/mesh/arm_gcc/bin/../lib/gcc/arm-none-eabi/6.3.1/../../../../arm-none-eabi/lib/thumb/v7e-m/fpv4-sp/hard\libnosys.a(sbrk.o)
                0x0003cea4                _sbrk
 .text._exit    0x0003cec0        0x4 c:/mesh/arm_gcc/bin/../lib/gcc/arm-none-eabi/6.3.1/../../../../arm-none-eabi/lib/thumb/v7e-m/fpv4-sp/hard\libnosys.a(_exit.o)
                0x0003cec0                _exit
 *(.init)
 .init          0x0003cec4        0x4 c:/mesh/arm_gcc/bin/../lib/gcc/arm-none-eabi/6.3.1/thumb/v7e-m/fpv4-sp/hard/crti.o
                0x0003cec4                _init
 .init          0x0003cec8        0x8 c:/mesh/arm_gcc/bin/../lib/gcc/arm-none-eabi/6.3.1/thumb/v7e-m/fpv4-sp/hard/crtn.o
 *(.fini)
 .fini          0x0003ced0        0x4 c:/mesh/arm_gcc/bin/../lib/gcc/arm-none-eabi/6.3.1/thumb/v7e-m/fpv4-sp/hard/crti.o
                0x0003ced0                _fini
 .fini          0x0003ced4        0x8 c:/mesh/arm_gcc/bin/../lib/gcc/arm-none-eabi/6.3.1/thumb/v7e-m/fpv4-sp/hard/crtn.o
 *crtbegin.o(.ctors)
 *crtbegin?.o(.ctors)
 *(EXCLUDE_FILE(*crtend.o *crtend?.o) .ctors)
 *(SORT(.ctors.*))
 *(.ctors)
 *crtbegin.o(.dtors)
 *crtbegin?.o(.dtors)
 *(EXCLUDE_FILE(*crtend.o *crtend?.o) .dtors)
 *(SORT(.dtors.*))
 *(.dtors)
 *(.rodata*)
 .rodata        0x0003cedc       0x18 examples/experimental_lpn/CMakeFiles/lpn_nrf52840_xxAA_s140_6.1.0.dir/src/main.c.obj
 .rodata.app_gen_onoff_client_publish_interval_cb.str1.1
                0x0003cef4       0x1f examples/experimental_lpn/CMakeFiles/lpn_nrf52840_xxAA_s140_6.1.0.dir/src/main.c.obj
 .rodata.app_generic_onoff_client_status_cb.str1.1
                0x0003cf13       0xa3 examples/experimental_lpn/CMakeFiles/lpn_nrf52840_xxAA_s140_6.1.0.dir/src/main.c.obj
 .rodata.app_mesh_core_event_cb.str1.1
                0x0003cfb6       0xcf examples/experimental_lpn/CMakeFiles/lpn_nrf52840_xxAA_s140_6.1.0.dir/src/main.c.obj
 .rodata.button_event_handler.str1.1
                0x0003d085       0xfc examples/experimental_lpn/CMakeFiles/lpn_nrf52840_xxAA_s140_6.1.0.dir/src/main.c.obj
 *fill*         0x0003d181        0x3 
 .rodata.client_cbs
                0x0003d184        0xc examples/experimental_lpn/CMakeFiles/lpn_nrf52840_xxAA_s140_6.1.0.dir/src/main.c.obj
 .rodata.m_state_on_timer
                0x0003d190        0x4 examples/experimental_lpn/CMakeFiles/lpn_nrf52840_xxAA_s140_6.1.0.dir/src/main.c.obj
 .rodata.main.str1.1
                0x0003d194       0x1f examples/experimental_lpn/CMakeFiles/lpn_nrf52840_xxAA_s140_6.1.0.dir/src/main.c.obj
 .rodata.models_init_cb.str1.1
                0x0003d1b3       0x20 examples/experimental_lpn/CMakeFiles/lpn_nrf52840_xxAA_s140_6.1.0.dir/src/main.c.obj
 .rodata.node_reset.str1.1
                0x0003d1d3       0x19 examples/experimental_lpn/CMakeFiles/lpn_nrf52840_xxAA_s140_6.1.0.dir/src/main.c.obj
 .rodata.provisioning_complete_cb.str1.1
                0x0003d1ec       0x31 examples/experimental_lpn/CMakeFiles/lpn_nrf52840_xxAA_s140_6.1.0.dir/src/main.c.obj
 .rodata.send_app_state.str1.1
                0x0003d21d       0x50 examples/experimental_lpn/CMakeFiles/lpn_nrf52840_xxAA_s140_6.1.0.dir/src/main.c.obj
 .rodata.start.str1.1
                0x0003d26d       0x15 examples/experimental_lpn/CMakeFiles/lpn_nrf52840_xxAA_s140_6.1.0.dir/src/main.c.obj
 .rodata.static_auth_data.13847
                0x0003d282       0x10 examples/experimental_lpn/CMakeFiles/lpn_nrf52840_xxAA_s140_6.1.0.dir/src/main.c.obj
 .rodata        0x0003d292        0xb examples/experimental_lpn/CMakeFiles/lpn_nrf52840_xxAA_s140_6.1.0.dir/__/common/src/mesh_provisionee.c.obj
 *fill*         0x0003d29d        0x3 
 .rodata.m_rtt_timer
                0x0003d2a0        0x4 examples/experimental_lpn/CMakeFiles/lpn_nrf52840_xxAA_s140_6.1.0.dir/__/common/src/rtt_input.c.obj
 .rodata.rtt_input_enable.str1.1
                0x0003d2a4       0x23 examples/experimental_lpn/CMakeFiles/lpn_nrf52840_xxAA_s140_6.1.0.dir/__/common/src/rtt_input.c.obj
 *fill*         0x0003d2c7        0x1 
 .rodata.m_blink_timer
                0x0003d2c8        0x4 examples/experimental_lpn/CMakeFiles/lpn_nrf52840_xxAA_s140_6.1.0.dir/__/common/src/simple_hal.c.obj
 .rodata.m_buttons_list
                0x0003d2cc        0x4 examples/experimental_lpn/CMakeFiles/lpn_nrf52840_xxAA_s140_6.1.0.dir/__/common/src/simple_hal.c.obj
 .rodata.gap_params_init.str1.1
                0x0003d2d0       0x16 examples/experimental_lpn/CMakeFiles/lpn_nrf52840_xxAA_s140_6.1.0.dir/__/common/src/ble_softdevice_support.c.obj
 .rodata.on_conn_params_evt.str1.1
                0x0003d2e6       0x5c examples/experimental_lpn/CMakeFiles/lpn_nrf52840_xxAA_s140_6.1.0.dir/__/common/src/ble_softdevice_support.c.obj
 *fill*         0x0003d342        0x2 
 .rodata.sdh_soc_observers
                0x0003d344        0xc examples/experimental_lpn/CMakeFiles/lpn_nrf52840_xxAA_s140_6.1.0.dir/C_/mesh/deps/nRF5_SDK_15.2.0_9412b96/components/softdevice/common/nrf_sdh_soc.c.obj
 .rodata.sdh_ble_observers
                0x0003d350        0xc examples/experimental_lpn/CMakeFiles/lpn_nrf52840_xxAA_s140_6.1.0.dir/C_/mesh/deps/nRF5_SDK_15.2.0_9412b96/components/softdevice/common/nrf_sdh_ble.c.obj
 .rodata        0x0003d35c        0x4 examples/experimental_lpn/CMakeFiles/lpn_nrf52840_xxAA_s140_6.1.0.dir/C_/mesh/deps/nRF5_SDK_15.2.0_9412b96/components/softdevice/common/nrf_sdh.c.obj
 .rodata.sdh_req_observers
                0x0003d360        0xc examples/experimental_lpn/CMakeFiles/lpn_nrf52840_xxAA_s140_6.1.0.dir/C_/mesh/deps/nRF5_SDK_15.2.0_9412b96/components/softdevice/common/nrf_sdh.c.obj
 .rodata.sdh_stack_observers
                0x0003d36c        0xc examples/experimental_lpn/CMakeFiles/lpn_nrf52840_xxAA_s140_6.1.0.dir/C_/mesh/deps/nRF5_SDK_15.2.0_9412b96/components/softdevice/common/nrf_sdh.c.obj
 .rodata.sdh_state_observers
                0x0003d378        0xc examples/experimental_lpn/CMakeFiles/lpn_nrf52840_xxAA_s140_6.1.0.dir/C_/mesh/deps/nRF5_SDK_15.2.0_9412b96/components/softdevice/common/nrf_sdh.c.obj
 .rodata.app_error_fault_handler.str1.1
                0x0003d384       0xbd examples/experimental_lpn/CMakeFiles/lpn_nrf52840_xxAA_s140_6.1.0.dir/__/common/src/app_error_weak.c.obj
 .rodata.mesh_assertion_handler.str1.1
                0x0003d441       0xbd examples/experimental_lpn/CMakeFiles/lpn_nrf52840_xxAA_s140_6.1.0.dir/__/common/src/assertion_handler_weak.c.obj
                                  0x1 (size before relaxing)
 .rodata.rx_source_to_tx_bearer.11941
                0x0003d441        0x6 examples/experimental_lpn/CMakeFiles/lpn_nrf52840_xxAA_s140_6.1.0.dir/__/__/mesh/core/src/transport.c.obj
 .rodata.sar_ctx_cancel.str1.1
                0x0003d447       0x23 examples/experimental_lpn/CMakeFiles/lpn_nrf52840_xxAA_s140_6.1.0.dir/__/__/mesh/core/src/transport.c.obj
 .rodata.segmented_packet_tx.str1.1
                0x0003d46a        0xe examples/experimental_lpn/CMakeFiles/lpn_nrf52840_xxAA_s140_6.1.0.dir/__/__/mesh/core/src/transport.c.obj
                                 0x16 (size before relaxing)
 .rodata.test_transport_decrypt.str1.1
                0x0003d478       0x30 examples/experimental_lpn/CMakeFiles/lpn_nrf52840_xxAA_s140_6.1.0.dir/__/__/mesh/core/src/transport.c.obj
 .rodata.transport_packet_in.str1.1
                0x0003d4a8       0x4f examples/experimental_lpn/CMakeFiles/lpn_nrf52840_xxAA_s140_6.1.0.dir/__/__/mesh/core/src/transport.c.obj
 .rodata.upper_transport_access_packet_in.str1.1
                0x0003d4f7       0x29 examples/experimental_lpn/CMakeFiles/lpn_nrf52840_xxAA_s140_6.1.0.dir/__/__/mesh/core/src/transport.c.obj
 .rodata.upper_transport_packet_in.str1.1
                0x0003d520       0x2e examples/experimental_lpn/CMakeFiles/lpn_nrf52840_xxAA_s140_6.1.0.dir/__/__/mesh/core/src/transport.c.obj
 *fill*         0x0003d54e        0x2 
 .rodata.m_procedure_steps
                0x0003d550       0x28 examples/experimental_lpn/CMakeFiles/lpn_nrf52840_xxAA_s140_6.1.0.dir/__/__/mesh/core/src/flash_manager_defrag.c.obj
 .rodata.m_all_operations
                0x0003d578       0x10 examples/experimental_lpn/CMakeFiles/lpn_nrf52840_xxAA_s140_6.1.0.dir/__/__/mesh/core/src/mesh_flash.c.obj
 .rodata.types_lookup.9526
                0x0003d588        0x4 examples/experimental_lpn/CMakeFiles/lpn_nrf52840_xxAA_s140_6.1.0.dir/__/__/mesh/core/src/nrf_mesh_utils.c.obj
 .rodata.nrf_mesh_enable.str1.1
                0x0003d58c       0x25 examples/experimental_lpn/CMakeFiles/lpn_nrf52840_xxAA_s140_6.1.0.dir/__/__/mesh/core/src/nrf_mesh.c.obj
 .rodata.nrf_mesh_listen.str1.1
                0x0003d5b1       0x70 examples/experimental_lpn/CMakeFiles/lpn_nrf52840_xxAA_s140_6.1.0.dir/__/__/mesh/core/src/nrf_mesh.c.obj
 *fill*         0x0003d621        0x1 
 .rodata.CSWTCH.7
                0x0003d622       0x10 examples/experimental_lpn/CMakeFiles/lpn_nrf52840_xxAA_s140_6.1.0.dir/__/__/mesh/core/src/hal.c.obj
 .rodata        0x0003d632       0x15 examples/experimental_lpn/CMakeFiles/lpn_nrf52840_xxAA_s140_6.1.0.dir/__/__/mesh/core/src/enc.c.obj
 .rodata.network_packet_in.str1.1
                0x0003d647       0x48 examples/experimental_lpn/CMakeFiles/lpn_nrf52840_xxAA_s140_6.1.0.dir/__/__/mesh/core/src/network.c.obj
 .rodata.try_decrypt.str1.1
                0x0003d68f       0x31 examples/experimental_lpn/CMakeFiles/lpn_nrf52840_xxAA_s140_6.1.0.dir/__/__/mesh/core/src/net_packet.c.obj
                                 0x39 (size before relaxing)
 .rodata        0x0003d6c0        0x7 examples/experimental_lpn/CMakeFiles/lpn_nrf52840_xxAA_s140_6.1.0.dir/__/__/mesh/core/src/nrf_mesh_keygen.c.obj
 .rodata.log_callback_rtt.str1.1
                0x0003d6c7       0x15 examples/experimental_lpn/CMakeFiles/lpn_nrf52840_xxAA_s140_6.1.0.dir/__/__/mesh/core/src/log.c.obj
 .rodata.str1.1
                0x0003d6dc       0x11 examples/experimental_lpn/CMakeFiles/lpn_nrf52840_xxAA_s140_6.1.0.dir/__/__/mesh/core/src/log.c.obj
 *fill*         0x0003d6ed        0x3 
 .rodata.INVALID_HEADER
                0x0003d6f0        0x4 examples/experimental_lpn/CMakeFiles/lpn_nrf52840_xxAA_s140_6.1.0.dir/__/__/mesh/core/src/flash_manager.c.obj
                0x0003d6f0                INVALID_HEADER
 .rodata.PADDING_HEADER
                0x0003d6f4        0x4 examples/experimental_lpn/CMakeFiles/lpn_nrf52840_xxAA_s140_6.1.0.dir/__/__/mesh/core/src/flash_manager.c.obj
                0x0003d6f4                PADDING_HEADER
 .rodata.SEAL_HEADER
                0x0003d6f8        0x4 examples/experimental_lpn/CMakeFiles/lpn_nrf52840_xxAA_s140_6.1.0.dir/__/__/mesh/core/src/flash_manager.c.obj
                0x0003d6f8                SEAL_HEADER
 .rodata.beacon_packet_in.str1.1
                0x0003d6fc       0x51 examples/experimental_lpn/CMakeFiles/lpn_nrf52840_xxAA_s140_6.1.0.dir/__/__/mesh/core/src/beacon.c.obj
                                 0x59 (size before relaxing)
 *fill*         0x0003d74d        0x1 
 .rodata.__compound_literal.0
                0x0003d74e        0x4 examples/experimental_lpn/CMakeFiles/lpn_nrf52840_xxAA_s140_6.1.0.dir/__/__/mesh/core/src/heartbeat.c.obj
 .rodata.__compound_literal.1
                0x0003d752        0x4 examples/experimental_lpn/CMakeFiles/lpn_nrf52840_xxAA_s140_6.1.0.dir/__/__/mesh/core/src/heartbeat.c.obj
 .rodata.__compound_literal.2
                0x0003d756        0x4 examples/experimental_lpn/CMakeFiles/lpn_nrf52840_xxAA_s140_6.1.0.dir/__/__/mesh/core/src/heartbeat.c.obj
 *fill*         0x0003d75a        0x2 
 .rodata.cp_handler
                0x0003d75c        0x8 examples/experimental_lpn/CMakeFiles/lpn_nrf52840_xxAA_s140_6.1.0.dir/__/__/mesh/core/src/heartbeat.c.obj
 .rodata.__compound_literal.0
                0x0003d764        0x4 examples/experimental_lpn/CMakeFiles/lpn_nrf52840_xxAA_s140_6.1.0.dir/__/__/mesh/core/src/net_beacon.c.obj
 .rodata.beacon_tx.str1.1
                0x0003d768       0x35 examples/experimental_lpn/CMakeFiles/lpn_nrf52840_xxAA_s140_6.1.0.dir/__/__/mesh/core/src/net_beacon.c.obj
 .rodata.net_beacon_init.str1.1
                0x0003d79d        0x5 examples/experimental_lpn/CMakeFiles/lpn_nrf52840_xxAA_s140_6.1.0.dir/__/__/mesh/core/src/net_beacon.c.obj
 .rodata.action_map.10740
                0x0003d7a2        0x2 examples/experimental_lpn/CMakeFiles/lpn_nrf52840_xxAA_s140_6.1.0.dir/__/__/mesh/core/src/mesh_config_flashman_glue.c.obj
 .rodata.lpn_fsm_actions
                0x0003d7a4       0x2c examples/experimental_lpn/CMakeFiles/lpn_nrf52840_xxAA_s140_6.1.0.dir/__/__/mesh/core/src/lpn.c.obj
 .rodata.lpn_fsm_guards
                0x0003d7d0       0x18 examples/experimental_lpn/CMakeFiles/lpn_nrf52840_xxAA_s140_6.1.0.dir/__/__/mesh/core/src/lpn.c.obj
 .rodata.m_incoming_command_handler
                0x0003d7e8       0x10 examples/experimental_lpn/CMakeFiles/lpn_nrf52840_xxAA_s140_6.1.0.dir/__/__/mesh/core/src/lpn.c.obj
 .rodata.m_lpn_fsm_descriptor
                0x0003d7f8       0x10 examples/experimental_lpn/CMakeFiles/lpn_nrf52840_xxAA_s140_6.1.0.dir/__/__/mesh/core/src/lpn.c.obj
 .rodata.m_lpn_fsm_transition_table
                0x0003d808       0x50 examples/experimental_lpn/CMakeFiles/lpn_nrf52840_xxAA_s140_6.1.0.dir/__/__/mesh/core/src/lpn.c.obj
 .rodata.transmit_and_reschedule.str1.1
                0x0003d858       0x35 examples/experimental_lpn/CMakeFiles/lpn_nrf52840_xxAA_s140_6.1.0.dir/__/__/mesh/core/src/lpn.c.obj
 *fill*         0x0003d88d        0x3 
 .rodata.m_bearer_if
                0x0003d890        0xc examples/experimental_lpn/CMakeFiles/lpn_nrf52840_xxAA_s140_6.1.0.dir/__/__/mesh/core/src/core_tx_lpn.c.obj
 .rodata.m_fsc_handler
                0x0003d89c        0x8 examples/experimental_lpn/CMakeFiles/lpn_nrf52840_xxAA_s140_6.1.0.dir/__/__/mesh/core/src/mesh_lpn_subman.c.obj
 .rodata.subman_friend_subscription_confirm_handle.str1.1
                0x0003d8a4       0x51 examples/experimental_lpn/CMakeFiles/lpn_nrf52840_xxAA_s140_6.1.0.dir/__/__/mesh/core/src/mesh_lpn_subman.c.obj
 *fill*         0x0003d8f5        0x1 
 .rodata.__compound_literal.0
                0x0003d8f6        0x4 examples/experimental_lpn/CMakeFiles/lpn_nrf52840_xxAA_s140_6.1.0.dir/__/__/mesh/core/src/core_tx_adv.c.obj
 .rodata.__compound_literal.1
                0x0003d8fa        0x4 examples/experimental_lpn/CMakeFiles/lpn_nrf52840_xxAA_s140_6.1.0.dir/__/__/mesh/core/src/core_tx_adv.c.obj
 .rodata.__compound_literal.2
                0x0003d8fe        0x4 examples/experimental_lpn/CMakeFiles/lpn_nrf52840_xxAA_s140_6.1.0.dir/__/__/mesh/core/src/core_tx_adv.c.obj
 .rodata.m_default_tx_power
                0x0003d902        0x1 examples/experimental_lpn/CMakeFiles/lpn_nrf52840_xxAA_s140_6.1.0.dir/__/__/mesh/core/src/core_tx_adv.c.obj
 *fill*         0x0003d903        0x1 
 .rodata.m_interface
                0x0003d904        0xc examples/experimental_lpn/CMakeFiles/lpn_nrf52840_xxAA_s140_6.1.0.dir/__/__/mesh/core/src/core_tx_adv.c.obj
 .rodata.radio_mode_to_us_per_byte.9890
                0x0003d910        0x6 examples/experimental_lpn/CMakeFiles/lpn_nrf52840_xxAA_s140_6.1.0.dir/__/__/mesh/bearer/src/broadcast.c.obj
 .rodata.channel_rf_offsets.9025
                0x0003d916       0x28 examples/experimental_lpn/CMakeFiles/lpn_nrf52840_xxAA_s140_6.1.0.dir/__/__/mesh/bearer/src/radio_config.c.obj
 .rodata        0x0003d93e        0x3 examples/experimental_lpn/CMakeFiles/lpn_nrf52840_xxAA_s140_6.1.0.dir/__/__/mesh/bearer/src/scanner.c.obj
 *fill*         0x0003d941        0x1 
 .rodata        0x0003d942        0x6 examples/experimental_lpn/CMakeFiles/lpn_nrf52840_xxAA_s140_6.1.0.dir/__/__/mesh/gatt/src/proxy.c.obj
 .rodata.C.45.11952
                0x0003d948        0x4 examples/experimental_lpn/CMakeFiles/lpn_nrf52840_xxAA_s140_6.1.0.dir/__/__/mesh/gatt/src/proxy.c.obj
 .rodata.gatt_evt_handler.str1.1
                0x0003d94c       0xd9 examples/experimental_lpn/CMakeFiles/lpn_nrf52840_xxAA_s140_6.1.0.dir/__/__/mesh/gatt/src/proxy.c.obj
 *fill*         0x0003da25        0x3 
 .rodata.m_interface
                0x0003da28        0xc examples/experimental_lpn/CMakeFiles/lpn_nrf52840_xxAA_s140_6.1.0.dir/__/__/mesh/gatt/src/proxy.c.obj
 .rodata.m_opcode_handlers
                0x0003da34        0x8 examples/experimental_lpn/CMakeFiles/lpn_nrf52840_xxAA_s140_6.1.0.dir/__/__/models/model_spec/generic_onoff/src/generic_onoff_client.c.obj
 .rodata.CSWTCH.124
                0x0003da3c       0x10 examples/experimental_lpn/CMakeFiles/lpn_nrf52840_xxAA_s140_6.1.0.dir/__/__/models/foundation/config/src/config_server.c.obj
 .rodata.handle_appkey_add.str1.1
                0x0003da4c       0x62 examples/experimental_lpn/CMakeFiles/lpn_nrf52840_xxAA_s140_6.1.0.dir/__/__/models/foundation/config/src/config_server.c.obj
 .rodata.handle_model_app_bind_unbind.str1.1
                0x0003daae       0x45 examples/experimental_lpn/CMakeFiles/lpn_nrf52840_xxAA_s140_6.1.0.dir/__/__/models/foundation/config/src/config_server.c.obj
 *fill*         0x0003daf3        0x1 
 .rodata.opcode_handlers
                0x0003daf4      0x170 examples/experimental_lpn/CMakeFiles/lpn_nrf52840_xxAA_s140_6.1.0.dir/__/__/models/foundation/config/src/config_server.c.obj
 .rodata.m_opcode_handlers
                0x0003dc64       0x58 examples/experimental_lpn/CMakeFiles/lpn_nrf52840_xxAA_s140_6.1.0.dir/__/__/models/foundation/health/src/health_server.c.obj
 .rodata.multiply_de_bruijn_bit_position.9643
                0x0003dcbc       0x20 examples/experimental_lpn/CMakeFiles/lpn_nrf52840_xxAA_s140_6.1.0.dir/__/__/models/foundation/health/src/health_server.c.obj
 .rodata.mesh_evt_cb.str1.1
                0x0003dcdc       0x13 examples/experimental_lpn/CMakeFiles/lpn_nrf52840_xxAA_s140_6.1.0.dir/__/__/mesh/access/src/access.c.obj
 .rodata.multiply_de_bruijn_bit_position.9599
                0x0003dcef       0x20 examples/experimental_lpn/CMakeFiles/lpn_nrf52840_xxAA_s140_6.1.0.dir/__/__/mesh/access/src/access.c.obj
 .rodata.packet_tx.str1.1
                0x0003dd0f       0x38 examples/experimental_lpn/CMakeFiles/lpn_nrf52840_xxAA_s140_6.1.0.dir/__/__/mesh/access/src/access.c.obj
                                 0x40 (size before relaxing)
 .rodata.reliable_timer_cb.str1.1
                0x0003dd47       0x47 examples/experimental_lpn/CMakeFiles/lpn_nrf52840_xxAA_s140_6.1.0.dir/__/__/mesh/access/src/access_reliable.c.obj
 *fill*         0x0003dd8e        0x2 
 .rodata.m_flash_groups
                0x0003dd90       0xa8 examples/experimental_lpn/CMakeFiles/lpn_nrf52840_xxAA_s140_6.1.0.dir/__/__/mesh/access/src/device_state_manager.c.obj
 .rodata.multiply_de_bruijn_bit_position.9880
                0x0003de38       0x20 examples/experimental_lpn/CMakeFiles/lpn_nrf52840_xxAA_s140_6.1.0.dir/__/__/mesh/access/src/device_state_manager.c.obj
 *fill*         0x0003de58        0x8 
 .rodata.delay_bytecode.9305
                0x0003de60        0x6 examples/experimental_lpn/CMakeFiles/lpn_nrf52840_xxAA_s140_6.1.0.dir/__/__/external/app_timer/app_timer_mesh.c.obj
 *fill*         0x0003de66        0x2 
 .rodata.m_prov_callbacks
                0x0003de68       0x10 examples/experimental_lpn/CMakeFiles/lpn_nrf52840_xxAA_s140_6.1.0.dir/__/__/mesh/prov/src/prov_provisionee.c.obj
 .rodata.prov_provisionee_cb_ack_received.str1.1
                0x0003de78       0x53 examples/experimental_lpn/CMakeFiles/lpn_nrf52840_xxAA_s140_6.1.0.dir/__/__/mesh/prov/src/prov_provisionee.c.obj
 .rodata.multiply_de_bruijn_bit_position.9651
                0x0003decb       0x20 examples/experimental_lpn/CMakeFiles/lpn_nrf52840_xxAA_s140_6.1.0.dir/__/__/mesh/prov/src/nrf_mesh_prov.c.obj
 .rodata.pdu_sizes.10160
                0x0003deeb        0xa examples/experimental_lpn/CMakeFiles/lpn_nrf52840_xxAA_s140_6.1.0.dir/__/__/mesh/prov/src/provisioning.c.obj
 *fill*         0x0003def5        0x1 
 .rodata.C.8.11628
                0x0003def6        0x4 examples/experimental_lpn/CMakeFiles/lpn_nrf52840_xxAA_s140_6.1.0.dir/__/__/mesh/prov/src/prov_utils.c.obj
 .rodata.alphanumeric.11549
                0x0003defa       0x25 examples/experimental_lpn/CMakeFiles/lpn_nrf52840_xxAA_s140_6.1.0.dir/__/__/mesh/prov/src/prov_utils.c.obj
 .rodata.m_ecdh_offloading_default
                0x0003df1f        0x1 examples/experimental_lpn/CMakeFiles/lpn_nrf52840_xxAA_s140_6.1.0.dir/__/__/mesh/prov/src/prov_utils.c.obj
 .rodata.numeric_max.11543
                0x0003df20       0x24 examples/experimental_lpn/CMakeFiles/lpn_nrf52840_xxAA_s140_6.1.0.dir/__/__/mesh/prov/src/prov_utils.c.obj
 .rodata.prov_utils_authentication_values_derive.str1.1
                0x0003df44        0x5 examples/experimental_lpn/CMakeFiles/lpn_nrf52840_xxAA_s140_6.1.0.dir/__/__/mesh/prov/src/prov_utils.c.obj
 .rodata.prov_utils_derive_keys.str1.1
                0x0003df49        0xf examples/experimental_lpn/CMakeFiles/lpn_nrf52840_xxAA_s140_6.1.0.dir/__/__/mesh/prov/src/prov_utils.c.obj
 .rodata.m_pb_gatt_fsm_descriptor
                0x0003df58       0x10 examples/experimental_lpn/CMakeFiles/lpn_nrf52840_xxAA_s140_6.1.0.dir/__/__/mesh/prov/src/nrf_mesh_prov_bearer_gatt.c.obj
 .rodata.m_pb_gatt_fsm_transition_table
                0x0003df68       0x48 examples/experimental_lpn/CMakeFiles/lpn_nrf52840_xxAA_s140_6.1.0.dir/__/__/mesh/prov/src/nrf_mesh_prov_bearer_gatt.c.obj
 .rodata.pb_gatt_fsm_actions
                0x0003dfb0       0x24 examples/experimental_lpn/CMakeFiles/lpn_nrf52840_xxAA_s140_6.1.0.dir/__/__/mesh/prov/src/nrf_mesh_prov_bearer_gatt.c.obj
 .rodata.prov_bearer_interface.10171
                0x0003dfd4       0x14 examples/experimental_lpn/CMakeFiles/lpn_nrf52840_xxAA_s140_6.1.0.dir/__/__/mesh/prov/src/nrf_mesh_prov_bearer_gatt.c.obj
 .rodata._DoInit.str1.1
                0x0003dfe8       0x14 external/rtt/librtt_nrf52840_xxAA.a(SEGGER_RTT.c.obj)
 .rodata._aV2C.5497
                0x0003dffc       0x10 external/rtt/librtt_nrf52840_xxAA.a(SEGGER_RTT_printf.c.obj)
 .rodata.curve_secp256r1
                0x0003e00c       0xb0 external/micro-ecc/libuECC_nrf52840_xxAA.a(uECC.c.obj)
 .rodata._global_impure_ptr
                0x0003e0bc        0x4 c:/mesh/arm_gcc/bin/../lib/gcc/arm-none-eabi/6.3.1/../../../../arm-none-eabi/lib/thumb/v7e-m/fpv4-sp/hard\libg_nano.a(lib_a-impure.o)
                0x0003e0bc                _global_impure_ptr
 *(.eh_frame*)
 .eh_frame      0x0003e0c0        0x0 c:/mesh/arm_gcc/bin/../lib/gcc/arm-none-eabi/6.3.1/thumb/v7e-m/fpv4-sp/hard/crtbegin.o
 .eh_frame      0x0003e0c0        0x4 c:/mesh/arm_gcc/bin/../lib/gcc/arm-none-eabi/6.3.1/thumb/v7e-m/fpv4-sp/hard/crtend.o

.glue_7         0x0003e0c4        0x0
 .glue_7        0x0003e0c4        0x0 linker stubs

.glue_7t        0x0003e0c4        0x0
 .glue_7t       0x0003e0c4        0x0 linker stubs

.vfp11_veneer   0x0003e0c4        0x0
 .vfp11_veneer  0x0003e0c4        0x0 linker stubs

.v4_bx          0x0003e0c4        0x0
 .v4_bx         0x0003e0c4        0x0 linker stubs

.iplt           0x0003e0c4        0x0
 .iplt          0x0003e0c4        0x0 c:/mesh/arm_gcc/bin/../lib/gcc/arm-none-eabi/6.3.1/thumb/v7e-m/fpv4-sp/hard/crtbegin.o

.sdh_ble_observers
                0x0003e0c4       0x10
                0x0003e0c4                PROVIDE (__start_sdh_ble_observers, .)
 *(SORT(.sdh_ble_observers*))
 .sdh_ble_observers1
                0x0003e0c4        0x8 examples/experimental_lpn/CMakeFiles/lpn_nrf52840_xxAA_s140_6.1.0.dir/C_/mesh/deps/nRF5_SDK_15.2.0_9412b96/components/ble/common/ble_conn_params.c.obj
 .sdh_ble_observers2
                0x0003e0cc        0x8 examples/experimental_lpn/CMakeFiles/lpn_nrf52840_xxAA_s140_6.1.0.dir/__/__/mesh/gatt/src/mesh_gatt.c.obj
                0x0003e0d4                PROVIDE (__stop_sdh_ble_observers, .)

.sdh_soc_observers
                0x0003e0d4        0x8
                0x0003e0d4                PROVIDE (__start_sdh_soc_observers, .)
 *(SORT(.sdh_soc_observers*))
 .sdh_soc_observers0
                0x0003e0d4        0x8 examples/experimental_lpn/CMakeFiles/lpn_nrf52840_xxAA_s140_6.1.0.dir/__/common/src/ble_softdevice_support.c.obj
                0x0003e0dc                PROVIDE (__stop_sdh_soc_observers, .)

.sdh_stack_observers
                0x0003e0dc       0x10
                0x0003e0dc                PROVIDE (__start_sdh_stack_observers, .)
 *(SORT(.sdh_stack_observers*))
 .sdh_stack_observers0
                0x0003e0dc        0x8 examples/experimental_lpn/CMakeFiles/lpn_nrf52840_xxAA_s140_6.1.0.dir/C_/mesh/deps/nRF5_SDK_15.2.0_9412b96/components/softdevice/common/nrf_sdh_soc.c.obj
 .sdh_stack_observers0
                0x0003e0e4        0x8 examples/experimental_lpn/CMakeFiles/lpn_nrf52840_xxAA_s140_6.1.0.dir/C_/mesh/deps/nRF5_SDK_15.2.0_9412b96/components/softdevice/common/nrf_sdh_ble.c.obj
                0x0003e0ec                PROVIDE (__stop_sdh_stack_observers, .)

.sdh_req_observers
                0x0003e0ec        0x0
                0x0003e0ec                PROVIDE (__start_sdh_req_observers, .)
 *(SORT(.sdh_req_observers*))
                0x0003e0ec                PROVIDE (__stop_sdh_req_observers, .)

.sdh_state_observers
                0x0003e0ec        0x8
                0x0003e0ec                PROVIDE (__start_sdh_state_observers, .)
 *(SORT(.sdh_state_observers*))
 .sdh_state_observers1
                0x0003e0ec        0x8 examples/experimental_lpn/CMakeFiles/lpn_nrf52840_xxAA_s140_6.1.0.dir/__/common/src/mesh_provisionee.c.obj
                0x0003e0f4                PROVIDE (__stop_sdh_state_observers, .)

.nrf_queue      0x0003e0f4        0x0
                [!provide]                PROVIDE (__start_nrf_queue, .)
 *(.nrf_queue)
                [!provide]                PROVIDE (__stop_nrf_queue, .)

.nrf_balloc     0x0003e0f4        0x0
                [!provide]                PROVIDE (__start_nrf_balloc, .)
 *(.nrf_balloc)
                [!provide]                PROVIDE (__stop_nrf_balloc, .)

.cli_command    0x0003e0f4        0x0
                [!provide]                PROVIDE (__start_cli_command, .)
 *(.cli_command)
                [!provide]                PROVIDE (__stop_cli_command, .)

.crypto_data    0x0003e0f4        0x0
                [!provide]                PROVIDE (__start_crypto_data, .)
 *(SORT(.crypto_data*))
                [!provide]                PROVIDE (__stop_crypto_data, .)

.pwr_mgmt_data  0x0003e0f4        0x0
                [!provide]                PROVIDE (__start_pwr_mgmt_data, .)
 *(SORT(.pwr_mgmt_data*))
                [!provide]                PROVIDE (__stop_pwr_mgmt_data, .)

.log_const_data
                0x0003e0f4        0x0
                [!provide]                PROVIDE (__start_log_const_data, .)
 *(SORT(.log_const_data*))
                [!provide]                PROVIDE (__stop_log_const_data, .)

.log_backends   0x0003e0f4        0x0
                [!provide]                PROVIDE (__start_log_backends, .)
 *(SORT(.log_backends*))
                [!provide]                PROVIDE (__stop_log_backends, .)

.nrf_mesh_flash
                0x0003e0f4       0xdc
                [!provide]                PROVIDE (__start_nrf_mesh_flash, .)
 *(SORT(.nrf_mesh_flash.*))
 .nrf_mesh_flash.mesh_config_entries__0
                0x0003e0f4        0x0 examples/experimental_lpn/CMakeFiles/lpn_nrf52840_xxAA_s140_6.1.0.dir/__/__/mesh/core/src/mesh_config.c.obj
                0x0003e0f4                __nrf_mesh_start_mesh_config_entries
 .nrf_mesh_flash.mesh_config_entries__1
                0x0003e0f4       0x1c examples/experimental_lpn/CMakeFiles/lpn_nrf52840_xxAA_s140_6.1.0.dir/__/__/mesh/core/src/heartbeat.c.obj
                0x0003e0f4                m_heartbeat_publication_params
 .nrf_mesh_flash.mesh_config_entries__1
                0x0003e110       0x1c examples/experimental_lpn/CMakeFiles/lpn_nrf52840_xxAA_s140_6.1.0.dir/__/__/mesh/core/src/net_beacon.c.obj
                0x0003e110                m_net_beacon_enable_params
 .nrf_mesh_flash.mesh_config_entries__1
                0x0003e12c       0x54 examples/experimental_lpn/CMakeFiles/lpn_nrf52840_xxAA_s140_6.1.0.dir/__/__/mesh/core/src/core_tx_adv.c.obj
                0x0003e12c                m_mesh_opt_core_adv_addr_params
                0x0003e148                m_mesh_opt_core_tx_power_params
                0x0003e164                m_mesh_opt_core_adv_params
 .nrf_mesh_flash.mesh_config_entries__1
                0x0003e180       0x1c examples/experimental_lpn/CMakeFiles/lpn_nrf52840_xxAA_s140_6.1.0.dir/__/__/mesh/gatt/src/proxy.c.obj
                0x0003e180                m_mesh_opt_gatt_proxy_params
 .nrf_mesh_flash.mesh_config_entries__1
                0x0003e19c       0x1c examples/experimental_lpn/CMakeFiles/lpn_nrf52840_xxAA_s140_6.1.0.dir/__/__/mesh/prov/src/prov_utils.c.obj
                0x0003e19c                m_ecdh_offloading_params
 .nrf_mesh_flash.mesh_config_entries__2
                0x0003e1b8        0x0 examples/experimental_lpn/CMakeFiles/lpn_nrf52840_xxAA_s140_6.1.0.dir/__/__/mesh/core/src/mesh_config.c.obj
                0x0003e1b8                __nrf_mesh_stop_mesh_config_entries
 .nrf_mesh_flash.mesh_config_entry_listeners__0
                0x0003e1b8        0x0 examples/experimental_lpn/CMakeFiles/lpn_nrf52840_xxAA_s140_6.1.0.dir/__/__/mesh/core/src/mesh_config.c.obj
                0x0003e1b8                __nrf_mesh_start_mesh_config_entry_listeners
 .nrf_mesh_flash.mesh_config_entry_listeners__1
                0x0003e1b8       0x10 examples/experimental_lpn/CMakeFiles/lpn_nrf52840_xxAA_s140_6.1.0.dir/__/__/mesh/core/src/heartbeat.c.obj
                0x0003e1b8                m_heartbeat_proxy_listener
                0x0003e1c0                m_heartbeat_relay_listener
 .nrf_mesh_flash.mesh_config_entry_listeners__2
                0x0003e1c8        0x0 examples/experimental_lpn/CMakeFiles/lpn_nrf52840_xxAA_s140_6.1.0.dir/__/__/mesh/core/src/mesh_config.c.obj
                0x0003e1c8                __nrf_mesh_stop_mesh_config_entry_listeners
 .nrf_mesh_flash.mesh_config_files__0
                0x0003e1c8        0x0 examples/experimental_lpn/CMakeFiles/lpn_nrf52840_xxAA_s140_6.1.0.dir/__/__/mesh/core/src/mesh_config.c.obj
                0x0003e1c8                __nrf_mesh_start_mesh_config_files
 .nrf_mesh_flash.mesh_config_files__1
                0x0003e1c8        0x8 examples/experimental_lpn/CMakeFiles/lpn_nrf52840_xxAA_s140_6.1.0.dir/__/__/mesh/core/src/mesh_opt.c.obj
                0x0003e1c8                m_mesh_opt_core_file
 .nrf_mesh_flash.mesh_config_files__2
                0x0003e1d0        0x0 examples/experimental_lpn/CMakeFiles/lpn_nrf52840_xxAA_s140_6.1.0.dir/__/__/mesh/core/src/mesh_config.c.obj
                0x0003e1d0                __nrf_mesh_stop_mesh_config_files
                [!provide]                PROVIDE (__stop_nrf_mesh_flash, .)

.ARM.extab
 *(.ARM.extab* .gnu.linkonce.armextab.*)
                0x0003e1d0                __exidx_start = .

.ARM.exidx      0x0003e1d0        0x8
 *(.ARM.exidx* .gnu.linkonce.armexidx.*)
 .ARM.exidx     0x0003e1d0        0x8 c:/mesh/arm_gcc/bin/../lib/gcc/arm-none-eabi/6.3.1/../../../../arm-none-eabi/lib/thumb/v7e-m/fpv4-sp/hard/crt0.o
 .ARM.exidx     0x0003e1d8        0x0 c:/mesh/arm_gcc/bin/../lib/gcc/arm-none-eabi/6.3.1/thumb/v7e-m/fpv4-sp/hard\libgcc.a(_udivmoddi4.o)
                                  0x8 (size before relaxing)
                0x0003e1d8                __exidx_end = .
                0x0003e1d8                __etext = .

.rel.dyn        0x0003e1d8        0x0
 .rel.iplt      0x0003e1d8        0x0 c:/mesh/arm_gcc/bin/../lib/gcc/arm-none-eabi/6.3.1/thumb/v7e-m/fpv4-sp/hard/crtbegin.o

.data           0x20002da0      0x19c load address 0x0003e1d8
                0x20002da0                __data_start__ = .
 *(vtable)
 *(.data*)
 .data.m_mesh_core_event_handler
                0x20002da0        0xc examples/experimental_lpn/CMakeFiles/lpn_nrf52840_xxAA_s140_6.1.0.dir/src/main.c.obj
 .data.s_evt_handler.12278
                0x20002dac        0xc examples/experimental_lpn/CMakeFiles/lpn_nrf52840_xxAA_s140_6.1.0.dir/__/__/mesh/stack/src/mesh_stack.c.obj
 .data.m_mesh_evt_handler
                0x20002db8        0xc examples/experimental_lpn/CMakeFiles/lpn_nrf52840_xxAA_s140_6.1.0.dir/__/common/src/mesh_provisionee.c.obj
 .data.m_adv_handle
                0x20002dc4        0x1 examples/experimental_lpn/CMakeFiles/lpn_nrf52840_xxAA_s140_6.1.0.dir/__/common/src/mesh_adv.c.obj
 *fill*         0x20002dc5        0x3 
 .data.m_adv_params
                0x20002dc8       0x18 examples/experimental_lpn/CMakeFiles/lpn_nrf52840_xxAA_s140_6.1.0.dir/__/common/src/mesh_adv.c.obj
 .data.wait.9226
                0x20002de0        0x1 examples/experimental_lpn/CMakeFiles/lpn_nrf52840_xxAA_s140_6.1.0.dir/__/common/src/app_error_weak.c.obj
 *fill*         0x20002de1        0x3 
 .data.s_mesh_evt_handler.12024
                0x20002de4        0xc examples/experimental_lpn/CMakeFiles/lpn_nrf52840_xxAA_s140_6.1.0.dir/__/__/mesh/core/src/transport.c.obj
 .data.mem_listener.10777
                0x20002df0       0x10 examples/experimental_lpn/CMakeFiles/lpn_nrf52840_xxAA_s140_6.1.0.dir/__/__/mesh/core/src/net_state.c.obj
 .data.mem_listener.10782
                0x20002e00       0x10 examples/experimental_lpn/CMakeFiles/lpn_nrf52840_xxAA_s140_6.1.0.dir/__/__/mesh/core/src/net_state.c.obj
 .data.mem_listener.10796
                0x20002e10       0x10 examples/experimental_lpn/CMakeFiles/lpn_nrf52840_xxAA_s140_6.1.0.dir/__/__/mesh/core/src/net_state.c.obj
 .data.mem_listener.10813
                0x20002e20       0x10 examples/experimental_lpn/CMakeFiles/lpn_nrf52840_xxAA_s140_6.1.0.dir/__/__/mesh/core/src/net_state.c.obj
 .data.m_nrf_mesh_listener
                0x20002e30        0xc examples/experimental_lpn/CMakeFiles/lpn_nrf52840_xxAA_s140_6.1.0.dir/__/__/mesh/core/src/nrf_mesh.c.obj
 .data.g_log_dbg_lvl
                0x20002e3c        0x4 examples/experimental_lpn/CMakeFiles/lpn_nrf52840_xxAA_s140_6.1.0.dir/__/__/mesh/core/src/log.c.obj
                0x20002e3c                g_log_dbg_lvl
 .data.g_log_dbg_msk
                0x20002e40        0x4 examples/experimental_lpn/CMakeFiles/lpn_nrf52840_xxAA_s140_6.1.0.dir/__/__/mesh/core/src/log.c.obj
                0x20002e40                g_log_dbg_msk
 .data.g_log_hex_digits
                0x20002e44        0x4 examples/experimental_lpn/CMakeFiles/lpn_nrf52840_xxAA_s140_6.1.0.dir/__/__/mesh/core/src/log.c.obj
                0x20002e44                g_log_hex_digits
 .data.m_log_callback
                0x20002e48        0x4 examples/experimental_lpn/CMakeFiles/lpn_nrf52840_xxAA_s140_6.1.0.dir/__/__/mesh/core/src/log.c.obj
                0x20002e48                m_log_callback
 .data.m_adv_channels
                0x20002e4c        0x3 examples/experimental_lpn/CMakeFiles/lpn_nrf52840_xxAA_s140_6.1.0.dir/__/__/mesh/core/src/core_tx_lpn.c.obj
 *fill*         0x20002e4f        0x1 
 .data.m_lpn_subman_evt_handler
                0x20002e50        0xc examples/experimental_lpn/CMakeFiles/lpn_nrf52840_xxAA_s140_6.1.0.dir/__/__/mesh/core/src/mesh_lpn_subman.c.obj
 .data.m_default_adv
                0x20002e5c        0x4 examples/experimental_lpn/CMakeFiles/lpn_nrf52840_xxAA_s140_6.1.0.dir/__/__/mesh/core/src/core_tx_adv.c.obj
 .data.m_enabled
                0x20002e60        0x1 examples/experimental_lpn/CMakeFiles/lpn_nrf52840_xxAA_s140_6.1.0.dir/__/__/mesh/gatt/src/proxy.c.obj
 *fill*         0x20002e61        0x1 
 .data.m_config_server_handle
                0x20002e62        0x2 examples/experimental_lpn/CMakeFiles/lpn_nrf52840_xxAA_s140_6.1.0.dir/__/__/models/foundation/config/src/config_server.c.obj
 .data.m_mesh_evt_handler
                0x20002e64        0xc examples/experimental_lpn/CMakeFiles/lpn_nrf52840_xxAA_s140_6.1.0.dir/__/__/models/foundation/config/src/config_server.c.obj
 .data.flash_add_mem_available_struct.11373
                0x20002e70       0x10 examples/experimental_lpn/CMakeFiles/lpn_nrf52840_xxAA_s140_6.1.0.dir/__/__/mesh/access/src/access.c.obj
 .data.flash_clear_mem_available_struct.11466
                0x20002e80       0x10 examples/experimental_lpn/CMakeFiles/lpn_nrf52840_xxAA_s140_6.1.0.dir/__/__/mesh/access/src/access.c.obj
 .data.flash_store_mem_available_struct.11490
                0x20002e90       0x10 examples/experimental_lpn/CMakeFiles/lpn_nrf52840_xxAA_s140_6.1.0.dir/__/__/mesh/access/src/access.c.obj
 .data.m_access_flash_stable
                0x20002ea0        0x1 examples/experimental_lpn/CMakeFiles/lpn_nrf52840_xxAA_s140_6.1.0.dir/__/__/mesh/access/src/access.c.obj
 .data.m_default_ttl
                0x20002ea1        0x1 examples/experimental_lpn/CMakeFiles/lpn_nrf52840_xxAA_s140_6.1.0.dir/__/__/mesh/access/src/access.c.obj
 *fill*         0x20002ea2        0x2 
 .data.mem_listener.12328
                0x20002ea4       0x10 examples/experimental_lpn/CMakeFiles/lpn_nrf52840_xxAA_s140_6.1.0.dir/__/__/mesh/access/src/device_state_manager.c.obj
 .data.mem_listener.12354
                0x20002eb4       0x10 examples/experimental_lpn/CMakeFiles/lpn_nrf52840_xxAA_s140_6.1.0.dir/__/__/mesh/access/src/device_state_manager.c.obj
 .data.SystemCoreClock
                0x20002ec4        0x4 examples/experimental_lpn/CMakeFiles/lpn_nrf52840_xxAA_s140_6.1.0.dir/C_/mesh/deps/nRF5_SDK_15.2.0_9412b96/modules/nrfx/mdk/system_nrf52840.c.obj
                0x20002ec4                SystemCoreClock
 .data.g_rng_function
                0x20002ec8        0x4 external/micro-ecc/libuECC_nrf52840_xxAA.a(uECC.c.obj)
 .data._impure_ptr
                0x20002ecc        0x4 c:/mesh/arm_gcc/bin/../lib/gcc/arm-none-eabi/6.3.1/../../../../arm-none-eabi/lib/thumb/v7e-m/fpv4-sp/hard\libg_nano.a(lib_a-impure.o)
                0x20002ecc                _impure_ptr
 .data.impure_data
                0x20002ed0       0x60 c:/mesh/arm_gcc/bin/../lib/gcc/arm-none-eabi/6.3.1/../../../../arm-none-eabi/lib/thumb/v7e-m/fpv4-sp/hard\libg_nano.a(lib_a-impure.o)
                0x20002f30                . = ALIGN (0x4)
                0x20002f30                PROVIDE (__preinit_array_start, .)
 *(.preinit_array)
                0x20002f30                PROVIDE (__preinit_array_end, .)
                0x20002f30                . = ALIGN (0x4)
                0x20002f30                PROVIDE (__init_array_start, .)
 *(SORT(.init_array.*))
 *(.init_array)
 .init_array    0x20002f30        0x4 c:/mesh/arm_gcc/bin/../lib/gcc/arm-none-eabi/6.3.1/thumb/v7e-m/fpv4-sp/hard/crtbegin.o
                0x20002f34                PROVIDE (__init_array_end, .)
                0x20002f34                . = ALIGN (0x4)
                [!provide]                PROVIDE (__fini_array_start, .)
 *(SORT(.fini_array.*))
 *(.fini_array)
 .fini_array    0x20002f34        0x4 c:/mesh/arm_gcc/bin/../lib/gcc/arm-none-eabi/6.3.1/thumb/v7e-m/fpv4-sp/hard/crtbegin.o
                [!provide]                PROVIDE (__fini_array_end, .)
 *(.jcr*)
 .jcr           0x20002f38        0x0 c:/mesh/arm_gcc/bin/../lib/gcc/arm-none-eabi/6.3.1/thumb/v7e-m/fpv4-sp/hard/crtbegin.o
 .jcr           0x20002f38        0x4 c:/mesh/arm_gcc/bin/../lib/gcc/arm-none-eabi/6.3.1/thumb/v7e-m/fpv4-sp/hard/crtend.o
                0x20002f3c                . = ALIGN (0x4)
                0x20002f3c                __data_end__ = .
LOAD c:/mesh/arm_gcc/bin/../lib/gcc/arm-none-eabi/6.3.1/thumb/v7e-m/fpv4-sp/hard/crti.o
LOAD c:/mesh/arm_gcc/bin/../lib/gcc/arm-none-eabi/6.3.1/thumb/v7e-m/fpv4-sp/hard/crtbegin.o
LOAD c:/mesh/arm_gcc/bin/../lib/gcc/arm-none-eabi/6.3.1/../../../../arm-none-eabi/lib/thumb/v7e-m/fpv4-sp/hard/crt0.o
LOAD examples/experimental_lpn/CMakeFiles/lpn_nrf52840_xxAA_s140_6.1.0.dir/src/main.c.obj
LOAD examples/experimental_lpn/CMakeFiles/lpn_nrf52840_xxAA_s140_6.1.0.dir/__/__/mesh/stack/src/mesh_stack.c.obj
LOAD examples/experimental_lpn/CMakeFiles/lpn_nrf52840_xxAA_s140_6.1.0.dir/__/common/src/mesh_provisionee.c.obj
LOAD examples/experimental_lpn/CMakeFiles/lpn_nrf52840_xxAA_s140_6.1.0.dir/__/common/src/rtt_input.c.obj
LOAD examples/experimental_lpn/CMakeFiles/lpn_nrf52840_xxAA_s140_6.1.0.dir/__/common/src/simple_hal.c.obj
LOAD examples/experimental_lpn/CMakeFiles/lpn_nrf52840_xxAA_s140_6.1.0.dir/__/common/src/mesh_app_utils.c.obj
LOAD examples/experimental_lpn/CMakeFiles/lpn_nrf52840_xxAA_s140_6.1.0.dir/__/common/src/mesh_adv.c.obj
LOAD examples/experimental_lpn/CMakeFiles/lpn_nrf52840_xxAA_s140_6.1.0.dir/__/common/src/ble_softdevice_support.c.obj
LOAD examples/experimental_lpn/CMakeFiles/lpn_nrf52840_xxAA_s140_6.1.0.dir/C_/mesh/deps/nRF5_SDK_15.2.0_9412b96/components/libraries/util/app_util_platform.c.obj
LOAD examples/experimental_lpn/CMakeFiles/lpn_nrf52840_xxAA_s140_6.1.0.dir/C_/mesh/deps/nRF5_SDK_15.2.0_9412b96/components/ble/common/ble_advdata.c.obj
LOAD examples/experimental_lpn/CMakeFiles/lpn_nrf52840_xxAA_s140_6.1.0.dir/C_/mesh/deps/nRF5_SDK_15.2.0_9412b96/components/libraries/experimental_section_vars/nrf_section_iter.c.obj
LOAD examples/experimental_lpn/CMakeFiles/lpn_nrf52840_xxAA_s140_6.1.0.dir/C_/mesh/deps/nRF5_SDK_15.2.0_9412b96/components/softdevice/common/nrf_sdh_soc.c.obj
LOAD examples/experimental_lpn/CMakeFiles/lpn_nrf52840_xxAA_s140_6.1.0.dir/C_/mesh/deps/nRF5_SDK_15.2.0_9412b96/components/softdevice/common/nrf_sdh_ble.c.obj
LOAD examples/experimental_lpn/CMakeFiles/lpn_nrf52840_xxAA_s140_6.1.0.dir/C_/mesh/deps/nRF5_SDK_15.2.0_9412b96/components/softdevice/common/nrf_sdh.c.obj
LOAD examples/experimental_lpn/CMakeFiles/lpn_nrf52840_xxAA_s140_6.1.0.dir/C_/mesh/deps/nRF5_SDK_15.2.0_9412b96/components/ble/common/ble_conn_params.c.obj
LOAD examples/experimental_lpn/CMakeFiles/lpn_nrf52840_xxAA_s140_6.1.0.dir/C_/mesh/deps/nRF5_SDK_15.2.0_9412b96/components/libraries/atomic/nrf_atomic.c.obj
LOAD examples/experimental_lpn/CMakeFiles/lpn_nrf52840_xxAA_s140_6.1.0.dir/C_/mesh/deps/nRF5_SDK_15.2.0_9412b96/components/ble/common/ble_srv_common.c.obj
LOAD examples/experimental_lpn/CMakeFiles/lpn_nrf52840_xxAA_s140_6.1.0.dir/__/nrf_mesh_weak.c.obj
LOAD examples/experimental_lpn/CMakeFiles/lpn_nrf52840_xxAA_s140_6.1.0.dir/__/common/src/app_error_weak.c.obj
LOAD examples/experimental_lpn/CMakeFiles/lpn_nrf52840_xxAA_s140_6.1.0.dir/__/common/src/assertion_handler_weak.c.obj
LOAD examples/experimental_lpn/CMakeFiles/lpn_nrf52840_xxAA_s140_6.1.0.dir/__/__/mesh/core/src/internal_event.c.obj
LOAD examples/experimental_lpn/CMakeFiles/lpn_nrf52840_xxAA_s140_6.1.0.dir/__/__/mesh/core/src/nrf_mesh_configure.c.obj
LOAD examples/experimental_lpn/CMakeFiles/lpn_nrf52840_xxAA_s140_6.1.0.dir/__/__/mesh/core/src/aes.c.obj
LOAD examples/experimental_lpn/CMakeFiles/lpn_nrf52840_xxAA_s140_6.1.0.dir/__/__/mesh/core/src/msg_cache.c.obj
LOAD examples/experimental_lpn/CMakeFiles/lpn_nrf52840_xxAA_s140_6.1.0.dir/__/__/mesh/core/src/transport.c.obj
LOAD examples/experimental_lpn/CMakeFiles/lpn_nrf52840_xxAA_s140_6.1.0.dir/__/__/mesh/core/src/event.c.obj
LOAD examples/experimental_lpn/CMakeFiles/lpn_nrf52840_xxAA_s140_6.1.0.dir/__/__/mesh/core/src/packet_buffer.c.obj
LOAD examples/experimental_lpn/CMakeFiles/lpn_nrf52840_xxAA_s140_6.1.0.dir/__/__/mesh/core/src/flash_manager_defrag.c.obj
LOAD examples/experimental_lpn/CMakeFiles/lpn_nrf52840_xxAA_s140_6.1.0.dir/__/__/mesh/core/src/fifo.c.obj
LOAD examples/experimental_lpn/CMakeFiles/lpn_nrf52840_xxAA_s140_6.1.0.dir/__/__/mesh/core/src/nrf_flash.c.obj
LOAD examples/experimental_lpn/CMakeFiles/lpn_nrf52840_xxAA_s140_6.1.0.dir/__/__/mesh/core/src/net_state.c.obj
LOAD examples/experimental_lpn/CMakeFiles/lpn_nrf52840_xxAA_s140_6.1.0.dir/__/__/mesh/core/src/mesh_flash.c.obj
LOAD examples/experimental_lpn/CMakeFiles/lpn_nrf52840_xxAA_s140_6.1.0.dir/__/__/mesh/core/src/nrf_mesh_utils.c.obj
LOAD examples/experimental_lpn/CMakeFiles/lpn_nrf52840_xxAA_s140_6.1.0.dir/__/__/mesh/core/src/nrf_mesh.c.obj
LOAD examples/experimental_lpn/CMakeFiles/lpn_nrf52840_xxAA_s140_6.1.0.dir/__/__/mesh/core/src/queue.c.obj
LOAD examples/experimental_lpn/CMakeFiles/lpn_nrf52840_xxAA_s140_6.1.0.dir/__/__/mesh/core/src/hal.c.obj
LOAD examples/experimental_lpn/CMakeFiles/lpn_nrf52840_xxAA_s140_6.1.0.dir/__/__/mesh/core/src/aes_cmac.c.obj
LOAD examples/experimental_lpn/CMakeFiles/lpn_nrf52840_xxAA_s140_6.1.0.dir/__/__/mesh/core/src/timer_scheduler.c.obj
LOAD examples/experimental_lpn/CMakeFiles/lpn_nrf52840_xxAA_s140_6.1.0.dir/__/__/mesh/core/src/timer.c.obj
LOAD examples/experimental_lpn/CMakeFiles/lpn_nrf52840_xxAA_s140_6.1.0.dir/__/__/mesh/core/src/rand.c.obj
LOAD examples/experimental_lpn/CMakeFiles/lpn_nrf52840_xxAA_s140_6.1.0.dir/__/__/mesh/core/src/nrf_mesh_opt.c.obj
LOAD examples/experimental_lpn/CMakeFiles/lpn_nrf52840_xxAA_s140_6.1.0.dir/__/__/mesh/core/src/mesh_opt.c.obj
LOAD examples/experimental_lpn/CMakeFiles/lpn_nrf52840_xxAA_s140_6.1.0.dir/__/__/mesh/core/src/timeslot.c.obj
LOAD examples/experimental_lpn/CMakeFiles/lpn_nrf52840_xxAA_s140_6.1.0.dir/__/__/mesh/core/src/timeslot_timer.c.obj
LOAD examples/experimental_lpn/CMakeFiles/lpn_nrf52840_xxAA_s140_6.1.0.dir/__/__/mesh/core/src/bearer_event.c.obj
LOAD examples/experimental_lpn/CMakeFiles/lpn_nrf52840_xxAA_s140_6.1.0.dir/__/__/mesh/core/src/enc.c.obj
LOAD examples/experimental_lpn/CMakeFiles/lpn_nrf52840_xxAA_s140_6.1.0.dir/__/__/mesh/core/src/network.c.obj
LOAD examples/experimental_lpn/CMakeFiles/lpn_nrf52840_xxAA_s140_6.1.0.dir/__/__/mesh/core/src/net_packet.c.obj
LOAD examples/experimental_lpn/CMakeFiles/lpn_nrf52840_xxAA_s140_6.1.0.dir/__/__/mesh/core/src/msqueue.c.obj
LOAD examples/experimental_lpn/CMakeFiles/lpn_nrf52840_xxAA_s140_6.1.0.dir/__/__/mesh/core/src/nrf_mesh_keygen.c.obj
LOAD examples/experimental_lpn/CMakeFiles/lpn_nrf52840_xxAA_s140_6.1.0.dir/__/__/mesh/core/src/cache.c.obj
LOAD examples/experimental_lpn/CMakeFiles/lpn_nrf52840_xxAA_s140_6.1.0.dir/__/__/mesh/core/src/list.c.obj
LOAD examples/experimental_lpn/CMakeFiles/lpn_nrf52840_xxAA_s140_6.1.0.dir/__/__/mesh/core/src/log.c.obj
LOAD examples/experimental_lpn/CMakeFiles/lpn_nrf52840_xxAA_s140_6.1.0.dir/__/__/mesh/core/src/flash_manager.c.obj
LOAD examples/experimental_lpn/CMakeFiles/lpn_nrf52840_xxAA_s140_6.1.0.dir/__/__/mesh/core/src/ccm_soft.c.obj
LOAD examples/experimental_lpn/CMakeFiles/lpn_nrf52840_xxAA_s140_6.1.0.dir/__/__/mesh/core/src/toolchain.c.obj
LOAD examples/experimental_lpn/CMakeFiles/lpn_nrf52840_xxAA_s140_6.1.0.dir/__/__/mesh/core/src/replay_cache.c.obj
LOAD examples/experimental_lpn/CMakeFiles/lpn_nrf52840_xxAA_s140_6.1.0.dir/__/__/mesh/core/src/beacon.c.obj
LOAD examples/experimental_lpn/CMakeFiles/lpn_nrf52840_xxAA_s140_6.1.0.dir/__/__/mesh/core/src/flash_manager_internal.c.obj
LOAD examples/experimental_lpn/CMakeFiles/lpn_nrf52840_xxAA_s140_6.1.0.dir/__/__/mesh/core/src/core_tx.c.obj
LOAD examples/experimental_lpn/CMakeFiles/lpn_nrf52840_xxAA_s140_6.1.0.dir/__/__/mesh/core/src/heartbeat.c.obj
LOAD examples/experimental_lpn/CMakeFiles/lpn_nrf52840_xxAA_s140_6.1.0.dir/__/__/mesh/core/src/net_beacon.c.obj
LOAD examples/experimental_lpn/CMakeFiles/lpn_nrf52840_xxAA_s140_6.1.0.dir/__/__/mesh/core/src/mesh_config.c.obj
LOAD examples/experimental_lpn/CMakeFiles/lpn_nrf52840_xxAA_s140_6.1.0.dir/__/__/mesh/core/src/fsm.c.obj
LOAD examples/experimental_lpn/CMakeFiles/lpn_nrf52840_xxAA_s140_6.1.0.dir/__/__/mesh/core/src/mesh_config_backend.c.obj
LOAD examples/experimental_lpn/CMakeFiles/lpn_nrf52840_xxAA_s140_6.1.0.dir/__/__/mesh/core/src/mesh_config_flashman_glue.c.obj
LOAD examples/experimental_lpn/CMakeFiles/lpn_nrf52840_xxAA_s140_6.1.0.dir/__/__/mesh/core/src/lpn.c.obj
LOAD examples/experimental_lpn/CMakeFiles/lpn_nrf52840_xxAA_s140_6.1.0.dir/__/__/mesh/core/src/core_tx_lpn.c.obj
LOAD examples/experimental_lpn/CMakeFiles/lpn_nrf52840_xxAA_s140_6.1.0.dir/__/__/mesh/core/src/mesh_lpn_subman.c.obj
LOAD examples/experimental_lpn/CMakeFiles/lpn_nrf52840_xxAA_s140_6.1.0.dir/__/__/mesh/core/src/core_tx_adv.c.obj
LOAD examples/experimental_lpn/CMakeFiles/lpn_nrf52840_xxAA_s140_6.1.0.dir/__/__/mesh/core/src/mesh_mem_stdlib.c.obj
LOAD examples/experimental_lpn/CMakeFiles/lpn_nrf52840_xxAA_s140_6.1.0.dir/__/__/mesh/bearer/src/ad_listener.c.obj
LOAD examples/experimental_lpn/CMakeFiles/lpn_nrf52840_xxAA_s140_6.1.0.dir/__/__/mesh/bearer/src/ad_type_filter.c.obj
LOAD examples/experimental_lpn/CMakeFiles/lpn_nrf52840_xxAA_s140_6.1.0.dir/__/__/mesh/bearer/src/adv_packet_filter.c.obj
LOAD examples/experimental_lpn/CMakeFiles/lpn_nrf52840_xxAA_s140_6.1.0.dir/__/__/mesh/bearer/src/advertiser.c.obj
LOAD examples/experimental_lpn/CMakeFiles/lpn_nrf52840_xxAA_s140_6.1.0.dir/__/__/mesh/bearer/src/bearer_handler.c.obj
LOAD examples/experimental_lpn/CMakeFiles/lpn_nrf52840_xxAA_s140_6.1.0.dir/__/__/mesh/bearer/src/broadcast.c.obj
LOAD examples/experimental_lpn/CMakeFiles/lpn_nrf52840_xxAA_s140_6.1.0.dir/__/__/mesh/bearer/src/filter_engine.c.obj
LOAD examples/experimental_lpn/CMakeFiles/lpn_nrf52840_xxAA_s140_6.1.0.dir/__/__/mesh/bearer/src/gap_address_filter.c.obj
LOAD examples/experimental_lpn/CMakeFiles/lpn_nrf52840_xxAA_s140_6.1.0.dir/__/__/mesh/bearer/src/radio_config.c.obj
LOAD examples/experimental_lpn/CMakeFiles/lpn_nrf52840_xxAA_s140_6.1.0.dir/__/__/mesh/bearer/src/rssi_filter.c.obj
LOAD examples/experimental_lpn/CMakeFiles/lpn_nrf52840_xxAA_s140_6.1.0.dir/__/__/mesh/bearer/src/scanner.c.obj
LOAD examples/experimental_lpn/CMakeFiles/lpn_nrf52840_xxAA_s140_6.1.0.dir/__/__/mesh/bearer/src/mesh_pa_lna.c.obj
LOAD examples/experimental_lpn/CMakeFiles/lpn_nrf52840_xxAA_s140_6.1.0.dir/__/__/mesh/gatt/src/mesh_gatt.c.obj
LOAD examples/experimental_lpn/CMakeFiles/lpn_nrf52840_xxAA_s140_6.1.0.dir/__/__/mesh/gatt/src/proxy.c.obj
LOAD examples/experimental_lpn/CMakeFiles/lpn_nrf52840_xxAA_s140_6.1.0.dir/__/__/mesh/gatt/src/proxy_filter.c.obj
LOAD examples/experimental_lpn/CMakeFiles/lpn_nrf52840_xxAA_s140_6.1.0.dir/__/__/models/model_spec/generic_onoff/src/generic_onoff_client.c.obj
LOAD examples/experimental_lpn/CMakeFiles/lpn_nrf52840_xxAA_s140_6.1.0.dir/__/__/models/model_spec/common/src/model_common.c.obj
LOAD examples/experimental_lpn/CMakeFiles/lpn_nrf52840_xxAA_s140_6.1.0.dir/__/__/models/foundation/config/src/composition_data.c.obj
LOAD examples/experimental_lpn/CMakeFiles/lpn_nrf52840_xxAA_s140_6.1.0.dir/__/__/models/foundation/config/src/config_server.c.obj
LOAD examples/experimental_lpn/CMakeFiles/lpn_nrf52840_xxAA_s140_6.1.0.dir/__/__/models/foundation/config/src/packed_index_list.c.obj
LOAD examples/experimental_lpn/CMakeFiles/lpn_nrf52840_xxAA_s140_6.1.0.dir/__/__/models/foundation/health/src/health_server.c.obj
LOAD examples/experimental_lpn/CMakeFiles/lpn_nrf52840_xxAA_s140_6.1.0.dir/__/__/mesh/access/src/access_publish.c.obj
LOAD examples/experimental_lpn/CMakeFiles/lpn_nrf52840_xxAA_s140_6.1.0.dir/__/__/mesh/access/src/access.c.obj
LOAD examples/experimental_lpn/CMakeFiles/lpn_nrf52840_xxAA_s140_6.1.0.dir/__/__/mesh/access/src/access_reliable.c.obj
LOAD examples/experimental_lpn/CMakeFiles/lpn_nrf52840_xxAA_s140_6.1.0.dir/__/__/mesh/access/src/access_loopback.c.obj
LOAD examples/experimental_lpn/CMakeFiles/lpn_nrf52840_xxAA_s140_6.1.0.dir/__/__/mesh/access/src/device_state_manager.c.obj
LOAD examples/experimental_lpn/CMakeFiles/lpn_nrf52840_xxAA_s140_6.1.0.dir/__/__/external/app_timer/app_timer_mesh.c.obj
LOAD examples/experimental_lpn/CMakeFiles/lpn_nrf52840_xxAA_s140_6.1.0.dir/__/__/mesh/prov/src/prov_provisionee.c.obj
LOAD examples/experimental_lpn/CMakeFiles/lpn_nrf52840_xxAA_s140_6.1.0.dir/__/__/mesh/prov/src/nrf_mesh_prov.c.obj
LOAD examples/experimental_lpn/CMakeFiles/lpn_nrf52840_xxAA_s140_6.1.0.dir/__/__/mesh/prov/src/provisioning.c.obj
LOAD examples/experimental_lpn/CMakeFiles/lpn_nrf52840_xxAA_s140_6.1.0.dir/__/__/mesh/prov/src/prov_beacon.c.obj
LOAD examples/experimental_lpn/CMakeFiles/lpn_nrf52840_xxAA_s140_6.1.0.dir/__/__/mesh/prov/src/prov_utils.c.obj
LOAD examples/experimental_lpn/CMakeFiles/lpn_nrf52840_xxAA_s140_6.1.0.dir/__/__/mesh/prov/src/nrf_mesh_prov_bearer_gatt.c.obj
LOAD examples/experimental_lpn/CMakeFiles/lpn_nrf52840_xxAA_s140_6.1.0.dir/C_/mesh/deps/nRF5_SDK_15.2.0_9412b96/modules/nrfx/mdk/system_nrf52840.c.obj
LOAD examples/experimental_lpn/CMakeFiles/lpn_nrf52840_xxAA_s140_6.1.0.dir/C_/mesh/deps/nRF5_SDK_15.2.0_9412b96/modules/nrfx/mdk/gcc_startup_nrf52840.S.obj
LOAD examples/experimental_lpn/CMakeFiles/lpn_nrf52840_xxAA_s140_6.1.0.dir/C_/mesh/deps/nRF5_SDK_15.2.0_9412b96/components/libraries/util/app_error.c.obj
LOAD examples/experimental_lpn/CMakeFiles/lpn_nrf52840_xxAA_s140_6.1.0.dir/C_/mesh/deps/nRF5_SDK_15.2.0_9412b96/components/libraries/util/app_error_handler_gcc.c.obj
LOAD external/rtt/librtt_nrf52840_xxAA.a
LOAD external/micro-ecc/libuECC_nrf52840_xxAA.a
START GROUP
LOAD c:/mesh/arm_gcc/bin/../lib/gcc/arm-none-eabi/6.3.1/thumb/v7e-m/fpv4-sp/hard\libgcc.a
LOAD c:/mesh/arm_gcc/bin/../lib/gcc/arm-none-eabi/6.3.1/../../../../arm-none-eabi/lib/thumb/v7e-m/fpv4-sp/hard\libg_nano.a
LOAD c:/mesh/arm_gcc/bin/../lib/gcc/arm-none-eabi/6.3.1/../../../../arm-none-eabi/lib/thumb/v7e-m/fpv4-sp/hard\libc_nano.a
END GROUP
START GROUP
LOAD c:/mesh/arm_gcc/bin/../lib/gcc/arm-none-eabi/6.3.1/thumb/v7e-m/fpv4-sp/hard\libgcc.a
LOAD c:/mesh/arm_gcc/bin/../lib/gcc/arm-none-eabi/6.3.1/../../../../arm-none-eabi/lib/thumb/v7e-m/fpv4-sp/hard\libc_nano.a
END GROUP
LOAD c:/mesh/arm_gcc/bin/../lib/gcc/arm-none-eabi/6.3.1/thumb/v7e-m/fpv4-sp/hard/crtend.o
LOAD c:/mesh/arm_gcc/bin/../lib/gcc/arm-none-eabi/6.3.1/thumb/v7e-m/fpv4-sp/hard/crtn.o
START GROUP
LOAD c:/mesh/arm_gcc/bin/../lib/gcc/arm-none-eabi/6.3.1/thumb/v7e-m/fpv4-sp/hard\libgcc.a
LOAD c:/mesh/arm_gcc/bin/../lib/gcc/arm-none-eabi/6.3.1/../../../../arm-none-eabi/lib/thumb/v7e-m/fpv4-sp/hard\libc.a
LOAD c:/mesh/arm_gcc/bin/../lib/gcc/arm-none-eabi/6.3.1/../../../../arm-none-eabi/lib/thumb/v7e-m/fpv4-sp/hard\libnosys.a
END GROUP

.igot.plt       0x20002f3c        0x0 load address 0x0003e374
 .igot.plt      0x20002f3c        0x0 c:/mesh/arm_gcc/bin/../lib/gcc/arm-none-eabi/6.3.1/thumb/v7e-m/fpv4-sp/hard/crtbegin.o
                0x20002f3c                . = ALIGN (0x4)

.svc_data       0x20002f3c        0x0
                [!provide]                PROVIDE (__start_svc_data, .)
 *(.svc_data)
                [!provide]                PROVIDE (__stop_svc_data, .)

.cli_sorted_cmd_ptrs
                0x20002f3c        0x0
                [!provide]                PROVIDE (__start_cli_sorted_cmd_ptrs, .)
 *(.cli_sorted_cmd_ptrs)
                [!provide]                PROVIDE (__stop_cli_sorted_cmd_ptrs, .)

.fs_data        0x20002f3c        0x0
                [!provide]                PROVIDE (__start_fs_data, .)
 *(.fs_data)
                [!provide]                PROVIDE (__stop_fs_data, .)

.log_dynamic_data
                0x20002f3c        0x0
                [!provide]                PROVIDE (__start_log_dynamic_data, .)
 *(SORT(.log_dynamic_data*))
                [!provide]                PROVIDE (__stop_log_dynamic_data, .)

.log_filter_data
                0x20002f3c        0x0
                [!provide]                PROVIDE (__start_log_filter_data, .)
 *(SORT(.log_filter_data*))
                [!provide]                PROVIDE (__stop_log_filter_data, .)

.nrf_mesh_ram   0x20002f3c        0x0
                [!provide]                PROVIDE (__start_nrf_mesh_ram, .)
 *(SORT(.nrf_mesh_ram.*))
                [!provide]                PROVIDE (__stop_nrf_mesh_ram, .)

.bss            0x20002f3c     0x277c load address 0x0003e374
                0x20002f3c                . = ALIGN (0x4)
                0x20002f3c                __bss_start__ = .
 *(.bss*)
 .bss           0x20002f3c       0x1c c:/mesh/arm_gcc/bin/../lib/gcc/arm-none-eabi/6.3.1/thumb/v7e-m/fpv4-sp/hard/crtbegin.o
 .bss.m_client  0x20002f58       0x34 examples/experimental_lpn/CMakeFiles/lpn_nrf52840_xxAA_s140_6.1.0.dir/src/main.c.obj
 .bss.m_device_provisioned
                0x20002f8c        0x1 examples/experimental_lpn/CMakeFiles/lpn_nrf52840_xxAA_s140_6.1.0.dir/src/main.c.obj
 *fill*         0x20002f8d        0x3 
 .bss.m_state_on_timer_data
                0x20002f90       0x20 examples/experimental_lpn/CMakeFiles/lpn_nrf52840_xxAA_s140_6.1.0.dir/src/main.c.obj
 .bss.tid.13763
                0x20002fb0        0x1 examples/experimental_lpn/CMakeFiles/lpn_nrf52840_xxAA_s140_6.1.0.dir/src/main.c.obj
 *fill*         0x20002fb1        0x3 
 .bss.m_health_server
                0x20002fb4       0x5c examples/experimental_lpn/CMakeFiles/lpn_nrf52840_xxAA_s140_6.1.0.dir/__/__/mesh/stack/src/mesh_stack.c.obj
 .bss.m_device_identification_started
                0x20003010        0x1 examples/experimental_lpn/CMakeFiles/lpn_nrf52840_xxAA_s140_6.1.0.dir/__/common/src/mesh_provisionee.c.obj
 .bss.m_device_provisioned
                0x20003011        0x1 examples/experimental_lpn/CMakeFiles/lpn_nrf52840_xxAA_s140_6.1.0.dir/__/common/src/mesh_provisionee.c.obj
 .bss.m_doing_gatt_reset
                0x20003012        0x1 examples/experimental_lpn/CMakeFiles/lpn_nrf52840_xxAA_s140_6.1.0.dir/__/common/src/mesh_provisionee.c.obj
 *fill*         0x20003013        0x1 
 .bss.m_params  0x20003014       0x18 examples/experimental_lpn/CMakeFiles/lpn_nrf52840_xxAA_s140_6.1.0.dir/__/common/src/mesh_provisionee.c.obj
 .bss.m_private_key
                0x2000302c       0x20 examples/experimental_lpn/CMakeFiles/lpn_nrf52840_xxAA_s140_6.1.0.dir/__/common/src/mesh_provisionee.c.obj
 .bss.m_prov_bearer_gatt
                0x2000304c       0x50 examples/experimental_lpn/CMakeFiles/lpn_nrf52840_xxAA_s140_6.1.0.dir/__/common/src/mesh_provisionee.c.obj
 .bss.m_prov_ctx
                0x2000309c      0x134 examples/experimental_lpn/CMakeFiles/lpn_nrf52840_xxAA_s140_6.1.0.dir/__/common/src/mesh_provisionee.c.obj
 .bss.m_public_key
                0x200031d0       0x40 examples/experimental_lpn/CMakeFiles/lpn_nrf52840_xxAA_s140_6.1.0.dir/__/common/src/mesh_provisionee.c.obj
 .bss.m_rtt_input_handler
                0x20003210        0x4 examples/experimental_lpn/CMakeFiles/lpn_nrf52840_xxAA_s140_6.1.0.dir/__/common/src/rtt_input.c.obj
 .bss.m_rtt_timer_data
                0x20003214       0x20 examples/experimental_lpn/CMakeFiles/lpn_nrf52840_xxAA_s140_6.1.0.dir/__/common/src/rtt_input.c.obj
 .bss.m_blink_count
                0x20003234        0x4 examples/experimental_lpn/CMakeFiles/lpn_nrf52840_xxAA_s140_6.1.0.dir/__/common/src/simple_hal.c.obj
 .bss.m_blink_mask
                0x20003238        0x4 examples/experimental_lpn/CMakeFiles/lpn_nrf52840_xxAA_s140_6.1.0.dir/__/common/src/simple_hal.c.obj
 .bss.m_blink_timer_data
                0x2000323c       0x20 examples/experimental_lpn/CMakeFiles/lpn_nrf52840_xxAA_s140_6.1.0.dir/__/common/src/simple_hal.c.obj
 .bss.m_button_handler_cb
                0x2000325c        0x4 examples/experimental_lpn/CMakeFiles/lpn_nrf52840_xxAA_s140_6.1.0.dir/__/common/src/simple_hal.c.obj
 .bss.m_last_button_press
                0x20003260        0x4 examples/experimental_lpn/CMakeFiles/lpn_nrf52840_xxAA_s140_6.1.0.dir/__/common/src/simple_hal.c.obj
 .bss.m_prev_state
                0x20003264        0x4 examples/experimental_lpn/CMakeFiles/lpn_nrf52840_xxAA_s140_6.1.0.dir/__/common/src/simple_hal.c.obj
 .bss.m_adv_set_index
                0x20003268        0x1 examples/experimental_lpn/CMakeFiles/lpn_nrf52840_xxAA_s140_6.1.0.dir/__/common/src/mesh_adv.c.obj
 .bss.m_advdata_raw
                0x20003269       0x3e examples/experimental_lpn/CMakeFiles/lpn_nrf52840_xxAA_s140_6.1.0.dir/__/common/src/mesh_adv.c.obj
 *fill*         0x200032a7        0x1 
 .bss.m_gap_adv_data
                0x200032a8       0x10 examples/experimental_lpn/CMakeFiles/lpn_nrf52840_xxAA_s140_6.1.0.dir/__/common/src/mesh_adv.c.obj
 .bss.m_srdata_raw
                0x200032b8       0x3e examples/experimental_lpn/CMakeFiles/lpn_nrf52840_xxAA_s140_6.1.0.dir/__/common/src/mesh_adv.c.obj
 .bss.m_stack_is_enabled
                0x200032f6        0x1 examples/experimental_lpn/CMakeFiles/lpn_nrf52840_xxAA_s140_6.1.0.dir/C_/mesh/deps/nRF5_SDK_15.2.0_9412b96/components/softdevice/common/nrf_sdh_ble.c.obj
 .bss.m_nrf_sdh_continue
                0x200032f7        0x1 examples/experimental_lpn/CMakeFiles/lpn_nrf52840_xxAA_s140_6.1.0.dir/C_/mesh/deps/nRF5_SDK_15.2.0_9412b96/components/softdevice/common/nrf_sdh.c.obj
 .bss.m_nrf_sdh_enabled
                0x200032f8        0x1 examples/experimental_lpn/CMakeFiles/lpn_nrf52840_xxAA_s140_6.1.0.dir/C_/mesh/deps/nRF5_SDK_15.2.0_9412b96/components/softdevice/common/nrf_sdh.c.obj
 .bss.m_nrf_sdh_suspended
                0x200032f9        0x1 examples/experimental_lpn/CMakeFiles/lpn_nrf52840_xxAA_s140_6.1.0.dir/C_/mesh/deps/nRF5_SDK_15.2.0_9412b96/components/softdevice/common/nrf_sdh.c.obj
 *fill*         0x200032fa        0x2 
 .bss.m_conn_params_config
                0x200032fc       0x1c examples/experimental_lpn/CMakeFiles/lpn_nrf52840_xxAA_s140_6.1.0.dir/C_/mesh/deps/nRF5_SDK_15.2.0_9412b96/components/ble/common/ble_conn_params.c.obj
 .bss.m_conn_params_instances
                0x20003318       0x14 examples/experimental_lpn/CMakeFiles/lpn_nrf52840_xxAA_s140_6.1.0.dir/C_/mesh/deps/nRF5_SDK_15.2.0_9412b96/components/ble/common/ble_conn_params.c.obj
 .bss.m_preferred_conn_params
                0x2000332c        0x8 examples/experimental_lpn/CMakeFiles/lpn_nrf52840_xxAA_s140_6.1.0.dir/C_/mesh/deps/nRF5_SDK_15.2.0_9412b96/components/ble/common/ble_conn_params.c.obj
 .bss.m_timer_data
                0x20003334       0x20 examples/experimental_lpn/CMakeFiles/lpn_nrf52840_xxAA_s140_6.1.0.dir/C_/mesh/deps/nRF5_SDK_15.2.0_9412b96/components/ble/common/ble_conn_params.c.obj
 .bss.m_uuid    0x20003354       0x10 examples/experimental_lpn/CMakeFiles/lpn_nrf52840_xxAA_s140_6.1.0.dir/__/__/mesh/core/src/nrf_mesh_configure.c.obj
 .bss.m_msg_cache
                0x20003364      0x100 examples/experimental_lpn/CMakeFiles/lpn_nrf52840_xxAA_s140_6.1.0.dir/__/__/mesh/core/src/msg_cache.c.obj
 .bss.m_msg_cache_head
                0x20003464        0x4 examples/experimental_lpn/CMakeFiles/lpn_nrf52840_xxAA_s140_6.1.0.dir/__/__/mesh/core/src/msg_cache.c.obj
 .bss.m_control_packet_consumer_count
                0x20003468        0x4 examples/experimental_lpn/CMakeFiles/lpn_nrf52840_xxAA_s140_6.1.0.dir/__/__/mesh/core/src/transport.c.obj
 .bss.m_control_packet_consumers
                0x2000346c       0x18 examples/experimental_lpn/CMakeFiles/lpn_nrf52840_xxAA_s140_6.1.0.dir/__/__/mesh/core/src/transport.c.obj
 .bss.m_sar_process_flag
                0x20003484        0x4 examples/experimental_lpn/CMakeFiles/lpn_nrf52840_xxAA_s140_6.1.0.dir/__/__/mesh/core/src/transport.c.obj
 .bss.m_sar_session_cache
                0x20003488       0x40 examples/experimental_lpn/CMakeFiles/lpn_nrf52840_xxAA_s140_6.1.0.dir/__/__/mesh/core/src/transport.c.obj
 .bss.m_sar_session_cache_head
                0x200034c8        0x4 examples/experimental_lpn/CMakeFiles/lpn_nrf52840_xxAA_s140_6.1.0.dir/__/__/mesh/core/src/transport.c.obj
 .bss.m_trs_config
                0x200034cc       0x18 examples/experimental_lpn/CMakeFiles/lpn_nrf52840_xxAA_s140_6.1.0.dir/__/__/mesh/core/src/transport.c.obj
 .bss.m_trs_sar_lpn_buffer
                0x200034e4      0x180 examples/experimental_lpn/CMakeFiles/lpn_nrf52840_xxAA_s140_6.1.0.dir/__/__/mesh/core/src/transport.c.obj
 .bss.m_trs_sar_sessions
                0x20003664      0x1d0 examples/experimental_lpn/CMakeFiles/lpn_nrf52840_xxAA_s140_6.1.0.dir/__/__/mesh/core/src/transport.c.obj
 .bss.m_event_handler_state
                0x20003834        0x1 examples/experimental_lpn/CMakeFiles/lpn_nrf52840_xxAA_s140_6.1.0.dir/__/__/mesh/core/src/event.c.obj
 *fill*         0x20003835        0x3 
 .bss.mp_evt_handlers_head
                0x20003838        0x4 examples/experimental_lpn/CMakeFiles/lpn_nrf52840_xxAA_s140_6.1.0.dir/__/__/mesh/core/src/event.c.obj
 .bss.m_defrag  0x2000383c       0x1c examples/experimental_lpn/CMakeFiles/lpn_nrf52840_xxAA_s140_6.1.0.dir/__/__/mesh/core/src/flash_manager_defrag.c.obj
 .bss.m_token   0x20003858        0x2 examples/experimental_lpn/CMakeFiles/lpn_nrf52840_xxAA_s140_6.1.0.dir/__/__/mesh/core/src/flash_manager_defrag.c.obj
 *fill*         0x2000385a        0x2 
 .bss.mp_recovery_area
                0x2000385c        0x4 examples/experimental_lpn/CMakeFiles/lpn_nrf52840_xxAA_s140_6.1.0.dir/__/__/mesh/core/src/flash_manager_defrag.c.obj
 .bss.p_null_ptr.10631
                0x20003860        0x4 examples/experimental_lpn/CMakeFiles/lpn_nrf52840_xxAA_s140_6.1.0.dir/__/__/mesh/core/src/flash_manager_defrag.c.obj
 .bss.lock_count.10842
                0x20003864        0x4 examples/experimental_lpn/CMakeFiles/lpn_nrf52840_xxAA_s140_6.1.0.dir/__/__/mesh/core/src/net_state.c.obj
 .bss.m_enabled
                0x20003868        0x1 examples/experimental_lpn/CMakeFiles/lpn_nrf52840_xxAA_s140_6.1.0.dir/__/__/mesh/core/src/net_state.c.obj
 *fill*         0x20003869        0x3 
 .bss.m_flash_manager
                0x2000386c       0x24 examples/experimental_lpn/CMakeFiles/lpn_nrf52840_xxAA_s140_6.1.0.dir/__/__/mesh/core/src/net_state.c.obj
 .bss.m_iv_state_set
                0x20003890        0x1 examples/experimental_lpn/CMakeFiles/lpn_nrf52840_xxAA_s140_6.1.0.dir/__/__/mesh/core/src/net_state.c.obj
 *fill*         0x20003891        0x3 
 .bss.m_iv_update_timer
                0x20003894       0x18 examples/experimental_lpn/CMakeFiles/lpn_nrf52840_xxAA_s140_6.1.0.dir/__/__/mesh/core/src/net_state.c.obj
 .bss.m_mesh_evt_handler
                0x200038ac        0xc examples/experimental_lpn/CMakeFiles/lpn_nrf52840_xxAA_s140_6.1.0.dir/__/__/mesh/core/src/net_state.c.obj
 .bss.m_net_state
                0x200038b8       0x14 examples/experimental_lpn/CMakeFiles/lpn_nrf52840_xxAA_s140_6.1.0.dir/__/__/mesh/core/src/net_state.c.obj
 .bss.m_seqnum_allocation_in_progress
                0x200038cc        0x1 examples/experimental_lpn/CMakeFiles/lpn_nrf52840_xxAA_s140_6.1.0.dir/__/__/mesh/core/src/net_state.c.obj
 .bss.m_test_mode
                0x200038cd        0x1 examples/experimental_lpn/CMakeFiles/lpn_nrf52840_xxAA_s140_6.1.0.dir/__/__/mesh/core/src/net_state.c.obj
 *fill*         0x200038ce        0x2 
 .bss.m_event_flag
                0x200038d0        0x4 examples/experimental_lpn/CMakeFiles/lpn_nrf52840_xxAA_s140_6.1.0.dir/__/__/mesh/core/src/mesh_flash.c.obj
 .bss.m_suspended
                0x200038d4        0x1 examples/experimental_lpn/CMakeFiles/lpn_nrf52840_xxAA_s140_6.1.0.dir/__/__/mesh/core/src/mesh_flash.c.obj
 *fill*         0x200038d5        0x3 
 .bss.m_users   0x200038d8      0x234 examples/experimental_lpn/CMakeFiles/lpn_nrf52840_xxAA_s140_6.1.0.dir/__/__/mesh/core/src/mesh_flash.c.obj
 .bss.suspend_count.10570
                0x20003b0c        0x4 examples/experimental_lpn/CMakeFiles/lpn_nrf52840_xxAA_s140_6.1.0.dir/__/__/mesh/core/src/mesh_flash.c.obj
 .bss.m_mesh_state
                0x20003b10        0x1 examples/experimental_lpn/CMakeFiles/lpn_nrf52840_xxAA_s140_6.1.0.dir/__/__/mesh/core/src/nrf_mesh.c.obj
 *fill*         0x20003b11        0x3 
 .bss.m_rx_cb   0x20003b14        0x4 examples/experimental_lpn/CMakeFiles/lpn_nrf52840_xxAA_s140_6.1.0.dir/__/__/mesh/core/src/nrf_mesh.c.obj
 .bss.m_tx_token
                0x20003b18        0x4 examples/experimental_lpn/CMakeFiles/lpn_nrf52840_xxAA_s140_6.1.0.dir/__/__/mesh/core/src/nrf_mesh.c.obj
 .bss.m_event_flag
                0x20003b1c        0x4 examples/experimental_lpn/CMakeFiles/lpn_nrf52840_xxAA_s140_6.1.0.dir/__/__/mesh/core/src/timer_scheduler.c.obj
 .bss.m_scheduler
                0x20003b20        0x8 examples/experimental_lpn/CMakeFiles/lpn_nrf52840_xxAA_s140_6.1.0.dir/__/__/mesh/core/src/timer_scheduler.c.obj
 .bss.m_ovfw_counter
                0x20003b28        0x4 examples/experimental_lpn/CMakeFiles/lpn_nrf52840_xxAA_s140_6.1.0.dir/__/__/mesh/core/src/timer.c.obj
 .bss.m_ovfw_timer_counter
                0x20003b2c        0x4 examples/experimental_lpn/CMakeFiles/lpn_nrf52840_xxAA_s140_6.1.0.dir/__/__/mesh/core/src/timer.c.obj
 .bss.m_tail_timer_counter
                0x20003b30        0x4 examples/experimental_lpn/CMakeFiles/lpn_nrf52840_xxAA_s140_6.1.0.dir/__/__/mesh/core/src/timer.c.obj
 .bss.mp_cb     0x20003b34        0x4 examples/experimental_lpn/CMakeFiles/lpn_nrf52840_xxAA_s140_6.1.0.dir/__/__/mesh/core/src/timer.c.obj
 .bss.m_mesh_opt_core_file_backend_data
                0x20003b38       0x2c examples/experimental_lpn/CMakeFiles/lpn_nrf52840_xxAA_s140_6.1.0.dir/__/__/mesh/core/src/mesh_opt.c.obj
 .bss.m_current_timeslot
                0x20003b64       0x1c examples/experimental_lpn/CMakeFiles/lpn_nrf52840_xxAA_s140_6.1.0.dir/__/__/mesh/core/src/timeslot.c.obj
 .bss.m_lfclk_ppm
                0x20003b80        0x4 examples/experimental_lpn/CMakeFiles/lpn_nrf52840_xxAA_s140_6.1.0.dir/__/__/mesh/core/src/timeslot.c.obj
 .bss.m_radio_request_earliest
                0x20003b84       0x10 examples/experimental_lpn/CMakeFiles/lpn_nrf52840_xxAA_s140_6.1.0.dir/__/__/mesh/core/src/timeslot.c.obj
 .bss.m_state_lock
                0x20003b94        0x1 examples/experimental_lpn/CMakeFiles/lpn_nrf52840_xxAA_s140_6.1.0.dir/__/__/mesh/core/src/timeslot.c.obj
 .bss.m_timeslot_forced_command
                0x20003b95        0x1 examples/experimental_lpn/CMakeFiles/lpn_nrf52840_xxAA_s140_6.1.0.dir/__/__/mesh/core/src/timeslot.c.obj
 *fill*         0x20003b96        0x2 
 .bss.m_ts_count
                0x20003b98        0x4 examples/experimental_lpn/CMakeFiles/lpn_nrf52840_xxAA_s140_6.1.0.dir/__/__/mesh/core/src/timeslot.c.obj
 .bss.m_callbacks
                0x20003b9c        0xc examples/experimental_lpn/CMakeFiles/lpn_nrf52840_xxAA_s140_6.1.0.dir/__/__/mesh/core/src/timeslot_timer.c.obj
 .bss.m_is_in_ts
                0x20003ba8        0x1 examples/experimental_lpn/CMakeFiles/lpn_nrf52840_xxAA_s140_6.1.0.dir/__/__/mesh/core/src/timeslot_timer.c.obj
 *fill*         0x20003ba9        0x3 
 .bss.m_timer_mut
                0x20003bac        0x4 examples/experimental_lpn/CMakeFiles/lpn_nrf52840_xxAA_s140_6.1.0.dir/__/__/mesh/core/src/timeslot_timer.c.obj
 .bss.m_ts_end_time
                0x20003bb0        0x4 examples/experimental_lpn/CMakeFiles/lpn_nrf52840_xxAA_s140_6.1.0.dir/__/__/mesh/core/src/timeslot_timer.c.obj
 .bss.m_ts_start_time
                0x20003bb4        0x4 examples/experimental_lpn/CMakeFiles/lpn_nrf52840_xxAA_s140_6.1.0.dir/__/__/mesh/core/src/timeslot_timer.c.obj
 .bss.mp_ppi_tasks
                0x20003bb8        0xc examples/experimental_lpn/CMakeFiles/lpn_nrf52840_xxAA_s140_6.1.0.dir/__/__/mesh/core/src/timeslot_timer.c.obj
 .bss.m_bearer_event_fifo
                0x20003bc4       0x14 examples/experimental_lpn/CMakeFiles/lpn_nrf52840_xxAA_s140_6.1.0.dir/__/__/mesh/core/src/bearer_event.c.obj
 .bss.m_bearer_event_fifo_buffer
                0x20003bd8      0x100 examples/experimental_lpn/CMakeFiles/lpn_nrf52840_xxAA_s140_6.1.0.dir/__/__/mesh/core/src/bearer_event.c.obj
 .bss.m_critical
                0x20003cd8        0x4 examples/experimental_lpn/CMakeFiles/lpn_nrf52840_xxAA_s140_6.1.0.dir/__/__/mesh/core/src/bearer_event.c.obj
 .bss.m_flag_count
                0x20003cdc        0x4 examples/experimental_lpn/CMakeFiles/lpn_nrf52840_xxAA_s140_6.1.0.dir/__/__/mesh/core/src/bearer_event.c.obj
 .bss.m_flag_event_callbacks
                0x20003ce0       0x28 examples/experimental_lpn/CMakeFiles/lpn_nrf52840_xxAA_s140_6.1.0.dir/__/__/mesh/core/src/bearer_event.c.obj
 .bss.m_flags   0x20003d08        0x4 examples/experimental_lpn/CMakeFiles/lpn_nrf52840_xxAA_s140_6.1.0.dir/__/__/mesh/core/src/bearer_event.c.obj
 .bss.m_irq_priority
                0x20003d0c        0x1 examples/experimental_lpn/CMakeFiles/lpn_nrf52840_xxAA_s140_6.1.0.dir/__/__/mesh/core/src/bearer_event.c.obj
 .bss.m_is_nested_critical_region
                0x20003d0d        0x1 examples/experimental_lpn/CMakeFiles/lpn_nrf52840_xxAA_s140_6.1.0.dir/__/__/mesh/core/src/bearer_event.c.obj
 *fill*         0x20003d0e        0x2 
 .bss.m_sequential_event_queue
                0x20003d10        0x8 examples/experimental_lpn/CMakeFiles/lpn_nrf52840_xxAA_s140_6.1.0.dir/__/__/mesh/core/src/bearer_event.c.obj
 .bss.s_recursion_guard.9879
                0x20003d18        0x1 examples/experimental_lpn/CMakeFiles/lpn_nrf52840_xxAA_s140_6.1.0.dir/__/__/mesh/core/src/bearer_event.c.obj
 *fill*         0x20003d19        0x3 
 .bss.m_relay_check_cb
                0x20003d1c        0x4 examples/experimental_lpn/CMakeFiles/lpn_nrf52840_xxAA_s140_6.1.0.dir/__/__/mesh/core/src/network.c.obj
 .bss.m_action_queue
                0x20003d20        0xc examples/experimental_lpn/CMakeFiles/lpn_nrf52840_xxAA_s140_6.1.0.dir/__/__/mesh/core/src/flash_manager.c.obj
 .bss.m_action_queue_buffer
                0x20003d2c      0x104 examples/experimental_lpn/CMakeFiles/lpn_nrf52840_xxAA_s140_6.1.0.dir/__/__/mesh/core/src/flash_manager.c.obj
 .bss.m_action_state
                0x20003e30        0x1 examples/experimental_lpn/CMakeFiles/lpn_nrf52840_xxAA_s140_6.1.0.dir/__/__/mesh/core/src/flash_manager.c.obj
 *fill*         0x20003e31        0x3 
 .bss.m_memory_listener_queue
                0x20003e34        0x8 examples/experimental_lpn/CMakeFiles/lpn_nrf52840_xxAA_s140_6.1.0.dir/__/__/mesh/core/src/flash_manager.c.obj
 .bss.m_processing_flag
                0x20003e3c        0x4 examples/experimental_lpn/CMakeFiles/lpn_nrf52840_xxAA_s140_6.1.0.dir/__/__/mesh/core/src/flash_manager.c.obj
 .bss.m_queue_empty_cb
                0x20003e40        0x4 examples/experimental_lpn/CMakeFiles/lpn_nrf52840_xxAA_s140_6.1.0.dir/__/__/mesh/core/src/flash_manager.c.obj
 .bss.m_state   0x20003e44        0x1 examples/experimental_lpn/CMakeFiles/lpn_nrf52840_xxAA_s140_6.1.0.dir/__/__/mesh/core/src/flash_manager.c.obj
 *fill*         0x20003e45        0x1 
 .bss.m_token   0x20003e46        0x2 examples/experimental_lpn/CMakeFiles/lpn_nrf52840_xxAA_s140_6.1.0.dir/__/__/mesh/core/src/flash_manager.c.obj
 .bss.p_current.11550
                0x20003e48        0x4 examples/experimental_lpn/CMakeFiles/lpn_nrf52840_xxAA_s140_6.1.0.dir/__/__/mesh/core/src/flash_manager.c.obj
 .bss.result.11551
                0x20003e4c        0x1 examples/experimental_lpn/CMakeFiles/lpn_nrf52840_xxAA_s140_6.1.0.dir/__/__/mesh/core/src/flash_manager.c.obj
 .bss.m_cache_index
                0x20003e4d        0x1 examples/experimental_lpn/CMakeFiles/lpn_nrf52840_xxAA_s140_6.1.0.dir/__/__/mesh/core/src/replay_cache.c.obj
 *fill*         0x20003e4e        0x2 
 .bss.m_replay_cache
                0x20003e50      0x280 examples/experimental_lpn/CMakeFiles/lpn_nrf52840_xxAA_s140_6.1.0.dir/__/__/mesh/core/src/replay_cache.c.obj
 .bss.m_bearer_count
                0x200040d0        0x1 examples/experimental_lpn/CMakeFiles/lpn_nrf52840_xxAA_s140_6.1.0.dir/__/__/mesh/core/src/core_tx.c.obj
 *fill*         0x200040d1        0x3 
 .bss.m_tx_complete_callback
                0x200040d4        0x4 examples/experimental_lpn/CMakeFiles/lpn_nrf52840_xxAA_s140_6.1.0.dir/__/__/mesh/core/src/core_tx.c.obj
 .bss.mp_bearers
                0x200040d8        0x4 examples/experimental_lpn/CMakeFiles/lpn_nrf52840_xxAA_s140_6.1.0.dir/__/__/mesh/core/src/core_tx.c.obj
 .bss.m_hb_core_evt_handler
                0x200040dc        0xc examples/experimental_lpn/CMakeFiles/lpn_nrf52840_xxAA_s140_6.1.0.dir/__/__/mesh/core/src/heartbeat.c.obj
 .bss.m_hb_pending_feat_msg
                0x200040e8        0x1 examples/experimental_lpn/CMakeFiles/lpn_nrf52840_xxAA_s140_6.1.0.dir/__/__/mesh/core/src/heartbeat.c.obj
 .bss.m_hb_pending_pub_msg
                0x200040e9        0x1 examples/experimental_lpn/CMakeFiles/lpn_nrf52840_xxAA_s140_6.1.0.dir/__/__/mesh/core/src/heartbeat.c.obj
 .bss.m_heartbeat_init_done
                0x200040ea        0x1 examples/experimental_lpn/CMakeFiles/lpn_nrf52840_xxAA_s140_6.1.0.dir/__/__/mesh/core/src/heartbeat.c.obj
 *fill*         0x200040eb        0x1 
 .bss.m_heartbeat_publication
                0x200040ec       0x14 examples/experimental_lpn/CMakeFiles/lpn_nrf52840_xxAA_s140_6.1.0.dir/__/__/mesh/core/src/heartbeat.c.obj
 .bss.m_heartbeat_publication_state
                0x20004100        0x1 examples/experimental_lpn/CMakeFiles/lpn_nrf52840_xxAA_s140_6.1.0.dir/__/__/mesh/core/src/heartbeat.c.obj
 *fill*         0x20004101        0x3 
 .bss.m_heartbeat_subscription
                0x20004104       0x10 examples/experimental_lpn/CMakeFiles/lpn_nrf52840_xxAA_s140_6.1.0.dir/__/__/mesh/core/src/heartbeat.c.obj
 .bss.m_latched_features
                0x20004114        0x1 examples/experimental_lpn/CMakeFiles/lpn_nrf52840_xxAA_s140_6.1.0.dir/__/__/mesh/core/src/heartbeat.c.obj
 *fill*         0x20004115        0x3 
 .bss.m_publication_timer
                0x20004118       0x1c examples/experimental_lpn/CMakeFiles/lpn_nrf52840_xxAA_s140_6.1.0.dir/__/__/mesh/core/src/heartbeat.c.obj
 .bss.m_subscription_timer
                0x20004134       0x18 examples/experimental_lpn/CMakeFiles/lpn_nrf52840_xxAA_s140_6.1.0.dir/__/__/mesh/core/src/heartbeat.c.obj
 .bss.mp_getter
                0x2000414c        0x4 examples/experimental_lpn/CMakeFiles/lpn_nrf52840_xxAA_s140_6.1.0.dir/__/__/mesh/core/src/heartbeat.c.obj
 .bss.m_adv     0x20004150       0x9c examples/experimental_lpn/CMakeFiles/lpn_nrf52840_xxAA_s140_6.1.0.dir/__/__/mesh/core/src/net_beacon.c.obj
 .bss.m_adv_buf
                0x200041ec       0x34 examples/experimental_lpn/CMakeFiles/lpn_nrf52840_xxAA_s140_6.1.0.dir/__/__/mesh/core/src/net_beacon.c.obj
 .bss.m_beacon_salt
                0x20004220       0x10 examples/experimental_lpn/CMakeFiles/lpn_nrf52840_xxAA_s140_6.1.0.dir/__/__/mesh/core/src/net_beacon.c.obj
 .bss.m_enabled
                0x20004230        0x1 examples/experimental_lpn/CMakeFiles/lpn_nrf52840_xxAA_s140_6.1.0.dir/__/__/mesh/core/src/net_beacon.c.obj
 .bss.m_net_beacon_enable_state
                0x20004231        0x1 examples/experimental_lpn/CMakeFiles/lpn_nrf52840_xxAA_s140_6.1.0.dir/__/__/mesh/core/src/net_beacon.c.obj
 *fill*         0x20004232        0x2 
 .bss.m_tx_timer
                0x20004234       0x18 examples/experimental_lpn/CMakeFiles/lpn_nrf52840_xxAA_s140_6.1.0.dir/__/__/mesh/core/src/net_beacon.c.obj
 .bss.mp_beacon_info
                0x2000424c        0x4 examples/experimental_lpn/CMakeFiles/lpn_nrf52840_xxAA_s140_6.1.0.dir/__/__/mesh/core/src/net_beacon.c.obj
 .bss.m_file_count
                0x20004250        0x4 examples/experimental_lpn/CMakeFiles/lpn_nrf52840_xxAA_s140_6.1.0.dir/__/__/mesh/core/src/mesh_config_backend.c.obj
 .bss.m_power_down_time_us
                0x20004254        0x4 examples/experimental_lpn/CMakeFiles/lpn_nrf52840_xxAA_s140_6.1.0.dir/__/__/mesh/core/src/mesh_config_backend.c.obj
 .bss.mp_files  0x20004258        0x4 examples/experimental_lpn/CMakeFiles/lpn_nrf52840_xxAA_s140_6.1.0.dir/__/__/mesh/core/src/mesh_config_backend.c.obj
 .bss.m_allocated_page_count
                0x2000425c        0x1 examples/experimental_lpn/CMakeFiles/lpn_nrf52840_xxAA_s140_6.1.0.dir/__/__/mesh/core/src/mesh_config_flashman_glue.c.obj
 *fill*         0x2000425d        0x3 
 .bss.m_evt_cb  0x20004260        0x4 examples/experimental_lpn/CMakeFiles/lpn_nrf52840_xxAA_s140_6.1.0.dir/__/__/mesh/core/src/mesh_config_flashman_glue.c.obj
 .bss.m_lpn     0x20004264       0x4c examples/experimental_lpn/CMakeFiles/lpn_nrf52840_xxAA_s140_6.1.0.dir/__/__/mesh/core/src/lpn.c.obj
 .bss.m_lpn_fsm
                0x200042b0        0x8 examples/experimental_lpn/CMakeFiles/lpn_nrf52840_xxAA_s140_6.1.0.dir/__/__/mesh/core/src/lpn.c.obj
 .bss.m_bearer  0x200042b8        0xc examples/experimental_lpn/CMakeFiles/lpn_nrf52840_xxAA_s140_6.1.0.dir/__/__/mesh/core/src/core_tx_lpn.c.obj
 .bss.m_lpn_bearer
                0x200042c4       0x88 examples/experimental_lpn/CMakeFiles/lpn_nrf52840_xxAA_s140_6.1.0.dir/__/__/mesh/core/src/core_tx_lpn.c.obj
 .bss.m_addr_list
                0x2000434c       0x24 examples/experimental_lpn/CMakeFiles/lpn_nrf52840_xxAA_s140_6.1.0.dir/__/__/mesh/core/src/mesh_lpn_subman.c.obj
 .bss.m_address_sync_in_progress
                0x20004370        0x1 examples/experimental_lpn/CMakeFiles/lpn_nrf52840_xxAA_s140_6.1.0.dir/__/__/mesh/core/src/mesh_lpn_subman.c.obj
 .bss.m_current_transaction_number
                0x20004371        0x1 examples/experimental_lpn/CMakeFiles/lpn_nrf52840_xxAA_s140_6.1.0.dir/__/__/mesh/core/src/mesh_lpn_subman.c.obj
 .bss.m_established_received
                0x20004372        0x1 examples/experimental_lpn/CMakeFiles/lpn_nrf52840_xxAA_s140_6.1.0.dir/__/__/mesh/core/src/mesh_lpn_subman.c.obj
 .bss.m_pdu_retry_cnt
                0x20004373        0x1 examples/experimental_lpn/CMakeFiles/lpn_nrf52840_xxAA_s140_6.1.0.dir/__/__/mesh/core/src/mesh_lpn_subman.c.obj
 .bss.m_transport_ctrl_pkt
                0x20004374       0x20 examples/experimental_lpn/CMakeFiles/lpn_nrf52840_xxAA_s140_6.1.0.dir/__/__/mesh/core/src/mesh_lpn_subman.c.obj
 .bss.m_transport_pdu
                0x20004394        0xb examples/experimental_lpn/CMakeFiles/lpn_nrf52840_xxAA_s140_6.1.0.dir/__/__/mesh/core/src/mesh_lpn_subman.c.obj
 *fill*         0x2000439f        0x1 
 .bss.m_bearer  0x200043a0        0xc examples/experimental_lpn/CMakeFiles/lpn_nrf52840_xxAA_s140_6.1.0.dir/__/__/mesh/core/src/core_tx_adv.c.obj
 .bss.m_bearer_roles
                0x200043ac      0x140 examples/experimental_lpn/CMakeFiles/lpn_nrf52840_xxAA_s140_6.1.0.dir/__/__/mesh/core/src/core_tx_adv.c.obj
 .bss.m_current_alloc
                0x200044ec        0x8 examples/experimental_lpn/CMakeFiles/lpn_nrf52840_xxAA_s140_6.1.0.dir/__/__/mesh/core/src/core_tx_adv.c.obj
 .bss.m_default_adv_addr
                0x200044f4        0x7 examples/experimental_lpn/CMakeFiles/lpn_nrf52840_xxAA_s140_6.1.0.dir/__/__/mesh/core/src/core_tx_adv.c.obj
 .bss.m_mesh_opt_core_adv_addr_state
                0x200044fb        0x2 examples/experimental_lpn/CMakeFiles/lpn_nrf52840_xxAA_s140_6.1.0.dir/__/__/mesh/core/src/core_tx_adv.c.obj
 .bss.m_mesh_opt_core_adv_state
                0x200044fd        0x2 examples/experimental_lpn/CMakeFiles/lpn_nrf52840_xxAA_s140_6.1.0.dir/__/__/mesh/core/src/core_tx_adv.c.obj
 .bss.m_mesh_opt_core_tx_power_state
                0x200044ff        0x2 examples/experimental_lpn/CMakeFiles/lpn_nrf52840_xxAA_s140_6.1.0.dir/__/__/mesh/core/src/core_tx_adv.c.obj
 .bss.m_originator_adv_packet_buffer
                0x20004501      0x100 examples/experimental_lpn/CMakeFiles/lpn_nrf52840_xxAA_s140_6.1.0.dir/__/__/mesh/core/src/core_tx_adv.c.obj
 .bss.m_relay_adv_packet_buffer
                0x20004601       0x80 examples/experimental_lpn/CMakeFiles/lpn_nrf52840_xxAA_s140_6.1.0.dir/__/__/mesh/core/src/core_tx_adv.c.obj
 *fill*         0x20004681        0x3 
 .bss.m_subscribers
                0x20004684        0x4 examples/experimental_lpn/CMakeFiles/lpn_nrf52840_xxAA_s140_6.1.0.dir/__/__/mesh/bearer/src/ad_listener.c.obj
 .bss.m_adtype_filter
                0x20004688       0x38 examples/experimental_lpn/CMakeFiles/lpn_nrf52840_xxAA_s140_6.1.0.dir/__/__/mesh/bearer/src/ad_type_filter.c.obj
 .bss.m_adv_prng
                0x200046c0       0x10 examples/experimental_lpn/CMakeFiles/lpn_nrf52840_xxAA_s140_6.1.0.dir/__/__/mesh/bearer/src/advertiser.c.obj
 .bss.m_action_ended
                0x200046d0        0x1 examples/experimental_lpn/CMakeFiles/lpn_nrf52840_xxAA_s140_6.1.0.dir/__/__/mesh/bearer/src/bearer_handler.c.obj
 *fill*         0x200046d1        0x3 
 .bss.m_action_queue
                0x200046d4        0x8 examples/experimental_lpn/CMakeFiles/lpn_nrf52840_xxAA_s140_6.1.0.dir/__/__/mesh/bearer/src/bearer_handler.c.obj
 .bss.m_end_time
                0x200046dc        0x4 examples/experimental_lpn/CMakeFiles/lpn_nrf52840_xxAA_s140_6.1.0.dir/__/__/mesh/bearer/src/bearer_handler.c.obj
 .bss.m_in_callback
                0x200046e0        0x1 examples/experimental_lpn/CMakeFiles/lpn_nrf52840_xxAA_s140_6.1.0.dir/__/__/mesh/bearer/src/bearer_handler.c.obj
 .bss.m_scanner_is_active
                0x200046e1        0x1 examples/experimental_lpn/CMakeFiles/lpn_nrf52840_xxAA_s140_6.1.0.dir/__/__/mesh/bearer/src/bearer_handler.c.obj
 .bss.m_stopped
                0x200046e2        0x1 examples/experimental_lpn/CMakeFiles/lpn_nrf52840_xxAA_s140_6.1.0.dir/__/__/mesh/bearer/src/bearer_handler.c.obj
 *fill*         0x200046e3        0x1 
 .bss.m_stopped_callback
                0x200046e4        0x4 examples/experimental_lpn/CMakeFiles/lpn_nrf52840_xxAA_s140_6.1.0.dir/__/__/mesh/bearer/src/bearer_handler.c.obj
 .bss.mp_action
                0x200046e8        0x4 examples/experimental_lpn/CMakeFiles/lpn_nrf52840_xxAA_s140_6.1.0.dir/__/__/mesh/bearer/src/bearer_handler.c.obj
 .bss.m_action_start_time
                0x200046ec        0x4 examples/experimental_lpn/CMakeFiles/lpn_nrf52840_xxAA_s140_6.1.0.dir/__/__/mesh/bearer/src/broadcast.c.obj
 .bss.m_next_channel_index
                0x200046f0        0x1 examples/experimental_lpn/CMakeFiles/lpn_nrf52840_xxAA_s140_6.1.0.dir/__/__/mesh/bearer/src/broadcast.c.obj
 *fill*         0x200046f1        0x3 
 .bss.m_accepted_amount
                0x200046f4        0x4 examples/experimental_lpn/CMakeFiles/lpn_nrf52840_xxAA_s140_6.1.0.dir/__/__/mesh/bearer/src/filter_engine.c.obj
 .bss.m_filter_list_head
                0x200046f8        0x4 examples/experimental_lpn/CMakeFiles/lpn_nrf52840_xxAA_s140_6.1.0.dir/__/__/mesh/bearer/src/filter_engine.c.obj
 .bss.m_scanner
                0x200046fc      0x294 examples/experimental_lpn/CMakeFiles/lpn_nrf52840_xxAA_s140_6.1.0.dir/__/__/mesh/bearer/src/scanner.c.obj
 .bss.m_gpiote  0x20004990        0x6 examples/experimental_lpn/CMakeFiles/lpn_nrf52840_xxAA_s140_6.1.0.dir/__/__/mesh/bearer/src/mesh_pa_lna.c.obj
 *fill*         0x20004996        0x2 
 .bss.m_gatt    0x20004998      0x16c examples/experimental_lpn/CMakeFiles/lpn_nrf52840_xxAA_s140_6.1.0.dir/__/__/mesh/gatt/src/mesh_gatt.c.obj
 .bss.m_advertising
                0x20004b04       0x24 examples/experimental_lpn/CMakeFiles/lpn_nrf52840_xxAA_s140_6.1.0.dir/__/__/mesh/gatt/src/proxy.c.obj
 .bss.m_beacon_cache
                0x20004b28       0x1c examples/experimental_lpn/CMakeFiles/lpn_nrf52840_xxAA_s140_6.1.0.dir/__/__/mesh/gatt/src/proxy.c.obj
 .bss.m_beacon_cache_entries
                0x20004b44       0x40 examples/experimental_lpn/CMakeFiles/lpn_nrf52840_xxAA_s140_6.1.0.dir/__/__/mesh/gatt/src/proxy.c.obj
 .bss.m_connections
                0x20004b84       0x5c examples/experimental_lpn/CMakeFiles/lpn_nrf52840_xxAA_s140_6.1.0.dir/__/__/mesh/gatt/src/proxy.c.obj
 .bss.m_mesh_evt_handler
                0x20004be0        0xc examples/experimental_lpn/CMakeFiles/lpn_nrf52840_xxAA_s140_6.1.0.dir/__/__/mesh/gatt/src/proxy.c.obj
 .bss.m_mesh_opt_gatt_proxy_state
                0x20004bec        0x1 examples/experimental_lpn/CMakeFiles/lpn_nrf52840_xxAA_s140_6.1.0.dir/__/__/mesh/gatt/src/proxy.c.obj
 *fill*         0x20004bed        0x3 
 .bss.m_evt_cb  0x20004bf0        0x4 examples/experimental_lpn/CMakeFiles/lpn_nrf52840_xxAA_s140_6.1.0.dir/__/__/models/foundation/config/src/config_server.c.obj
 .bss.m_node_reset_pending
                0x20004bf4        0x1 examples/experimental_lpn/CMakeFiles/lpn_nrf52840_xxAA_s140_6.1.0.dir/__/__/models/foundation/config/src/config_server.c.obj
 *fill*         0x20004bf5        0x3 
 .bss.m_reset_token
                0x20004bf8        0x4 examples/experimental_lpn/CMakeFiles/lpn_nrf52840_xxAA_s140_6.1.0.dir/__/__/models/foundation/config/src/config_server.c.obj
 .bss.m_attention_timer
                0x20004bfc       0x18 examples/experimental_lpn/CMakeFiles/lpn_nrf52840_xxAA_s140_6.1.0.dir/__/__/models/foundation/health/src/health_server.c.obj
 .bss.mp_attention_list
                0x20004c14        0x4 examples/experimental_lpn/CMakeFiles/lpn_nrf52840_xxAA_s140_6.1.0.dir/__/__/models/foundation/health/src/health_server.c.obj
 .bss.m_publish_timer
                0x20004c18       0x18 examples/experimental_lpn/CMakeFiles/lpn_nrf52840_xxAA_s140_6.1.0.dir/__/__/mesh/access/src/access_publish.c.obj
 .bss.m_publish_timer_counter
                0x20004c30        0x4 examples/experimental_lpn/CMakeFiles/lpn_nrf52840_xxAA_s140_6.1.0.dir/__/__/mesh/access/src/access_publish.c.obj
 .bss.m_publish_timer_running
                0x20004c34        0x1 examples/experimental_lpn/CMakeFiles/lpn_nrf52840_xxAA_s140_6.1.0.dir/__/__/mesh/access/src/access_publish.c.obj
 .bss.m_timer_resolution
                0x20004c35        0x1 examples/experimental_lpn/CMakeFiles/lpn_nrf52840_xxAA_s140_6.1.0.dir/__/__/mesh/access/src/access_publish.c.obj
 *fill*         0x20004c36        0x2 
 .bss.mp_publication_list
                0x20004c38        0x4 examples/experimental_lpn/CMakeFiles/lpn_nrf52840_xxAA_s140_6.1.0.dir/__/__/mesh/access/src/access_publish.c.obj
 .bss.m_element_pool
                0x20004c3c        0xc examples/experimental_lpn/CMakeFiles/lpn_nrf52840_xxAA_s140_6.1.0.dir/__/__/mesh/access/src/access.c.obj
 .bss.m_evt_handler
                0x20004c48        0xc examples/experimental_lpn/CMakeFiles/lpn_nrf52840_xxAA_s140_6.1.0.dir/__/__/mesh/access/src/access.c.obj
 .bss.m_flash_manager
                0x20004c54       0x24 examples/experimental_lpn/CMakeFiles/lpn_nrf52840_xxAA_s140_6.1.0.dir/__/__/mesh/access/src/access.c.obj
 .bss.m_flash_not_ready
                0x20004c78        0x1 examples/experimental_lpn/CMakeFiles/lpn_nrf52840_xxAA_s140_6.1.0.dir/__/__/mesh/access/src/access.c.obj
 .bss.m_metadata_stored
                0x20004c79        0x1 examples/experimental_lpn/CMakeFiles/lpn_nrf52840_xxAA_s140_6.1.0.dir/__/__/mesh/access/src/access.c.obj
 *fill*         0x20004c7a        0x2 
 .bss.m_model_pool
                0x20004c7c       0xd0 examples/experimental_lpn/CMakeFiles/lpn_nrf52840_xxAA_s140_6.1.0.dir/__/__/mesh/access/src/access.c.obj
 .bss.m_subscription_list_pool
                0x20004d4c       0x20 examples/experimental_lpn/CMakeFiles/lpn_nrf52840_xxAA_s140_6.1.0.dir/__/__/mesh/access/src/access.c.obj
 .bss.m_reliable
                0x20004d6c       0xcc examples/experimental_lpn/CMakeFiles/lpn_nrf52840_xxAA_s140_6.1.0.dir/__/__/mesh/access/src/access_reliable.c.obj
 .bss.m_access_loopback_flag
                0x20004e38        0x4 examples/experimental_lpn/CMakeFiles/lpn_nrf52840_xxAA_s140_6.1.0.dir/__/__/mesh/access/src/access_loopback.c.obj
 .bss.mp_loopback_list_head
                0x20004e3c        0x4 examples/experimental_lpn/CMakeFiles/lpn_nrf52840_xxAA_s140_6.1.0.dir/__/__/mesh/access/src/access_loopback.c.obj
 .bss.m_addr_nonvirtual_allocated
                0x20004e40        0x4 examples/experimental_lpn/CMakeFiles/lpn_nrf52840_xxAA_s140_6.1.0.dir/__/__/mesh/access/src/device_state_manager.c.obj
 .bss.m_addr_nonvirtual_needs_flashing
                0x20004e44        0x4 examples/experimental_lpn/CMakeFiles/lpn_nrf52840_xxAA_s140_6.1.0.dir/__/__/mesh/access/src/device_state_manager.c.obj
 .bss.m_addr_unicast_allocated
                0x20004e48        0x4 examples/experimental_lpn/CMakeFiles/lpn_nrf52840_xxAA_s140_6.1.0.dir/__/__/mesh/access/src/device_state_manager.c.obj
 .bss.m_addr_unicast_needs_flashing
                0x20004e4c        0x4 examples/experimental_lpn/CMakeFiles/lpn_nrf52840_xxAA_s140_6.1.0.dir/__/__/mesh/access/src/device_state_manager.c.obj
 .bss.m_addr_virtual_allocated
                0x20004e50        0x4 examples/experimental_lpn/CMakeFiles/lpn_nrf52840_xxAA_s140_6.1.0.dir/__/__/mesh/access/src/device_state_manager.c.obj
 .bss.m_addr_virtual_needs_flashing
                0x20004e54        0x4 examples/experimental_lpn/CMakeFiles/lpn_nrf52840_xxAA_s140_6.1.0.dir/__/__/mesh/access/src/device_state_manager.c.obj
 .bss.m_addresses
                0x20004e58       0x20 examples/experimental_lpn/CMakeFiles/lpn_nrf52840_xxAA_s140_6.1.0.dir/__/__/mesh/access/src/device_state_manager.c.obj
 .bss.m_appkey_allocated
                0x20004e78        0x4 examples/experimental_lpn/CMakeFiles/lpn_nrf52840_xxAA_s140_6.1.0.dir/__/__/mesh/access/src/device_state_manager.c.obj
 .bss.m_appkey_needs_flashing
                0x20004e7c        0x4 examples/experimental_lpn/CMakeFiles/lpn_nrf52840_xxAA_s140_6.1.0.dir/__/__/mesh/access/src/device_state_manager.c.obj
 .bss.m_appkeys
                0x20004e80       0x2a examples/experimental_lpn/CMakeFiles/lpn_nrf52840_xxAA_s140_6.1.0.dir/__/__/mesh/access/src/device_state_manager.c.obj
 *fill*         0x20004eaa        0x2 
 .bss.m_devkey_allocated
                0x20004eac        0x4 examples/experimental_lpn/CMakeFiles/lpn_nrf52840_xxAA_s140_6.1.0.dir/__/__/mesh/access/src/device_state_manager.c.obj
 .bss.m_devkey_needs_flashing
                0x20004eb0        0x4 examples/experimental_lpn/CMakeFiles/lpn_nrf52840_xxAA_s140_6.1.0.dir/__/__/mesh/access/src/device_state_manager.c.obj
 .bss.m_devkeys
                0x20004eb4       0x16 examples/experimental_lpn/CMakeFiles/lpn_nrf52840_xxAA_s140_6.1.0.dir/__/__/mesh/access/src/device_state_manager.c.obj
 .bss.m_flash_is_available
                0x20004eca        0x1 examples/experimental_lpn/CMakeFiles/lpn_nrf52840_xxAA_s140_6.1.0.dir/__/__/mesh/access/src/device_state_manager.c.obj
 *fill*         0x20004ecb        0x1 
 .bss.m_flash_manager
                0x20004ecc       0x24 examples/experimental_lpn/CMakeFiles/lpn_nrf52840_xxAA_s140_6.1.0.dir/__/__/mesh/access/src/device_state_manager.c.obj
 .bss.m_flash_mem_listener_update_all
                0x20004ef0       0x10 examples/experimental_lpn/CMakeFiles/lpn_nrf52840_xxAA_s140_6.1.0.dir/__/__/mesh/access/src/device_state_manager.c.obj
 .bss.m_friendships
                0x20004f00       0x4c examples/experimental_lpn/CMakeFiles/lpn_nrf52840_xxAA_s140_6.1.0.dir/__/__/mesh/access/src/device_state_manager.c.obj
 .bss.m_has_primary_subnet
                0x20004f4c        0x1 examples/experimental_lpn/CMakeFiles/lpn_nrf52840_xxAA_s140_6.1.0.dir/__/__/mesh/access/src/device_state_manager.c.obj
 *fill*         0x20004f4d        0x1 
 .bss.m_local_unicast_addr
                0x20004f4e        0x4 examples/experimental_lpn/CMakeFiles/lpn_nrf52840_xxAA_s140_6.1.0.dir/__/__/mesh/access/src/device_state_manager.c.obj
 *fill*         0x20004f52        0x2 
 .bss.m_mesh_evt_handler
                0x20004f54        0xc examples/experimental_lpn/CMakeFiles/lpn_nrf52840_xxAA_s140_6.1.0.dir/__/__/mesh/access/src/device_state_manager.c.obj
 .bss.m_subnet_allocated
                0x20004f60        0x4 examples/experimental_lpn/CMakeFiles/lpn_nrf52840_xxAA_s140_6.1.0.dir/__/__/mesh/access/src/device_state_manager.c.obj
 .bss.m_subnet_needs_flashing
                0x20004f64        0x4 examples/experimental_lpn/CMakeFiles/lpn_nrf52840_xxAA_s140_6.1.0.dir/__/__/mesh/access/src/device_state_manager.c.obj
 .bss.m_subnets
                0x20004f68       0xc8 examples/experimental_lpn/CMakeFiles/lpn_nrf52840_xxAA_s140_6.1.0.dir/__/__/mesh/access/src/device_state_manager.c.obj
 .bss.m_virtual_addresses
                0x20005030       0x14 examples/experimental_lpn/CMakeFiles/lpn_nrf52840_xxAA_s140_6.1.0.dir/__/__/mesh/access/src/device_state_manager.c.obj
 .bss.m_is_timer_init
                0x20005044        0x1 examples/experimental_lpn/CMakeFiles/lpn_nrf52840_xxAA_s140_6.1.0.dir/__/__/external/app_timer/app_timer_mesh.c.obj
 *fill*         0x20005045        0x3 
 .bss.m_op_queue
                0x20005048      0x10c examples/experimental_lpn/CMakeFiles/lpn_nrf52840_xxAA_s140_6.1.0.dir/__/__/external/app_timer/app_timer_mesh.c.obj
 .bss.m_rtc1_running
                0x20005154        0x1 examples/experimental_lpn/CMakeFiles/lpn_nrf52840_xxAA_s140_6.1.0.dir/__/__/external/app_timer/app_timer_mesh.c.obj
 *fill*         0x20005155        0x3 
 .bss.m_ticks_elapsed
                0x20005158        0x8 examples/experimental_lpn/CMakeFiles/lpn_nrf52840_xxAA_s140_6.1.0.dir/__/__/external/app_timer/app_timer_mesh.c.obj
 .bss.m_ticks_elapsed_q_read_ind
                0x20005160        0x1 examples/experimental_lpn/CMakeFiles/lpn_nrf52840_xxAA_s140_6.1.0.dir/__/__/external/app_timer/app_timer_mesh.c.obj
 .bss.m_ticks_elapsed_q_write_ind
                0x20005161        0x1 examples/experimental_lpn/CMakeFiles/lpn_nrf52840_xxAA_s140_6.1.0.dir/__/__/external/app_timer/app_timer_mesh.c.obj
 *fill*         0x20005162        0x2 
 .bss.m_ticks_latest
                0x20005164        0x4 examples/experimental_lpn/CMakeFiles/lpn_nrf52840_xxAA_s140_6.1.0.dir/__/__/external/app_timer/app_timer_mesh.c.obj
 .bss.mp_timer_id_head
                0x20005168        0x4 examples/experimental_lpn/CMakeFiles/lpn_nrf52840_xxAA_s140_6.1.0.dir/__/__/external/app_timer/app_timer_mesh.c.obj
 .bss.m_event_handler
                0x2000516c        0x4 examples/experimental_lpn/CMakeFiles/lpn_nrf52840_xxAA_s140_6.1.0.dir/__/__/mesh/prov/src/prov_beacon.c.obj
 .bss.m_ecdh_offloading
                0x20005170        0x1 examples/experimental_lpn/CMakeFiles/lpn_nrf52840_xxAA_s140_6.1.0.dir/__/__/mesh/prov/src/prov_utils.c.obj
 .bss.m_ecdh_offloading_state
                0x20005171        0x1 examples/experimental_lpn/CMakeFiles/lpn_nrf52840_xxAA_s140_6.1.0.dir/__/__/mesh/prov/src/prov_utils.c.obj
 *fill*         0x20005172        0x2 
 .bss.m_evt_prov_link
                0x20005174        0xc examples/experimental_lpn/CMakeFiles/lpn_nrf52840_xxAA_s140_6.1.0.dir/__/__/mesh/prov/src/nrf_mesh_prov_bearer_gatt.c.obj
 .bss._acDownBuffer
                0x20005180       0x80 external/rtt/librtt_nrf52840_xxAA.a(SEGGER_RTT.c.obj)
 .bss._acUpBuffer
                0x20005200      0x400 external/rtt/librtt_nrf52840_xxAA.a(SEGGER_RTT.c.obj)
 .bss.__malloc_free_list
                0x20005600        0x4 c:/mesh/arm_gcc/bin/../lib/gcc/arm-none-eabi/6.3.1/../../../../arm-none-eabi/lib/thumb/v7e-m/fpv4-sp/hard\libg_nano.a(lib_a-nano-mallocr.o)
                0x20005600                __malloc_free_list
 .bss.__malloc_sbrk_start
                0x20005604        0x4 c:/mesh/arm_gcc/bin/../lib/gcc/arm-none-eabi/6.3.1/../../../../arm-none-eabi/lib/thumb/v7e-m/fpv4-sp/hard\libg_nano.a(lib_a-nano-mallocr.o)
                0x20005604                __malloc_sbrk_start
 .bss.heap_end.5239
                0x20005608        0x4 c:/mesh/arm_gcc/bin/../lib/gcc/arm-none-eabi/6.3.1/../../../../arm-none-eabi/lib/thumb/v7e-m/fpv4-sp/hard\libnosys.a(sbrk.o)
 *(COMMON)
 COMMON         0x2000560c        0xc examples/experimental_lpn/CMakeFiles/lpn_nrf52840_xxAA_s140_6.1.0.dir/C_/mesh/deps/nRF5_SDK_15.2.0_9412b96/components/libraries/util/app_util_platform.c.obj
                0x2000560c                nrf_nvic_state
 COMMON         0x20005618       0x24 examples/experimental_lpn/CMakeFiles/lpn_nrf52840_xxAA_s140_6.1.0.dir/__/__/mesh/core/src/core_tx.c.obj
                0x20005618                m_packet
 COMMON         0x2000563c       0x78 external/rtt/librtt_nrf52840_xxAA.a(SEGGER_RTT.c.obj)
                0x2000563c                _SEGGER_RTT
 COMMON         0x200056b4        0x4 c:/mesh/arm_gcc/bin/../lib/gcc/arm-none-eabi/6.3.1/../../../../arm-none-eabi/lib/thumb/v7e-m/fpv4-sp/hard\libg_nano.a(lib_a-reent.o)
                0x200056b4                errno
                0x200056b8                . = ALIGN (0x4)
                0x200056b8                __bss_end__ = .

.heap           0x200056b8     0x2000
                0x200056b8                __HeapBase = .
                0x200056b8                __end__ = .
                0x200056b8                PROVIDE (end, .)
 *(.heap*)
 .heap          0x200056b8     0x2000 examples/experimental_lpn/CMakeFiles/lpn_nrf52840_xxAA_s140_6.1.0.dir/C_/mesh/deps/nRF5_SDK_15.2.0_9412b96/modules/nrfx/mdk/gcc_startup_nrf52840.S.obj
                0x200076b8                __HeapLimit = .

.stack_dummy    0x200056b8     0x2000
 *(.stack*)
 .stack         0x200056b8     0x2000 examples/experimental_lpn/CMakeFiles/lpn_nrf52840_xxAA_s140_6.1.0.dir/C_/mesh/deps/nRF5_SDK_15.2.0_9412b96/modules/nrfx/mdk/gcc_startup_nrf52840.S.obj
                0x2003fd00                __StackTop = (ORIGIN (RAM) + LENGTH (RAM))
                0x2003dd00                __StackLimit = (__StackTop - SIZEOF (.stack_dummy))
                0x2003fd00                PROVIDE (__stack, __StackTop)
                0x00000001                ASSERT ((__StackLimit >= __HeapLimit), region RAM overflowed with stack)
                0x0000019c                DataInitFlashUsed = (__bss_start__ - __data_start__)
                0x000181d8                CodeFlashUsed = (__etext - ORIGIN (FLASH))
                0x00018374                TotalFlashUsed = (CodeFlashUsed + DataInitFlashUsed)
                0x00000001                ASSERT ((TotalFlashUsed <= LENGTH (FLASH)), region FLASH overflowed with .data and user data)
OUTPUT(examples\experimental_lpn\lpn_nrf52840_xxAA_s140_6.1.0.elf elf32-littlearm)

.ARM.attributes
                0x00000000       0x30
 .ARM.attributes
                0x00000000       0x22 c:/mesh/arm_gcc/bin/../lib/gcc/arm-none-eabi/6.3.1/thumb/v7e-m/fpv4-sp/hard/crti.o
 .ARM.attributes
                0x00000022       0x34 c:/mesh/arm_gcc/bin/../lib/gcc/arm-none-eabi/6.3.1/thumb/v7e-m/fpv4-sp/hard/crtbegin.o
 .ARM.attributes
                0x00000056       0x20 c:/mesh/arm_gcc/bin/../lib/gcc/arm-none-eabi/6.3.1/../../../../arm-none-eabi/lib/thumb/v7e-m/fpv4-sp/hard/crt0.o
 .ARM.attributes
                0x00000076       0x39 examples/experimental_lpn/CMakeFiles/lpn_nrf52840_xxAA_s140_6.1.0.dir/src/main.c.obj
 .ARM.attributes
                0x000000af       0x39 examples/experimental_lpn/CMakeFiles/lpn_nrf52840_xxAA_s140_6.1.0.dir/__/__/mesh/stack/src/mesh_stack.c.obj
 .ARM.attributes
                0x000000e8       0x39 examples/experimental_lpn/CMakeFiles/lpn_nrf52840_xxAA_s140_6.1.0.dir/__/common/src/mesh_provisionee.c.obj
 .ARM.attributes
                0x00000121       0x39 examples/experimental_lpn/CMakeFiles/lpn_nrf52840_xxAA_s140_6.1.0.dir/__/common/src/rtt_input.c.obj
 .ARM.attributes
                0x0000015a       0x39 examples/experimental_lpn/CMakeFiles/lpn_nrf52840_xxAA_s140_6.1.0.dir/__/common/src/simple_hal.c.obj
 .ARM.attributes
                0x00000193       0x39 examples/experimental_lpn/CMakeFiles/lpn_nrf52840_xxAA_s140_6.1.0.dir/__/common/src/mesh_app_utils.c.obj
 .ARM.attributes
                0x000001cc       0x39 examples/experimental_lpn/CMakeFiles/lpn_nrf52840_xxAA_s140_6.1.0.dir/__/common/src/mesh_adv.c.obj
 .ARM.attributes
                0x00000205       0x39 examples/experimental_lpn/CMakeFiles/lpn_nrf52840_xxAA_s140_6.1.0.dir/__/common/src/ble_softdevice_support.c.obj
 .ARM.attributes
                0x0000023e       0x39 examples/experimental_lpn/CMakeFiles/lpn_nrf52840_xxAA_s140_6.1.0.dir/C_/mesh/deps/nRF5_SDK_15.2.0_9412b96/components/libraries/util/app_util_platform.c.obj
 .ARM.attributes
                0x00000277       0x39 examples/experimental_lpn/CMakeFiles/lpn_nrf52840_xxAA_s140_6.1.0.dir/C_/mesh/deps/nRF5_SDK_15.2.0_9412b96/components/ble/common/ble_advdata.c.obj
 .ARM.attributes
                0x000002b0       0x39 examples/experimental_lpn/CMakeFiles/lpn_nrf52840_xxAA_s140_6.1.0.dir/C_/mesh/deps/nRF5_SDK_15.2.0_9412b96/components/libraries/experimental_section_vars/nrf_section_iter.c.obj
 .ARM.attributes
                0x000002e9       0x39 examples/experimental_lpn/CMakeFiles/lpn_nrf52840_xxAA_s140_6.1.0.dir/C_/mesh/deps/nRF5_SDK_15.2.0_9412b96/components/softdevice/common/nrf_sdh_soc.c.obj
 .ARM.attributes
                0x00000322       0x39 examples/experimental_lpn/CMakeFiles/lpn_nrf52840_xxAA_s140_6.1.0.dir/C_/mesh/deps/nRF5_SDK_15.2.0_9412b96/components/softdevice/common/nrf_sdh_ble.c.obj
 .ARM.attributes
                0x0000035b       0x39 examples/experimental_lpn/CMakeFiles/lpn_nrf52840_xxAA_s140_6.1.0.dir/C_/mesh/deps/nRF5_SDK_15.2.0_9412b96/components/softdevice/common/nrf_sdh.c.obj
 .ARM.attributes
                0x00000394       0x39 examples/experimental_lpn/CMakeFiles/lpn_nrf52840_xxAA_s140_6.1.0.dir/C_/mesh/deps/nRF5_SDK_15.2.0_9412b96/components/ble/common/ble_conn_params.c.obj
 .ARM.attributes
                0x000003cd       0x39 examples/experimental_lpn/CMakeFiles/lpn_nrf52840_xxAA_s140_6.1.0.dir/C_/mesh/deps/nRF5_SDK_15.2.0_9412b96/components/ble/common/ble_srv_common.c.obj
 .ARM.attributes
                0x00000406       0x39 examples/experimental_lpn/CMakeFiles/lpn_nrf52840_xxAA_s140_6.1.0.dir/__/nrf_mesh_weak.c.obj
 .ARM.attributes
                0x0000043f       0x39 examples/experimental_lpn/CMakeFiles/lpn_nrf52840_xxAA_s140_6.1.0.dir/__/common/src/app_error_weak.c.obj
 .ARM.attributes
                0x00000478       0x39 examples/experimental_lpn/CMakeFiles/lpn_nrf52840_xxAA_s140_6.1.0.dir/__/common/src/assertion_handler_weak.c.obj
 .ARM.attributes
                0x000004b1       0x39 examples/experimental_lpn/CMakeFiles/lpn_nrf52840_xxAA_s140_6.1.0.dir/__/__/mesh/core/src/nrf_mesh_configure.c.obj
 .ARM.attributes
                0x000004ea       0x39 examples/experimental_lpn/CMakeFiles/lpn_nrf52840_xxAA_s140_6.1.0.dir/__/__/mesh/core/src/msg_cache.c.obj
 .ARM.attributes
                0x00000523       0x39 examples/experimental_lpn/CMakeFiles/lpn_nrf52840_xxAA_s140_6.1.0.dir/__/__/mesh/core/src/transport.c.obj
 .ARM.attributes
                0x0000055c       0x39 examples/experimental_lpn/CMakeFiles/lpn_nrf52840_xxAA_s140_6.1.0.dir/__/__/mesh/core/src/event.c.obj
 .ARM.attributes
                0x00000595       0x39 examples/experimental_lpn/CMakeFiles/lpn_nrf52840_xxAA_s140_6.1.0.dir/__/__/mesh/core/src/packet_buffer.c.obj
 .ARM.attributes
                0x000005ce       0x39 examples/experimental_lpn/CMakeFiles/lpn_nrf52840_xxAA_s140_6.1.0.dir/__/__/mesh/core/src/flash_manager_defrag.c.obj
 .ARM.attributes
                0x00000607       0x39 examples/experimental_lpn/CMakeFiles/lpn_nrf52840_xxAA_s140_6.1.0.dir/__/__/mesh/core/src/fifo.c.obj
 .ARM.attributes
                0x00000640       0x39 examples/experimental_lpn/CMakeFiles/lpn_nrf52840_xxAA_s140_6.1.0.dir/__/__/mesh/core/src/nrf_flash.c.obj
 .ARM.attributes
                0x00000679       0x39 examples/experimental_lpn/CMakeFiles/lpn_nrf52840_xxAA_s140_6.1.0.dir/__/__/mesh/core/src/net_state.c.obj
 .ARM.attributes
                0x000006b2       0x39 examples/experimental_lpn/CMakeFiles/lpn_nrf52840_xxAA_s140_6.1.0.dir/__/__/mesh/core/src/mesh_flash.c.obj
 .ARM.attributes
                0x000006eb       0x39 examples/experimental_lpn/CMakeFiles/lpn_nrf52840_xxAA_s140_6.1.0.dir/__/__/mesh/core/src/nrf_mesh_utils.c.obj
 .ARM.attributes
                0x00000724       0x39 examples/experimental_lpn/CMakeFiles/lpn_nrf52840_xxAA_s140_6.1.0.dir/__/__/mesh/core/src/nrf_mesh.c.obj
 .ARM.attributes
                0x0000075d       0x39 examples/experimental_lpn/CMakeFiles/lpn_nrf52840_xxAA_s140_6.1.0.dir/__/__/mesh/core/src/queue.c.obj
 .ARM.attributes
                0x00000796       0x39 examples/experimental_lpn/CMakeFiles/lpn_nrf52840_xxAA_s140_6.1.0.dir/__/__/mesh/core/src/hal.c.obj
 .ARM.attributes
                0x000007cf       0x39 examples/experimental_lpn/CMakeFiles/lpn_nrf52840_xxAA_s140_6.1.0.dir/__/__/mesh/core/src/aes_cmac.c.obj
 .ARM.attributes
                0x00000808       0x39 examples/experimental_lpn/CMakeFiles/lpn_nrf52840_xxAA_s140_6.1.0.dir/__/__/mesh/core/src/timer_scheduler.c.obj
 .ARM.attributes
                0x00000841       0x39 examples/experimental_lpn/CMakeFiles/lpn_nrf52840_xxAA_s140_6.1.0.dir/__/__/mesh/core/src/timer.c.obj
 .ARM.attributes
                0x0000087a       0x39 examples/experimental_lpn/CMakeFiles/lpn_nrf52840_xxAA_s140_6.1.0.dir/__/__/mesh/core/src/rand.c.obj
 .ARM.attributes
                0x000008b3       0x39 examples/experimental_lpn/CMakeFiles/lpn_nrf52840_xxAA_s140_6.1.0.dir/__/__/mesh/core/src/mesh_opt.c.obj
 .ARM.attributes
                0x000008ec       0x39 examples/experimental_lpn/CMakeFiles/lpn_nrf52840_xxAA_s140_6.1.0.dir/__/__/mesh/core/src/timeslot.c.obj
 .ARM.attributes
                0x00000925       0x39 examples/experimental_lpn/CMakeFiles/lpn_nrf52840_xxAA_s140_6.1.0.dir/__/__/mesh/core/src/timeslot_timer.c.obj
 .ARM.attributes
                0x0000095e       0x39 examples/experimental_lpn/CMakeFiles/lpn_nrf52840_xxAA_s140_6.1.0.dir/__/__/mesh/core/src/bearer_event.c.obj
 .ARM.attributes
                0x00000997       0x39 examples/experimental_lpn/CMakeFiles/lpn_nrf52840_xxAA_s140_6.1.0.dir/__/__/mesh/core/src/enc.c.obj
 .ARM.attributes
                0x000009d0       0x39 examples/experimental_lpn/CMakeFiles/lpn_nrf52840_xxAA_s140_6.1.0.dir/__/__/mesh/core/src/network.c.obj
 .ARM.attributes
                0x00000a09       0x39 examples/experimental_lpn/CMakeFiles/lpn_nrf52840_xxAA_s140_6.1.0.dir/__/__/mesh/core/src/net_packet.c.obj
 .ARM.attributes
                0x00000a42       0x39 examples/experimental_lpn/CMakeFiles/lpn_nrf52840_xxAA_s140_6.1.0.dir/__/__/mesh/core/src/msqueue.c.obj
 .ARM.attributes
                0x00000a7b       0x39 examples/experimental_lpn/CMakeFiles/lpn_nrf52840_xxAA_s140_6.1.0.dir/__/__/mesh/core/src/nrf_mesh_keygen.c.obj
 .ARM.attributes
                0x00000ab4       0x39 examples/experimental_lpn/CMakeFiles/lpn_nrf52840_xxAA_s140_6.1.0.dir/__/__/mesh/core/src/cache.c.obj
 .ARM.attributes
                0x00000aed       0x39 examples/experimental_lpn/CMakeFiles/lpn_nrf52840_xxAA_s140_6.1.0.dir/__/__/mesh/core/src/list.c.obj
 .ARM.attributes
                0x00000b26       0x39 examples/experimental_lpn/CMakeFiles/lpn_nrf52840_xxAA_s140_6.1.0.dir/__/__/mesh/core/src/log.c.obj
 .ARM.attributes
                0x00000b5f       0x39 examples/experimental_lpn/CMakeFiles/lpn_nrf52840_xxAA_s140_6.1.0.dir/__/__/mesh/core/src/flash_manager.c.obj
 .ARM.attributes
                0x00000b98       0x39 examples/experimental_lpn/CMakeFiles/lpn_nrf52840_xxAA_s140_6.1.0.dir/__/__/mesh/core/src/ccm_soft.c.obj
 .ARM.attributes
                0x00000bd1       0x39 examples/experimental_lpn/CMakeFiles/lpn_nrf52840_xxAA_s140_6.1.0.dir/__/__/mesh/core/src/replay_cache.c.obj
 .ARM.attributes
                0x00000c0a       0x39 examples/experimental_lpn/CMakeFiles/lpn_nrf52840_xxAA_s140_6.1.0.dir/__/__/mesh/core/src/beacon.c.obj
 .ARM.attributes
                0x00000c43       0x39 examples/experimental_lpn/CMakeFiles/lpn_nrf52840_xxAA_s140_6.1.0.dir/__/__/mesh/core/src/flash_manager_internal.c.obj
 .ARM.attributes
                0x00000c7c       0x39 examples/experimental_lpn/CMakeFiles/lpn_nrf52840_xxAA_s140_6.1.0.dir/__/__/mesh/core/src/core_tx.c.obj
 .ARM.attributes
                0x00000cb5       0x39 examples/experimental_lpn/CMakeFiles/lpn_nrf52840_xxAA_s140_6.1.0.dir/__/__/mesh/core/src/heartbeat.c.obj
 .ARM.attributes
                0x00000cee       0x39 examples/experimental_lpn/CMakeFiles/lpn_nrf52840_xxAA_s140_6.1.0.dir/__/__/mesh/core/src/net_beacon.c.obj
 .ARM.attributes
                0x00000d27       0x39 examples/experimental_lpn/CMakeFiles/lpn_nrf52840_xxAA_s140_6.1.0.dir/__/__/mesh/core/src/mesh_config.c.obj
 .ARM.attributes
                0x00000d60       0x39 examples/experimental_lpn/CMakeFiles/lpn_nrf52840_xxAA_s140_6.1.0.dir/__/__/mesh/core/src/fsm.c.obj
 .ARM.attributes
                0x00000d99       0x39 examples/experimental_lpn/CMakeFiles/lpn_nrf52840_xxAA_s140_6.1.0.dir/__/__/mesh/core/src/mesh_config_backend.c.obj
 .ARM.attributes
                0x00000dd2       0x39 examples/experimental_lpn/CMakeFiles/lpn_nrf52840_xxAA_s140_6.1.0.dir/__/__/mesh/core/src/mesh_config_flashman_glue.c.obj
 .ARM.attributes
                0x00000e0b       0x39 examples/experimental_lpn/CMakeFiles/lpn_nrf52840_xxAA_s140_6.1.0.dir/__/__/mesh/core/src/lpn.c.obj
 .ARM.attributes
                0x00000e44       0x39 examples/experimental_lpn/CMakeFiles/lpn_nrf52840_xxAA_s140_6.1.0.dir/__/__/mesh/core/src/core_tx_lpn.c.obj
 .ARM.attributes
                0x00000e7d       0x39 examples/experimental_lpn/CMakeFiles/lpn_nrf52840_xxAA_s140_6.1.0.dir/__/__/mesh/core/src/mesh_lpn_subman.c.obj
 .ARM.attributes
                0x00000eb6       0x39 examples/experimental_lpn/CMakeFiles/lpn_nrf52840_xxAA_s140_6.1.0.dir/__/__/mesh/core/src/core_tx_adv.c.obj
 .ARM.attributes
                0x00000eef       0x39 examples/experimental_lpn/CMakeFiles/lpn_nrf52840_xxAA_s140_6.1.0.dir/__/__/mesh/core/src/mesh_mem_stdlib.c.obj
 .ARM.attributes
                0x00000f28       0x39 examples/experimental_lpn/CMakeFiles/lpn_nrf52840_xxAA_s140_6.1.0.dir/__/__/mesh/bearer/src/ad_listener.c.obj
 .ARM.attributes
                0x00000f61       0x39 examples/experimental_lpn/CMakeFiles/lpn_nrf52840_xxAA_s140_6.1.0.dir/__/__/mesh/bearer/src/ad_type_filter.c.obj
 .ARM.attributes
                0x00000f9a       0x39 examples/experimental_lpn/CMakeFiles/lpn_nrf52840_xxAA_s140_6.1.0.dir/__/__/mesh/bearer/src/advertiser.c.obj
 .ARM.attributes
                0x00000fd3       0x39 examples/experimental_lpn/CMakeFiles/lpn_nrf52840_xxAA_s140_6.1.0.dir/__/__/mesh/bearer/src/bearer_handler.c.obj
 .ARM.attributes
                0x0000100c       0x39 examples/experimental_lpn/CMakeFiles/lpn_nrf52840_xxAA_s140_6.1.0.dir/__/__/mesh/bearer/src/broadcast.c.obj
 .ARM.attributes
                0x00001045       0x39 examples/experimental_lpn/CMakeFiles/lpn_nrf52840_xxAA_s140_6.1.0.dir/__/__/mesh/bearer/src/filter_engine.c.obj
 .ARM.attributes
                0x0000107e       0x39 examples/experimental_lpn/CMakeFiles/lpn_nrf52840_xxAA_s140_6.1.0.dir/__/__/mesh/bearer/src/radio_config.c.obj
 .ARM.attributes
                0x000010b7       0x39 examples/experimental_lpn/CMakeFiles/lpn_nrf52840_xxAA_s140_6.1.0.dir/__/__/mesh/bearer/src/scanner.c.obj
 .ARM.attributes
                0x000010f0       0x39 examples/experimental_lpn/CMakeFiles/lpn_nrf52840_xxAA_s140_6.1.0.dir/__/__/mesh/bearer/src/mesh_pa_lna.c.obj
 .ARM.attributes
                0x00001129       0x39 examples/experimental_lpn/CMakeFiles/lpn_nrf52840_xxAA_s140_6.1.0.dir/__/__/mesh/gatt/src/mesh_gatt.c.obj
 .ARM.attributes
                0x00001162       0x39 examples/experimental_lpn/CMakeFiles/lpn_nrf52840_xxAA_s140_6.1.0.dir/__/__/mesh/gatt/src/proxy.c.obj
 .ARM.attributes
                0x0000119b       0x39 examples/experimental_lpn/CMakeFiles/lpn_nrf52840_xxAA_s140_6.1.0.dir/__/__/mesh/gatt/src/proxy_filter.c.obj
 .ARM.attributes
                0x000011d4       0x39 examples/experimental_lpn/CMakeFiles/lpn_nrf52840_xxAA_s140_6.1.0.dir/__/__/models/model_spec/generic_onoff/src/generic_onoff_client.c.obj
 .ARM.attributes
                0x0000120d       0x39 examples/experimental_lpn/CMakeFiles/lpn_nrf52840_xxAA_s140_6.1.0.dir/__/__/models/model_spec/common/src/model_common.c.obj
 .ARM.attributes
                0x00001246       0x39 examples/experimental_lpn/CMakeFiles/lpn_nrf52840_xxAA_s140_6.1.0.dir/__/__/models/foundation/config/src/composition_data.c.obj
 .ARM.attributes
                0x0000127f       0x39 examples/experimental_lpn/CMakeFiles/lpn_nrf52840_xxAA_s140_6.1.0.dir/__/__/models/foundation/config/src/config_server.c.obj
 .ARM.attributes
                0x000012b8       0x39 examples/experimental_lpn/CMakeFiles/lpn_nrf52840_xxAA_s140_6.1.0.dir/__/__/models/foundation/config/src/packed_index_list.c.obj
 .ARM.attributes
                0x000012f1       0x39 examples/experimental_lpn/CMakeFiles/lpn_nrf52840_xxAA_s140_6.1.0.dir/__/__/models/foundation/health/src/health_server.c.obj
 .ARM.attributes
                0x0000132a       0x39 examples/experimental_lpn/CMakeFiles/lpn_nrf52840_xxAA_s140_6.1.0.dir/__/__/mesh/access/src/access_publish.c.obj
 .ARM.attributes
                0x00001363       0x39 examples/experimental_lpn/CMakeFiles/lpn_nrf52840_xxAA_s140_6.1.0.dir/__/__/mesh/access/src/access.c.obj
 .ARM.attributes
                0x0000139c       0x39 examples/experimental_lpn/CMakeFiles/lpn_nrf52840_xxAA_s140_6.1.0.dir/__/__/mesh/access/src/access_reliable.c.obj
 .ARM.attributes
                0x000013d5       0x39 examples/experimental_lpn/CMakeFiles/lpn_nrf52840_xxAA_s140_6.1.0.dir/__/__/mesh/access/src/access_loopback.c.obj
 .ARM.attributes
                0x0000140e       0x39 examples/experimental_lpn/CMakeFiles/lpn_nrf52840_xxAA_s140_6.1.0.dir/__/__/mesh/access/src/device_state_manager.c.obj
 .ARM.attributes
                0x00001447       0x39 examples/experimental_lpn/CMakeFiles/lpn_nrf52840_xxAA_s140_6.1.0.dir/__/__/external/app_timer/app_timer_mesh.c.obj
 .ARM.attributes
                0x00001480       0x39 examples/experimental_lpn/CMakeFiles/lpn_nrf52840_xxAA_s140_6.1.0.dir/__/__/mesh/prov/src/prov_provisionee.c.obj
 .ARM.attributes
                0x000014b9       0x39 examples/experimental_lpn/CMakeFiles/lpn_nrf52840_xxAA_s140_6.1.0.dir/__/__/mesh/prov/src/nrf_mesh_prov.c.obj
 .ARM.attributes
                0x000014f2       0x39 examples/experimental_lpn/CMakeFiles/lpn_nrf52840_xxAA_s140_6.1.0.dir/__/__/mesh/prov/src/provisioning.c.obj
 .ARM.attributes
                0x0000152b       0x39 examples/experimental_lpn/CMakeFiles/lpn_nrf52840_xxAA_s140_6.1.0.dir/__/__/mesh/prov/src/prov_beacon.c.obj
 .ARM.attributes
                0x00001564       0x39 examples/experimental_lpn/CMakeFiles/lpn_nrf52840_xxAA_s140_6.1.0.dir/__/__/mesh/prov/src/prov_utils.c.obj
 .ARM.attributes
                0x0000159d       0x39 examples/experimental_lpn/CMakeFiles/lpn_nrf52840_xxAA_s140_6.1.0.dir/__/__/mesh/prov/src/nrf_mesh_prov_bearer_gatt.c.obj
 .ARM.attributes
                0x000015d6       0x39 examples/experimental_lpn/CMakeFiles/lpn_nrf52840_xxAA_s140_6.1.0.dir/C_/mesh/deps/nRF5_SDK_15.2.0_9412b96/modules/nrfx/mdk/system_nrf52840.c.obj
 .ARM.attributes
                0x0000160f       0x20 examples/experimental_lpn/CMakeFiles/lpn_nrf52840_xxAA_s140_6.1.0.dir/C_/mesh/deps/nRF5_SDK_15.2.0_9412b96/modules/nrfx/mdk/gcc_startup_nrf52840.S.obj
 .ARM.attributes
                0x0000162f       0x39 examples/experimental_lpn/CMakeFiles/lpn_nrf52840_xxAA_s140_6.1.0.dir/C_/mesh/deps/nRF5_SDK_15.2.0_9412b96/components/libraries/util/app_error.c.obj
 .ARM.attributes
                0x00001668       0x39 examples/experimental_lpn/CMakeFiles/lpn_nrf52840_xxAA_s140_6.1.0.dir/C_/mesh/deps/nRF5_SDK_15.2.0_9412b96/components/libraries/util/app_error_handler_gcc.c.obj
 .ARM.attributes
                0x000016a1       0x39 external/rtt/librtt_nrf52840_xxAA.a(SEGGER_RTT.c.obj)
 .ARM.attributes
                0x000016da       0x39 external/rtt/librtt_nrf52840_xxAA.a(SEGGER_RTT_printf.c.obj)
 .ARM.attributes
                0x00001713       0x39 external/micro-ecc/libuECC_nrf52840_xxAA.a(uECC.c.obj)
 .ARM.attributes
                0x0000174c       0x22 c:/mesh/arm_gcc/bin/../lib/gcc/arm-none-eabi/6.3.1/thumb/v7e-m/fpv4-sp/hard\libgcc.a(_aeabi_uldivmod.o)
 .ARM.attributes
                0x0000176e       0x34 c:/mesh/arm_gcc/bin/../lib/gcc/arm-none-eabi/6.3.1/thumb/v7e-m/fpv4-sp/hard\libgcc.a(_udivmoddi4.o)
 .ARM.attributes
                0x000017a2       0x22 c:/mesh/arm_gcc/bin/../lib/gcc/arm-none-eabi/6.3.1/thumb/v7e-m/fpv4-sp/hard\libgcc.a(_dvmd_tls.o)
 .ARM.attributes
                0x000017c4       0x34 c:/mesh/arm_gcc/bin/../lib/gcc/arm-none-eabi/6.3.1/../../../../arm-none-eabi/lib/thumb/v7e-m/fpv4-sp/hard\libg_nano.a(lib_a-exit.o)
 .ARM.attributes
                0x000017f8       0x34 c:/mesh/arm_gcc/bin/../lib/gcc/arm-none-eabi/6.3.1/../../../../arm-none-eabi/lib/thumb/v7e-m/fpv4-sp/hard\libg_nano.a(lib_a-impure.o)
 .ARM.attributes
                0x0000182c       0x34 c:/mesh/arm_gcc/bin/../lib/gcc/arm-none-eabi/6.3.1/../../../../arm-none-eabi/lib/thumb/v7e-m/fpv4-sp/hard\libg_nano.a(lib_a-init.o)
 .ARM.attributes
                0x00001860       0x34 c:/mesh/arm_gcc/bin/../lib/gcc/arm-none-eabi/6.3.1/../../../../arm-none-eabi/lib/thumb/v7e-m/fpv4-sp/hard\libg_nano.a(lib_a-malloc.o)
 .ARM.attributes
                0x00001894       0x34 c:/mesh/arm_gcc/bin/../lib/gcc/arm-none-eabi/6.3.1/../../../../arm-none-eabi/lib/thumb/v7e-m/fpv4-sp/hard\libg_nano.a(lib_a-memcmp.o)
 .ARM.attributes
                0x000018c8       0x34 c:/mesh/arm_gcc/bin/../lib/gcc/arm-none-eabi/6.3.1/../../../../arm-none-eabi/lib/thumb/v7e-m/fpv4-sp/hard\libg_nano.a(lib_a-memcpy-stub.o)
 .ARM.attributes
                0x000018fc       0x34 c:/mesh/arm_gcc/bin/../lib/gcc/arm-none-eabi/6.3.1/../../../../arm-none-eabi/lib/thumb/v7e-m/fpv4-sp/hard\libg_nano.a(lib_a-memset.o)
 .ARM.attributes
                0x00001930       0x34 c:/mesh/arm_gcc/bin/../lib/gcc/arm-none-eabi/6.3.1/../../../../arm-none-eabi/lib/thumb/v7e-m/fpv4-sp/hard\libg_nano.a(lib_a-nano-freer.o)
 .ARM.attributes
                0x00001964       0x34 c:/mesh/arm_gcc/bin/../lib/gcc/arm-none-eabi/6.3.1/../../../../arm-none-eabi/lib/thumb/v7e-m/fpv4-sp/hard\libg_nano.a(lib_a-nano-mallocr.o)
 .ARM.attributes
                0x00001998       0x34 c:/mesh/arm_gcc/bin/../lib/gcc/arm-none-eabi/6.3.1/../../../../arm-none-eabi/lib/thumb/v7e-m/fpv4-sp/hard\libg_nano.a(lib_a-sbrkr.o)
 .ARM.attributes
                0x000019cc       0x34 c:/mesh/arm_gcc/bin/../lib/gcc/arm-none-eabi/6.3.1/../../../../arm-none-eabi/lib/thumb/v7e-m/fpv4-sp/hard\libg_nano.a(lib_a-strcpy.o)
 .ARM.attributes
                0x00001a00       0x1b c:/mesh/arm_gcc/bin/../lib/gcc/arm-none-eabi/6.3.1/../../../../arm-none-eabi/lib/thumb/v7e-m/fpv4-sp/hard\libg_nano.a(lib_a-strlen.o)
 .ARM.attributes
                0x00001a1b       0x34 c:/mesh/arm_gcc/bin/../lib/gcc/arm-none-eabi/6.3.1/../../../../arm-none-eabi/lib/thumb/v7e-m/fpv4-sp/hard\libg_nano.a(lib_a-strrchr.o)
 .ARM.attributes
                0x00001a4f       0x34 c:/mesh/arm_gcc/bin/../lib/gcc/arm-none-eabi/6.3.1/../../../../arm-none-eabi/lib/thumb/v7e-m/fpv4-sp/hard\libg_nano.a(lib_a-mlock.o)
 .ARM.attributes
                0x00001a83       0x34 c:/mesh/arm_gcc/bin/../lib/gcc/arm-none-eabi/6.3.1/../../../../arm-none-eabi/lib/thumb/v7e-m/fpv4-sp/hard\libg_nano.a(lib_a-reent.o)
 .ARM.attributes
                0x00001ab7       0x34 c:/mesh/arm_gcc/bin/../lib/gcc/arm-none-eabi/6.3.1/../../../../arm-none-eabi/lib/thumb/v7e-m/fpv4-sp/hard\libg_nano.a(lib_a-strchr.o)
 .ARM.attributes
                0x00001aeb       0x34 c:/mesh/arm_gcc/bin/../lib/gcc/arm-none-eabi/6.3.1/thumb/v7e-m/fpv4-sp/hard/crtend.o
 .ARM.attributes
                0x00001b1f       0x22 c:/mesh/arm_gcc/bin/../lib/gcc/arm-none-eabi/6.3.1/thumb/v7e-m/fpv4-sp/hard/crtn.o
 .ARM.attributes
                0x00001b41       0x34 c:/mesh/arm_gcc/bin/../lib/gcc/arm-none-eabi/6.3.1/../../../../arm-none-eabi/lib/thumb/v7e-m/fpv4-sp/hard\libnosys.a(sbrk.o)
 .ARM.attributes
                0x00001b75       0x34 c:/mesh/arm_gcc/bin/../lib/gcc/arm-none-eabi/6.3.1/../../../../arm-none-eabi/lib/thumb/v7e-m/fpv4-sp/hard\libnosys.a(_exit.o)

.comment        0x00000000       0x7f
 .comment       0x00000000       0x7f examples/experimental_lpn/CMakeFiles/lpn_nrf52840_xxAA_s140_6.1.0.dir/src/main.c.obj
                                 0x80 (size before relaxing)
 .comment       0x0000007f       0x80 examples/experimental_lpn/CMakeFiles/lpn_nrf52840_xxAA_s140_6.1.0.dir/__/__/mesh/stack/src/mesh_stack.c.obj
 .comment       0x0000007f       0x80 examples/experimental_lpn/CMakeFiles/lpn_nrf52840_xxAA_s140_6.1.0.dir/__/common/src/mesh_provisionee.c.obj
 .comment       0x0000007f       0x80 examples/experimental_lpn/CMakeFiles/lpn_nrf52840_xxAA_s140_6.1.0.dir/__/common/src/rtt_input.c.obj
 .comment       0x0000007f       0x80 examples/experimental_lpn/CMakeFiles/lpn_nrf52840_xxAA_s140_6.1.0.dir/__/common/src/simple_hal.c.obj
 .comment       0x0000007f       0x80 examples/experimental_lpn/CMakeFiles/lpn_nrf52840_xxAA_s140_6.1.0.dir/__/common/src/mesh_app_utils.c.obj
 .comment       0x0000007f       0x80 examples/experimental_lpn/CMakeFiles/lpn_nrf52840_xxAA_s140_6.1.0.dir/__/common/src/mesh_adv.c.obj
 .comment       0x0000007f       0x80 examples/experimental_lpn/CMakeFiles/lpn_nrf52840_xxAA_s140_6.1.0.dir/__/common/src/ble_softdevice_support.c.obj
 .comment       0x0000007f       0x80 examples/experimental_lpn/CMakeFiles/lpn_nrf52840_xxAA_s140_6.1.0.dir/C_/mesh/deps/nRF5_SDK_15.2.0_9412b96/components/libraries/util/app_util_platform.c.obj
 .comment       0x0000007f       0x80 examples/experimental_lpn/CMakeFiles/lpn_nrf52840_xxAA_s140_6.1.0.dir/C_/mesh/deps/nRF5_SDK_15.2.0_9412b96/components/ble/common/ble_advdata.c.obj
 .comment       0x0000007f       0x80 examples/experimental_lpn/CMakeFiles/lpn_nrf52840_xxAA_s140_6.1.0.dir/C_/mesh/deps/nRF5_SDK_15.2.0_9412b96/components/libraries/experimental_section_vars/nrf_section_iter.c.obj
 .comment       0x0000007f       0x80 examples/experimental_lpn/CMakeFiles/lpn_nrf52840_xxAA_s140_6.1.0.dir/C_/mesh/deps/nRF5_SDK_15.2.0_9412b96/components/softdevice/common/nrf_sdh_soc.c.obj
 .comment       0x0000007f       0x80 examples/experimental_lpn/CMakeFiles/lpn_nrf52840_xxAA_s140_6.1.0.dir/C_/mesh/deps/nRF5_SDK_15.2.0_9412b96/components/softdevice/common/nrf_sdh_ble.c.obj
 .comment       0x0000007f       0x80 examples/experimental_lpn/CMakeFiles/lpn_nrf52840_xxAA_s140_6.1.0.dir/C_/mesh/deps/nRF5_SDK_15.2.0_9412b96/components/softdevice/common/nrf_sdh.c.obj
 .comment       0x0000007f       0x80 examples/experimental_lpn/CMakeFiles/lpn_nrf52840_xxAA_s140_6.1.0.dir/C_/mesh/deps/nRF5_SDK_15.2.0_9412b96/components/ble/common/ble_conn_params.c.obj
 .comment       0x0000007f       0x80 examples/experimental_lpn/CMakeFiles/lpn_nrf52840_xxAA_s140_6.1.0.dir/C_/mesh/deps/nRF5_SDK_15.2.0_9412b96/components/ble/common/ble_srv_common.c.obj
 .comment       0x0000007f       0x80 examples/experimental_lpn/CMakeFiles/lpn_nrf52840_xxAA_s140_6.1.0.dir/__/nrf_mesh_weak.c.obj
 .comment       0x0000007f       0x80 examples/experimental_lpn/CMakeFiles/lpn_nrf52840_xxAA_s140_6.1.0.dir/__/common/src/app_error_weak.c.obj
 .comment       0x0000007f       0x80 examples/experimental_lpn/CMakeFiles/lpn_nrf52840_xxAA_s140_6.1.0.dir/__/common/src/assertion_handler_weak.c.obj
 .comment       0x0000007f       0x80 examples/experimental_lpn/CMakeFiles/lpn_nrf52840_xxAA_s140_6.1.0.dir/__/__/mesh/core/src/nrf_mesh_configure.c.obj
 .comment       0x0000007f       0x80 examples/experimental_lpn/CMakeFiles/lpn_nrf52840_xxAA_s140_6.1.0.dir/__/__/mesh/core/src/msg_cache.c.obj
 .comment       0x0000007f       0x80 examples/experimental_lpn/CMakeFiles/lpn_nrf52840_xxAA_s140_6.1.0.dir/__/__/mesh/core/src/transport.c.obj
 .comment       0x0000007f       0x80 examples/experimental_lpn/CMakeFiles/lpn_nrf52840_xxAA_s140_6.1.0.dir/__/__/mesh/core/src/event.c.obj
 .comment       0x0000007f       0x80 examples/experimental_lpn/CMakeFiles/lpn_nrf52840_xxAA_s140_6.1.0.dir/__/__/mesh/core/src/packet_buffer.c.obj
 .comment       0x0000007f       0x80 examples/experimental_lpn/CMakeFiles/lpn_nrf52840_xxAA_s140_6.1.0.dir/__/__/mesh/core/src/flash_manager_defrag.c.obj
 .comment       0x0000007f       0x80 examples/experimental_lpn/CMakeFiles/lpn_nrf52840_xxAA_s140_6.1.0.dir/__/__/mesh/core/src/fifo.c.obj
 .comment       0x0000007f       0x80 examples/experimental_lpn/CMakeFiles/lpn_nrf52840_xxAA_s140_6.1.0.dir/__/__/mesh/core/src/nrf_flash.c.obj
 .comment       0x0000007f       0x80 examples/experimental_lpn/CMakeFiles/lpn_nrf52840_xxAA_s140_6.1.0.dir/__/__/mesh/core/src/net_state.c.obj
 .comment       0x0000007f       0x80 examples/experimental_lpn/CMakeFiles/lpn_nrf52840_xxAA_s140_6.1.0.dir/__/__/mesh/core/src/mesh_flash.c.obj
 .comment       0x0000007f       0x80 examples/experimental_lpn/CMakeFiles/lpn_nrf52840_xxAA_s140_6.1.0.dir/__/__/mesh/core/src/nrf_mesh_utils.c.obj
 .comment       0x0000007f       0x80 examples/experimental_lpn/CMakeFiles/lpn_nrf52840_xxAA_s140_6.1.0.dir/__/__/mesh/core/src/nrf_mesh.c.obj
 .comment       0x0000007f       0x80 examples/experimental_lpn/CMakeFiles/lpn_nrf52840_xxAA_s140_6.1.0.dir/__/__/mesh/core/src/queue.c.obj
 .comment       0x0000007f       0x80 examples/experimental_lpn/CMakeFiles/lpn_nrf52840_xxAA_s140_6.1.0.dir/__/__/mesh/core/src/hal.c.obj
 .comment       0x0000007f       0x80 examples/experimental_lpn/CMakeFiles/lpn_nrf52840_xxAA_s140_6.1.0.dir/__/__/mesh/core/src/aes_cmac.c.obj
 .comment       0x0000007f       0x80 examples/experimental_lpn/CMakeFiles/lpn_nrf52840_xxAA_s140_6.1.0.dir/__/__/mesh/core/src/timer_scheduler.c.obj
 .comment       0x0000007f       0x80 examples/experimental_lpn/CMakeFiles/lpn_nrf52840_xxAA_s140_6.1.0.dir/__/__/mesh/core/src/timer.c.obj
 .comment       0x0000007f       0x80 examples/experimental_lpn/CMakeFiles/lpn_nrf52840_xxAA_s140_6.1.0.dir/__/__/mesh/core/src/rand.c.obj
 .comment       0x0000007f       0x80 examples/experimental_lpn/CMakeFiles/lpn_nrf52840_xxAA_s140_6.1.0.dir/__/__/mesh/core/src/mesh_opt.c.obj
 .comment       0x0000007f       0x80 examples/experimental_lpn/CMakeFiles/lpn_nrf52840_xxAA_s140_6.1.0.dir/__/__/mesh/core/src/timeslot.c.obj
 .comment       0x0000007f       0x80 examples/experimental_lpn/CMakeFiles/lpn_nrf52840_xxAA_s140_6.1.0.dir/__/__/mesh/core/src/timeslot_timer.c.obj
 .comment       0x0000007f       0x80 examples/experimental_lpn/CMakeFiles/lpn_nrf52840_xxAA_s140_6.1.0.dir/__/__/mesh/core/src/bearer_event.c.obj
 .comment       0x0000007f       0x80 examples/experimental_lpn/CMakeFiles/lpn_nrf52840_xxAA_s140_6.1.0.dir/__/__/mesh/core/src/enc.c.obj
 .comment       0x0000007f       0x80 examples/experimental_lpn/CMakeFiles/lpn_nrf52840_xxAA_s140_6.1.0.dir/__/__/mesh/core/src/network.c.obj
 .comment       0x0000007f       0x80 examples/experimental_lpn/CMakeFiles/lpn_nrf52840_xxAA_s140_6.1.0.dir/__/__/mesh/core/src/net_packet.c.obj
 .comment       0x0000007f       0x80 examples/experimental_lpn/CMakeFiles/lpn_nrf52840_xxAA_s140_6.1.0.dir/__/__/mesh/core/src/msqueue.c.obj
 .comment       0x0000007f       0x80 examples/experimental_lpn/CMakeFiles/lpn_nrf52840_xxAA_s140_6.1.0.dir/__/__/mesh/core/src/nrf_mesh_keygen.c.obj
 .comment       0x0000007f       0x80 examples/experimental_lpn/CMakeFiles/lpn_nrf52840_xxAA_s140_6.1.0.dir/__/__/mesh/core/src/cache.c.obj
 .comment       0x0000007f       0x80 examples/experimental_lpn/CMakeFiles/lpn_nrf52840_xxAA_s140_6.1.0.dir/__/__/mesh/core/src/list.c.obj
 .comment       0x0000007f       0x80 examples/experimental_lpn/CMakeFiles/lpn_nrf52840_xxAA_s140_6.1.0.dir/__/__/mesh/core/src/log.c.obj
 .comment       0x0000007f       0x80 examples/experimental_lpn/CMakeFiles/lpn_nrf52840_xxAA_s140_6.1.0.dir/__/__/mesh/core/src/flash_manager.c.obj
 .comment       0x0000007f       0x80 examples/experimental_lpn/CMakeFiles/lpn_nrf52840_xxAA_s140_6.1.0.dir/__/__/mesh/core/src/ccm_soft.c.obj
 .comment       0x0000007f       0x80 examples/experimental_lpn/CMakeFiles/lpn_nrf52840_xxAA_s140_6.1.0.dir/__/__/mesh/core/src/replay_cache.c.obj
 .comment       0x0000007f       0x80 examples/experimental_lpn/CMakeFiles/lpn_nrf52840_xxAA_s140_6.1.0.dir/__/__/mesh/core/src/beacon.c.obj
 .comment       0x0000007f       0x80 examples/experimental_lpn/CMakeFiles/lpn_nrf52840_xxAA_s140_6.1.0.dir/__/__/mesh/core/src/flash_manager_internal.c.obj
 .comment       0x0000007f       0x80 examples/experimental_lpn/CMakeFiles/lpn_nrf52840_xxAA_s140_6.1.0.dir/__/__/mesh/core/src/core_tx.c.obj
 .comment       0x0000007f       0x80 examples/experimental_lpn/CMakeFiles/lpn_nrf52840_xxAA_s140_6.1.0.dir/__/__/mesh/core/src/heartbeat.c.obj
 .comment       0x0000007f       0x80 examples/experimental_lpn/CMakeFiles/lpn_nrf52840_xxAA_s140_6.1.0.dir/__/__/mesh/core/src/net_beacon.c.obj
 .comment       0x0000007f       0x80 examples/experimental_lpn/CMakeFiles/lpn_nrf52840_xxAA_s140_6.1.0.dir/__/__/mesh/core/src/mesh_config.c.obj
 .comment       0x0000007f       0x80 examples/experimental_lpn/CMakeFiles/lpn_nrf52840_xxAA_s140_6.1.0.dir/__/__/mesh/core/src/fsm.c.obj
 .comment       0x0000007f       0x80 examples/experimental_lpn/CMakeFiles/lpn_nrf52840_xxAA_s140_6.1.0.dir/__/__/mesh/core/src/mesh_config_backend.c.obj
 .comment       0x0000007f       0x80 examples/experimental_lpn/CMakeFiles/lpn_nrf52840_xxAA_s140_6.1.0.dir/__/__/mesh/core/src/mesh_config_flashman_glue.c.obj
 .comment       0x0000007f       0x80 examples/experimental_lpn/CMakeFiles/lpn_nrf52840_xxAA_s140_6.1.0.dir/__/__/mesh/core/src/lpn.c.obj
 .comment       0x0000007f       0x80 examples/experimental_lpn/CMakeFiles/lpn_nrf52840_xxAA_s140_6.1.0.dir/__/__/mesh/core/src/core_tx_lpn.c.obj
 .comment       0x0000007f       0x80 examples/experimental_lpn/CMakeFiles/lpn_nrf52840_xxAA_s140_6.1.0.dir/__/__/mesh/core/src/mesh_lpn_subman.c.obj
 .comment       0x0000007f       0x80 examples/experimental_lpn/CMakeFiles/lpn_nrf52840_xxAA_s140_6.1.0.dir/__/__/mesh/core/src/core_tx_adv.c.obj
 .comment       0x0000007f       0x80 examples/experimental_lpn/CMakeFiles/lpn_nrf52840_xxAA_s140_6.1.0.dir/__/__/mesh/core/src/mesh_mem_stdlib.c.obj
 .comment       0x0000007f       0x80 examples/experimental_lpn/CMakeFiles/lpn_nrf52840_xxAA_s140_6.1.0.dir/__/__/mesh/bearer/src/ad_listener.c.obj
 .comment       0x0000007f       0x80 examples/experimental_lpn/CMakeFiles/lpn_nrf52840_xxAA_s140_6.1.0.dir/__/__/mesh/bearer/src/ad_type_filter.c.obj
 .comment       0x0000007f       0x80 examples/experimental_lpn/CMakeFiles/lpn_nrf52840_xxAA_s140_6.1.0.dir/__/__/mesh/bearer/src/advertiser.c.obj
 .comment       0x0000007f       0x80 examples/experimental_lpn/CMakeFiles/lpn_nrf52840_xxAA_s140_6.1.0.dir/__/__/mesh/bearer/src/bearer_handler.c.obj
 .comment       0x0000007f       0x80 examples/experimental_lpn/CMakeFiles/lpn_nrf52840_xxAA_s140_6.1.0.dir/__/__/mesh/bearer/src/broadcast.c.obj
 .comment       0x0000007f       0x80 examples/experimental_lpn/CMakeFiles/lpn_nrf52840_xxAA_s140_6.1.0.dir/__/__/mesh/bearer/src/filter_engine.c.obj
 .comment       0x0000007f       0x80 examples/experimental_lpn/CMakeFiles/lpn_nrf52840_xxAA_s140_6.1.0.dir/__/__/mesh/bearer/src/radio_config.c.obj
 .comment       0x0000007f       0x80 examples/experimental_lpn/CMakeFiles/lpn_nrf52840_xxAA_s140_6.1.0.dir/__/__/mesh/bearer/src/scanner.c.obj
 .comment       0x0000007f       0x80 examples/experimental_lpn/CMakeFiles/lpn_nrf52840_xxAA_s140_6.1.0.dir/__/__/mesh/bearer/src/mesh_pa_lna.c.obj
 .comment       0x0000007f       0x80 examples/experimental_lpn/CMakeFiles/lpn_nrf52840_xxAA_s140_6.1.0.dir/__/__/mesh/gatt/src/mesh_gatt.c.obj
 .comment       0x0000007f       0x80 examples/experimental_lpn/CMakeFiles/lpn_nrf52840_xxAA_s140_6.1.0.dir/__/__/mesh/gatt/src/proxy.c.obj
 .comment       0x0000007f       0x80 examples/experimental_lpn/CMakeFiles/lpn_nrf52840_xxAA_s140_6.1.0.dir/__/__/mesh/gatt/src/proxy_filter.c.obj
 .comment       0x0000007f       0x80 examples/experimental_lpn/CMakeFiles/lpn_nrf52840_xxAA_s140_6.1.0.dir/__/__/models/model_spec/generic_onoff/src/generic_onoff_client.c.obj
 .comment       0x0000007f       0x80 examples/experimental_lpn/CMakeFiles/lpn_nrf52840_xxAA_s140_6.1.0.dir/__/__/models/model_spec/common/src/model_common.c.obj
 .comment       0x0000007f       0x80 examples/experimental_lpn/CMakeFiles/lpn_nrf52840_xxAA_s140_6.1.0.dir/__/__/models/foundation/config/src/composition_data.c.obj
 .comment       0x0000007f       0x80 examples/experimental_lpn/CMakeFiles/lpn_nrf52840_xxAA_s140_6.1.0.dir/__/__/models/foundation/config/src/config_server.c.obj
 .comment       0x0000007f       0x80 examples/experimental_lpn/CMakeFiles/lpn_nrf52840_xxAA_s140_6.1.0.dir/__/__/models/foundation/config/src/packed_index_list.c.obj
 .comment       0x0000007f       0x80 examples/experimental_lpn/CMakeFiles/lpn_nrf52840_xxAA_s140_6.1.0.dir/__/__/models/foundation/health/src/health_server.c.obj
 .comment       0x0000007f       0x80 examples/experimental_lpn/CMakeFiles/lpn_nrf52840_xxAA_s140_6.1.0.dir/__/__/mesh/access/src/access_publish.c.obj
 .comment       0x0000007f       0x80 examples/experimental_lpn/CMakeFiles/lpn_nrf52840_xxAA_s140_6.1.0.dir/__/__/mesh/access/src/access.c.obj
 .comment       0x0000007f       0x80 examples/experimental_lpn/CMakeFiles/lpn_nrf52840_xxAA_s140_6.1.0.dir/__/__/mesh/access/src/access_reliable.c.obj
 .comment       0x0000007f       0x80 examples/experimental_lpn/CMakeFiles/lpn_nrf52840_xxAA_s140_6.1.0.dir/__/__/mesh/access/src/access_loopback.c.obj
 .comment       0x0000007f       0x80 examples/experimental_lpn/CMakeFiles/lpn_nrf52840_xxAA_s140_6.1.0.dir/__/__/mesh/access/src/device_state_manager.c.obj
 .comment       0x0000007f       0x80 examples/experimental_lpn/CMakeFiles/lpn_nrf52840_xxAA_s140_6.1.0.dir/__/__/external/app_timer/app_timer_mesh.c.obj
 .comment       0x0000007f       0x80 examples/experimental_lpn/CMakeFiles/lpn_nrf52840_xxAA_s140_6.1.0.dir/__/__/mesh/prov/src/prov_provisionee.c.obj
 .comment       0x0000007f       0x80 examples/experimental_lpn/CMakeFiles/lpn_nrf52840_xxAA_s140_6.1.0.dir/__/__/mesh/prov/src/nrf_mesh_prov.c.obj
 .comment       0x0000007f       0x80 examples/experimental_lpn/CMakeFiles/lpn_nrf52840_xxAA_s140_6.1.0.dir/__/__/mesh/prov/src/provisioning.c.obj
 .comment       0x0000007f       0x80 examples/experimental_lpn/CMakeFiles/lpn_nrf52840_xxAA_s140_6.1.0.dir/__/__/mesh/prov/src/prov_beacon.c.obj
 .comment       0x0000007f       0x80 examples/experimental_lpn/CMakeFiles/lpn_nrf52840_xxAA_s140_6.1.0.dir/__/__/mesh/prov/src/prov_utils.c.obj
 .comment       0x0000007f       0x80 examples/experimental_lpn/CMakeFiles/lpn_nrf52840_xxAA_s140_6.1.0.dir/__/__/mesh/prov/src/nrf_mesh_prov_bearer_gatt.c.obj
 .comment       0x0000007f       0x80 examples/experimental_lpn/CMakeFiles/lpn_nrf52840_xxAA_s140_6.1.0.dir/C_/mesh/deps/nRF5_SDK_15.2.0_9412b96/modules/nrfx/mdk/system_nrf52840.c.obj
 .comment       0x0000007f       0x80 examples/experimental_lpn/CMakeFiles/lpn_nrf52840_xxAA_s140_6.1.0.dir/C_/mesh/deps/nRF5_SDK_15.2.0_9412b96/components/libraries/util/app_error.c.obj
 .comment       0x0000007f       0x80 examples/experimental_lpn/CMakeFiles/lpn_nrf52840_xxAA_s140_6.1.0.dir/C_/mesh/deps/nRF5_SDK_15.2.0_9412b96/components/libraries/util/app_error_handler_gcc.c.obj
 .comment       0x0000007f       0x80 external/rtt/librtt_nrf52840_xxAA.a(SEGGER_RTT.c.obj)
 .comment       0x0000007f       0x80 external/rtt/librtt_nrf52840_xxAA.a(SEGGER_RTT_printf.c.obj)
 .comment       0x0000007f       0x80 external/micro-ecc/libuECC_nrf52840_xxAA.a(uECC.c.obj)

.debug_info     0x00000000    0xb4173
 .debug_info    0x00000000     0x460f examples/experimental_lpn/CMakeFiles/lpn_nrf52840_xxAA_s140_6.1.0.dir/src/main.c.obj
 .debug_info    0x0000460f     0x27a8 examples/experimental_lpn/CMakeFiles/lpn_nrf52840_xxAA_s140_6.1.0.dir/__/__/mesh/stack/src/mesh_stack.c.obj
 .debug_info    0x00006db7     0x306d examples/experimental_lpn/CMakeFiles/lpn_nrf52840_xxAA_s140_6.1.0.dir/__/common/src/mesh_provisionee.c.obj
 .debug_info    0x00009e24      0xd57 examples/experimental_lpn/CMakeFiles/lpn_nrf52840_xxAA_s140_6.1.0.dir/__/common/src/rtt_input.c.obj
 .debug_info    0x0000ab7b     0x16c2 examples/experimental_lpn/CMakeFiles/lpn_nrf52840_xxAA_s140_6.1.0.dir/__/common/src/simple_hal.c.obj
 .debug_info    0x0000c23d      0xe06 examples/experimental_lpn/CMakeFiles/lpn_nrf52840_xxAA_s140_6.1.0.dir/__/common/src/mesh_app_utils.c.obj
 .debug_info    0x0000d043     0x1362 examples/experimental_lpn/CMakeFiles/lpn_nrf52840_xxAA_s140_6.1.0.dir/__/common/src/mesh_adv.c.obj
 .debug_info    0x0000e3a5     0x13b4 examples/experimental_lpn/CMakeFiles/lpn_nrf52840_xxAA_s140_6.1.0.dir/__/common/src/ble_softdevice_support.c.obj
 .debug_info    0x0000f759     0x11bd examples/experimental_lpn/CMakeFiles/lpn_nrf52840_xxAA_s140_6.1.0.dir/C_/mesh/deps/nRF5_SDK_15.2.0_9412b96/components/libraries/util/app_util_platform.c.obj
 .debug_info    0x00010916     0x1fc0 examples/experimental_lpn/CMakeFiles/lpn_nrf52840_xxAA_s140_6.1.0.dir/C_/mesh/deps/nRF5_SDK_15.2.0_9412b96/components/ble/common/ble_advdata.c.obj
 .debug_info    0x000128d6      0xa20 examples/experimental_lpn/CMakeFiles/lpn_nrf52840_xxAA_s140_6.1.0.dir/C_/mesh/deps/nRF5_SDK_15.2.0_9412b96/components/libraries/experimental_section_vars/nrf_section_iter.c.obj
 .debug_info    0x000132f6      0xe84 examples/experimental_lpn/CMakeFiles/lpn_nrf52840_xxAA_s140_6.1.0.dir/C_/mesh/deps/nRF5_SDK_15.2.0_9412b96/components/softdevice/common/nrf_sdh_soc.c.obj
 .debug_info    0x0001417a     0x2c7e examples/experimental_lpn/CMakeFiles/lpn_nrf52840_xxAA_s140_6.1.0.dir/C_/mesh/deps/nRF5_SDK_15.2.0_9412b96/components/softdevice/common/nrf_sdh_ble.c.obj
 .debug_info    0x00016df8     0x1986 examples/experimental_lpn/CMakeFiles/lpn_nrf52840_xxAA_s140_6.1.0.dir/C_/mesh/deps/nRF5_SDK_15.2.0_9412b96/components/softdevice/common/nrf_sdh.c.obj
 .debug_info    0x0001877e     0x2e56 examples/experimental_lpn/CMakeFiles/lpn_nrf52840_xxAA_s140_6.1.0.dir/C_/mesh/deps/nRF5_SDK_15.2.0_9412b96/components/ble/common/ble_conn_params.c.obj
 .debug_info    0x0001b5d4     0x14ba examples/experimental_lpn/CMakeFiles/lpn_nrf52840_xxAA_s140_6.1.0.dir/C_/mesh/deps/nRF5_SDK_15.2.0_9412b96/components/ble/common/ble_srv_common.c.obj
 .debug_info    0x0001ca8e      0x950 examples/experimental_lpn/CMakeFiles/lpn_nrf52840_xxAA_s140_6.1.0.dir/__/nrf_mesh_weak.c.obj
 .debug_info    0x0001d3de     0x106b examples/experimental_lpn/CMakeFiles/lpn_nrf52840_xxAA_s140_6.1.0.dir/__/common/src/app_error_weak.c.obj
 .debug_info    0x0001e449      0x99b examples/experimental_lpn/CMakeFiles/lpn_nrf52840_xxAA_s140_6.1.0.dir/__/common/src/assertion_handler_weak.c.obj
 .debug_info    0x0001ede4      0xe1e examples/experimental_lpn/CMakeFiles/lpn_nrf52840_xxAA_s140_6.1.0.dir/__/__/mesh/core/src/nrf_mesh_configure.c.obj
 .debug_info    0x0001fc02      0xa86 examples/experimental_lpn/CMakeFiles/lpn_nrf52840_xxAA_s140_6.1.0.dir/__/__/mesh/core/src/msg_cache.c.obj
 .debug_info    0x00020688     0x573f examples/experimental_lpn/CMakeFiles/lpn_nrf52840_xxAA_s140_6.1.0.dir/__/__/mesh/core/src/transport.c.obj
 .debug_info    0x00025dc7     0x1b32 examples/experimental_lpn/CMakeFiles/lpn_nrf52840_xxAA_s140_6.1.0.dir/__/__/mesh/core/src/event.c.obj
 .debug_info    0x000278f9     0x1be8 examples/experimental_lpn/CMakeFiles/lpn_nrf52840_xxAA_s140_6.1.0.dir/__/__/mesh/core/src/packet_buffer.c.obj
 .debug_info    0x000294e1     0x2170 examples/experimental_lpn/CMakeFiles/lpn_nrf52840_xxAA_s140_6.1.0.dir/__/__/mesh/core/src/flash_manager_defrag.c.obj
 .debug_info    0x0002b651      0xd19 examples/experimental_lpn/CMakeFiles/lpn_nrf52840_xxAA_s140_6.1.0.dir/__/__/mesh/core/src/fifo.c.obj
 .debug_info    0x0002c36a      0xb84 examples/experimental_lpn/CMakeFiles/lpn_nrf52840_xxAA_s140_6.1.0.dir/__/__/mesh/core/src/nrf_flash.c.obj
 .debug_info    0x0002ceee     0x2bce examples/experimental_lpn/CMakeFiles/lpn_nrf52840_xxAA_s140_6.1.0.dir/__/__/mesh/core/src/net_state.c.obj
 .debug_info    0x0002fabc     0x1a15 examples/experimental_lpn/CMakeFiles/lpn_nrf52840_xxAA_s140_6.1.0.dir/__/__/mesh/core/src/mesh_flash.c.obj
 .debug_info    0x000314d1      0xaa4 examples/experimental_lpn/CMakeFiles/lpn_nrf52840_xxAA_s140_6.1.0.dir/__/__/mesh/core/src/nrf_mesh_utils.c.obj
 .debug_info    0x00031f75     0x28fb examples/experimental_lpn/CMakeFiles/lpn_nrf52840_xxAA_s140_6.1.0.dir/__/__/mesh/core/src/nrf_mesh.c.obj
 .debug_info    0x00034870      0xb3d examples/experimental_lpn/CMakeFiles/lpn_nrf52840_xxAA_s140_6.1.0.dir/__/__/mesh/core/src/queue.c.obj
 .debug_info    0x000353ad      0x7d1 examples/experimental_lpn/CMakeFiles/lpn_nrf52840_xxAA_s140_6.1.0.dir/__/__/mesh/core/src/hal.c.obj
 .debug_info    0x00035b7e      0xf9b examples/experimental_lpn/CMakeFiles/lpn_nrf52840_xxAA_s140_6.1.0.dir/__/__/mesh/core/src/aes_cmac.c.obj
 .debug_info    0x00036b19      0xfe0 examples/experimental_lpn/CMakeFiles/lpn_nrf52840_xxAA_s140_6.1.0.dir/__/__/mesh/core/src/timer_scheduler.c.obj
 .debug_info    0x00037af9      0xdbb examples/experimental_lpn/CMakeFiles/lpn_nrf52840_xxAA_s140_6.1.0.dir/__/__/mesh/core/src/timer.c.obj
 .debug_info    0x000388b4      0x426 examples/experimental_lpn/CMakeFiles/lpn_nrf52840_xxAA_s140_6.1.0.dir/__/__/mesh/core/src/rand.c.obj
 .debug_info    0x00038cda      0xd3a examples/experimental_lpn/CMakeFiles/lpn_nrf52840_xxAA_s140_6.1.0.dir/__/__/mesh/core/src/mesh_opt.c.obj
 .debug_info    0x00039a14     0x19b0 examples/experimental_lpn/CMakeFiles/lpn_nrf52840_xxAA_s140_6.1.0.dir/__/__/mesh/core/src/timeslot.c.obj
 .debug_info    0x0003b3c4      0xbe3 examples/experimental_lpn/CMakeFiles/lpn_nrf52840_xxAA_s140_6.1.0.dir/__/__/mesh/core/src/timeslot_timer.c.obj
 .debug_info    0x0003bfa7     0x1e5e examples/experimental_lpn/CMakeFiles/lpn_nrf52840_xxAA_s140_6.1.0.dir/__/__/mesh/core/src/bearer_event.c.obj
 .debug_info    0x0003de05     0x19a2 examples/experimental_lpn/CMakeFiles/lpn_nrf52840_xxAA_s140_6.1.0.dir/__/__/mesh/core/src/enc.c.obj
 .debug_info    0x0003f7a7     0x1fe2 examples/experimental_lpn/CMakeFiles/lpn_nrf52840_xxAA_s140_6.1.0.dir/__/__/mesh/core/src/network.c.obj
 .debug_info    0x00041789     0x1c8e examples/experimental_lpn/CMakeFiles/lpn_nrf52840_xxAA_s140_6.1.0.dir/__/__/mesh/core/src/net_packet.c.obj
 .debug_info    0x00043417      0xdb2 examples/experimental_lpn/CMakeFiles/lpn_nrf52840_xxAA_s140_6.1.0.dir/__/__/mesh/core/src/msqueue.c.obj
 .debug_info    0x000441c9      0xe3b examples/experimental_lpn/CMakeFiles/lpn_nrf52840_xxAA_s140_6.1.0.dir/__/__/mesh/core/src/nrf_mesh_keygen.c.obj
 .debug_info    0x00045004      0xbe1 examples/experimental_lpn/CMakeFiles/lpn_nrf52840_xxAA_s140_6.1.0.dir/__/__/mesh/core/src/cache.c.obj
 .debug_info    0x00045be5      0x506 examples/experimental_lpn/CMakeFiles/lpn_nrf52840_xxAA_s140_6.1.0.dir/__/__/mesh/core/src/list.c.obj
 .debug_info    0x000460eb      0xe28 examples/experimental_lpn/CMakeFiles/lpn_nrf52840_xxAA_s140_6.1.0.dir/__/__/mesh/core/src/log.c.obj
 .debug_info    0x00046f13     0x35d1 examples/experimental_lpn/CMakeFiles/lpn_nrf52840_xxAA_s140_6.1.0.dir/__/__/mesh/core/src/flash_manager.c.obj
 .debug_info    0x0004a4e4     0x131a examples/experimental_lpn/CMakeFiles/lpn_nrf52840_xxAA_s140_6.1.0.dir/__/__/mesh/core/src/ccm_soft.c.obj
 .debug_info    0x0004b7fe      0xa95 examples/experimental_lpn/CMakeFiles/lpn_nrf52840_xxAA_s140_6.1.0.dir/__/__/mesh/core/src/replay_cache.c.obj
 .debug_info    0x0004c293     0x17eb examples/experimental_lpn/CMakeFiles/lpn_nrf52840_xxAA_s140_6.1.0.dir/__/__/mesh/core/src/beacon.c.obj
 .debug_info    0x0004da7e      0xbc7 examples/experimental_lpn/CMakeFiles/lpn_nrf52840_xxAA_s140_6.1.0.dir/__/__/mesh/core/src/flash_manager_internal.c.obj
 .debug_info    0x0004e645     0x12ba examples/experimental_lpn/CMakeFiles/lpn_nrf52840_xxAA_s140_6.1.0.dir/__/__/mesh/core/src/core_tx.c.obj
 .debug_info    0x0004f8ff     0x2b92 examples/experimental_lpn/CMakeFiles/lpn_nrf52840_xxAA_s140_6.1.0.dir/__/__/mesh/core/src/heartbeat.c.obj
 .debug_info    0x00052491     0x2f88 examples/experimental_lpn/CMakeFiles/lpn_nrf52840_xxAA_s140_6.1.0.dir/__/__/mesh/core/src/net_beacon.c.obj
 .debug_info    0x00055419     0x2a79 examples/experimental_lpn/CMakeFiles/lpn_nrf52840_xxAA_s140_6.1.0.dir/__/__/mesh/core/src/mesh_config.c.obj
 .debug_info    0x00057e92      0xe63 examples/experimental_lpn/CMakeFiles/lpn_nrf52840_xxAA_s140_6.1.0.dir/__/__/mesh/core/src/fsm.c.obj
 .debug_info    0x00058cf5     0x162e examples/experimental_lpn/CMakeFiles/lpn_nrf52840_xxAA_s140_6.1.0.dir/__/__/mesh/core/src/mesh_config_backend.c.obj
 .debug_info    0x0005a323     0x2439 examples/experimental_lpn/CMakeFiles/lpn_nrf52840_xxAA_s140_6.1.0.dir/__/__/mesh/core/src/mesh_config_flashman_glue.c.obj
 .debug_info    0x0005c75c     0x3a30 examples/experimental_lpn/CMakeFiles/lpn_nrf52840_xxAA_s140_6.1.0.dir/__/__/mesh/core/src/lpn.c.obj
 .debug_info    0x0006018c     0x161b examples/experimental_lpn/CMakeFiles/lpn_nrf52840_xxAA_s140_6.1.0.dir/__/__/mesh/core/src/core_tx_lpn.c.obj
 .debug_info    0x000617a7     0x2547 examples/experimental_lpn/CMakeFiles/lpn_nrf52840_xxAA_s140_6.1.0.dir/__/__/mesh/core/src/mesh_lpn_subman.c.obj
 .debug_info    0x00063cee     0x23dd examples/experimental_lpn/CMakeFiles/lpn_nrf52840_xxAA_s140_6.1.0.dir/__/__/mesh/core/src/core_tx_adv.c.obj
 .debug_info    0x000660cb      0x99d examples/experimental_lpn/CMakeFiles/lpn_nrf52840_xxAA_s140_6.1.0.dir/__/__/mesh/core/src/mesh_mem_stdlib.c.obj
 .debug_info    0x00066a68     0x1194 examples/experimental_lpn/CMakeFiles/lpn_nrf52840_xxAA_s140_6.1.0.dir/__/__/mesh/bearer/src/ad_listener.c.obj
 .debug_info    0x00067bfc      0xff5 examples/experimental_lpn/CMakeFiles/lpn_nrf52840_xxAA_s140_6.1.0.dir/__/__/mesh/bearer/src/ad_type_filter.c.obj
 .debug_info    0x00068bf1     0x2722 examples/experimental_lpn/CMakeFiles/lpn_nrf52840_xxAA_s140_6.1.0.dir/__/__/mesh/bearer/src/advertiser.c.obj
 .debug_info    0x0006b313     0x2481 examples/experimental_lpn/CMakeFiles/lpn_nrf52840_xxAA_s140_6.1.0.dir/__/__/mesh/bearer/src/bearer_handler.c.obj
 .debug_info    0x0006d794     0x1c0c examples/experimental_lpn/CMakeFiles/lpn_nrf52840_xxAA_s140_6.1.0.dir/__/__/mesh/bearer/src/broadcast.c.obj
 .debug_info    0x0006f3a0      0xd36 examples/experimental_lpn/CMakeFiles/lpn_nrf52840_xxAA_s140_6.1.0.dir/__/__/mesh/bearer/src/filter_engine.c.obj
 .debug_info    0x000700d6      0xa53 examples/experimental_lpn/CMakeFiles/lpn_nrf52840_xxAA_s140_6.1.0.dir/__/__/mesh/bearer/src/radio_config.c.obj
 .debug_info    0x00070b29     0x295e examples/experimental_lpn/CMakeFiles/lpn_nrf52840_xxAA_s140_6.1.0.dir/__/__/mesh/bearer/src/scanner.c.obj
 .debug_info    0x00073487     0x109a examples/experimental_lpn/CMakeFiles/lpn_nrf52840_xxAA_s140_6.1.0.dir/__/__/mesh/bearer/src/mesh_pa_lna.c.obj
 .debug_info    0x00074521     0x459a examples/experimental_lpn/CMakeFiles/lpn_nrf52840_xxAA_s140_6.1.0.dir/__/__/mesh/gatt/src/mesh_gatt.c.obj
 .debug_info    0x00078abb     0x4786 examples/experimental_lpn/CMakeFiles/lpn_nrf52840_xxAA_s140_6.1.0.dir/__/__/mesh/gatt/src/proxy.c.obj
 .debug_info    0x0007d241      0x46f examples/experimental_lpn/CMakeFiles/lpn_nrf52840_xxAA_s140_6.1.0.dir/__/__/mesh/gatt/src/proxy_filter.c.obj
 .debug_info    0x0007d6b0     0x174f examples/experimental_lpn/CMakeFiles/lpn_nrf52840_xxAA_s140_6.1.0.dir/__/__/models/model_spec/generic_onoff/src/generic_onoff_client.c.obj
 .debug_info    0x0007edff     0x133b examples/experimental_lpn/CMakeFiles/lpn_nrf52840_xxAA_s140_6.1.0.dir/__/__/models/model_spec/common/src/model_common.c.obj
 .debug_info    0x0008013a      0xed0 examples/experimental_lpn/CMakeFiles/lpn_nrf52840_xxAA_s140_6.1.0.dir/__/__/models/foundation/config/src/composition_data.c.obj
 .debug_info    0x0008100a     0x922b examples/experimental_lpn/CMakeFiles/lpn_nrf52840_xxAA_s140_6.1.0.dir/__/__/models/foundation/config/src/config_server.c.obj
 .debug_info    0x0008a235      0x126 examples/experimental_lpn/CMakeFiles/lpn_nrf52840_xxAA_s140_6.1.0.dir/__/__/models/foundation/config/src/packed_index_list.c.obj
 .debug_info    0x0008a35b     0x2617 examples/experimental_lpn/CMakeFiles/lpn_nrf52840_xxAA_s140_6.1.0.dir/__/__/models/foundation/health/src/health_server.c.obj
 .debug_info    0x0008c972     0x1169 examples/experimental_lpn/CMakeFiles/lpn_nrf52840_xxAA_s140_6.1.0.dir/__/__/mesh/access/src/access_publish.c.obj
 .debug_info    0x0008dadb     0x5081 examples/experimental_lpn/CMakeFiles/lpn_nrf52840_xxAA_s140_6.1.0.dir/__/__/mesh/access/src/access.c.obj
 .debug_info    0x00092b5c     0x1c7c examples/experimental_lpn/CMakeFiles/lpn_nrf52840_xxAA_s140_6.1.0.dir/__/__/mesh/access/src/access_reliable.c.obj
 .debug_info    0x000947d8      0xfeb examples/experimental_lpn/CMakeFiles/lpn_nrf52840_xxAA_s140_6.1.0.dir/__/__/mesh/access/src/access_loopback.c.obj
 .debug_info    0x000957c3     0x76cd examples/experimental_lpn/CMakeFiles/lpn_nrf52840_xxAA_s140_6.1.0.dir/__/__/mesh/access/src/device_state_manager.c.obj
 .debug_info    0x0009ce90     0x2216 examples/experimental_lpn/CMakeFiles/lpn_nrf52840_xxAA_s140_6.1.0.dir/__/__/external/app_timer/app_timer_mesh.c.obj
 .debug_info    0x0009f0a6     0x29f2 examples/experimental_lpn/CMakeFiles/lpn_nrf52840_xxAA_s140_6.1.0.dir/__/__/mesh/prov/src/prov_provisionee.c.obj
 .debug_info    0x000a1a98     0x1fa1 examples/experimental_lpn/CMakeFiles/lpn_nrf52840_xxAA_s140_6.1.0.dir/__/__/mesh/prov/src/nrf_mesh_prov.c.obj
 .debug_info    0x000a3a39     0x15b2 examples/experimental_lpn/CMakeFiles/lpn_nrf52840_xxAA_s140_6.1.0.dir/__/__/mesh/prov/src/provisioning.c.obj
 .debug_info    0x000a4feb     0x1b39 examples/experimental_lpn/CMakeFiles/lpn_nrf52840_xxAA_s140_6.1.0.dir/__/__/mesh/prov/src/prov_beacon.c.obj
 .debug_info    0x000a6b24     0x24a1 examples/experimental_lpn/CMakeFiles/lpn_nrf52840_xxAA_s140_6.1.0.dir/__/__/mesh/prov/src/prov_utils.c.obj
 .debug_info    0x000a8fc5     0x1d94 examples/experimental_lpn/CMakeFiles/lpn_nrf52840_xxAA_s140_6.1.0.dir/__/__/mesh/prov/src/nrf_mesh_prov_bearer_gatt.c.obj
 .debug_info    0x000aad59     0x13ce examples/experimental_lpn/CMakeFiles/lpn_nrf52840_xxAA_s140_6.1.0.dir/C_/mesh/deps/nRF5_SDK_15.2.0_9412b96/modules/nrfx/mdk/system_nrf52840.c.obj
 .debug_info    0x000ac127      0xaee examples/experimental_lpn/CMakeFiles/lpn_nrf52840_xxAA_s140_6.1.0.dir/C_/mesh/deps/nRF5_SDK_15.2.0_9412b96/components/libraries/util/app_error.c.obj
 .debug_info    0x000acc15      0x974 examples/experimental_lpn/CMakeFiles/lpn_nrf52840_xxAA_s140_6.1.0.dir/C_/mesh/deps/nRF5_SDK_15.2.0_9412b96/components/libraries/util/app_error_handler_gcc.c.obj
 .debug_info    0x000ad589     0x1818 external/rtt/librtt_nrf52840_xxAA.a(SEGGER_RTT.c.obj)
 .debug_info    0x000aeda1      0xec1 external/rtt/librtt_nrf52840_xxAA.a(SEGGER_RTT_printf.c.obj)
 .debug_info    0x000afc62     0x4511 external/micro-ecc/libuECC_nrf52840_xxAA.a(uECC.c.obj)

.debug_abbrev   0x00000000    0x16909
 .debug_abbrev  0x00000000      0x4de examples/experimental_lpn/CMakeFiles/lpn_nrf52840_xxAA_s140_6.1.0.dir/src/main.c.obj
 .debug_abbrev  0x000004de      0x385 examples/experimental_lpn/CMakeFiles/lpn_nrf52840_xxAA_s140_6.1.0.dir/__/__/mesh/stack/src/mesh_stack.c.obj
 .debug_abbrev  0x00000863      0x3fe examples/experimental_lpn/CMakeFiles/lpn_nrf52840_xxAA_s140_6.1.0.dir/__/common/src/mesh_provisionee.c.obj
 .debug_abbrev  0x00000c61      0x2d3 examples/experimental_lpn/CMakeFiles/lpn_nrf52840_xxAA_s140_6.1.0.dir/__/common/src/rtt_input.c.obj
 .debug_abbrev  0x00000f34      0x3e0 examples/experimental_lpn/CMakeFiles/lpn_nrf52840_xxAA_s140_6.1.0.dir/__/common/src/simple_hal.c.obj
 .debug_abbrev  0x00001314      0x22a examples/experimental_lpn/CMakeFiles/lpn_nrf52840_xxAA_s140_6.1.0.dir/__/common/src/mesh_app_utils.c.obj
 .debug_abbrev  0x0000153e      0x2f1 examples/experimental_lpn/CMakeFiles/lpn_nrf52840_xxAA_s140_6.1.0.dir/__/common/src/mesh_adv.c.obj
 .debug_abbrev  0x0000182f      0x3a2 examples/experimental_lpn/CMakeFiles/lpn_nrf52840_xxAA_s140_6.1.0.dir/__/common/src/ble_softdevice_support.c.obj
 .debug_abbrev  0x00001bd1      0x35b examples/experimental_lpn/CMakeFiles/lpn_nrf52840_xxAA_s140_6.1.0.dir/C_/mesh/deps/nRF5_SDK_15.2.0_9412b96/components/libraries/util/app_util_platform.c.obj
 .debug_abbrev  0x00001f2c      0x405 examples/experimental_lpn/CMakeFiles/lpn_nrf52840_xxAA_s140_6.1.0.dir/C_/mesh/deps/nRF5_SDK_15.2.0_9412b96/components/ble/common/ble_advdata.c.obj
 .debug_abbrev  0x00002331      0x1d5 examples/experimental_lpn/CMakeFiles/lpn_nrf52840_xxAA_s140_6.1.0.dir/C_/mesh/deps/nRF5_SDK_15.2.0_9412b96/components/libraries/experimental_section_vars/nrf_section_iter.c.obj
 .debug_abbrev  0x00002506      0x2a5 examples/experimental_lpn/CMakeFiles/lpn_nrf52840_xxAA_s140_6.1.0.dir/C_/mesh/deps/nRF5_SDK_15.2.0_9412b96/components/softdevice/common/nrf_sdh_soc.c.obj
 .debug_abbrev  0x000027ab      0x3d6 examples/experimental_lpn/CMakeFiles/lpn_nrf52840_xxAA_s140_6.1.0.dir/C_/mesh/deps/nRF5_SDK_15.2.0_9412b96/components/softdevice/common/nrf_sdh_ble.c.obj
 .debug_abbrev  0x00002b81      0x4ba examples/experimental_lpn/CMakeFiles/lpn_nrf52840_xxAA_s140_6.1.0.dir/C_/mesh/deps/nRF5_SDK_15.2.0_9412b96/components/softdevice/common/nrf_sdh.c.obj
 .debug_abbrev  0x0000303b      0x4fe examples/experimental_lpn/CMakeFiles/lpn_nrf52840_xxAA_s140_6.1.0.dir/C_/mesh/deps/nRF5_SDK_15.2.0_9412b96/components/ble/common/ble_conn_params.c.obj
 .debug_abbrev  0x00003539      0x328 examples/experimental_lpn/CMakeFiles/lpn_nrf52840_xxAA_s140_6.1.0.dir/C_/mesh/deps/nRF5_SDK_15.2.0_9412b96/components/ble/common/ble_srv_common.c.obj
 .debug_abbrev  0x00003861      0x1ae examples/experimental_lpn/CMakeFiles/lpn_nrf52840_xxAA_s140_6.1.0.dir/__/nrf_mesh_weak.c.obj
 .debug_abbrev  0x00003a0f      0x2de examples/experimental_lpn/CMakeFiles/lpn_nrf52840_xxAA_s140_6.1.0.dir/__/common/src/app_error_weak.c.obj
 .debug_abbrev  0x00003ced      0x1f6 examples/experimental_lpn/CMakeFiles/lpn_nrf52840_xxAA_s140_6.1.0.dir/__/common/src/assertion_handler_weak.c.obj
 .debug_abbrev  0x00003ee3      0x254 examples/experimental_lpn/CMakeFiles/lpn_nrf52840_xxAA_s140_6.1.0.dir/__/__/mesh/core/src/nrf_mesh_configure.c.obj
 .debug_abbrev  0x00004137      0x25d examples/experimental_lpn/CMakeFiles/lpn_nrf52840_xxAA_s140_6.1.0.dir/__/__/mesh/core/src/msg_cache.c.obj
 .debug_abbrev  0x00004394      0x51e examples/experimental_lpn/CMakeFiles/lpn_nrf52840_xxAA_s140_6.1.0.dir/__/__/mesh/core/src/transport.c.obj
 .debug_abbrev  0x000048b2      0x314 examples/experimental_lpn/CMakeFiles/lpn_nrf52840_xxAA_s140_6.1.0.dir/__/__/mesh/core/src/event.c.obj
 .debug_abbrev  0x00004bc6      0x460 examples/experimental_lpn/CMakeFiles/lpn_nrf52840_xxAA_s140_6.1.0.dir/__/__/mesh/core/src/packet_buffer.c.obj
 .debug_abbrev  0x00005026      0x4fd examples/experimental_lpn/CMakeFiles/lpn_nrf52840_xxAA_s140_6.1.0.dir/__/__/mesh/core/src/flash_manager_defrag.c.obj
 .debug_abbrev  0x00005523      0x2f2 examples/experimental_lpn/CMakeFiles/lpn_nrf52840_xxAA_s140_6.1.0.dir/__/__/mesh/core/src/fifo.c.obj
 .debug_abbrev  0x00005815      0x21f examples/experimental_lpn/CMakeFiles/lpn_nrf52840_xxAA_s140_6.1.0.dir/__/__/mesh/core/src/nrf_flash.c.obj
 .debug_abbrev  0x00005a34      0x546 examples/experimental_lpn/CMakeFiles/lpn_nrf52840_xxAA_s140_6.1.0.dir/__/__/mesh/core/src/net_state.c.obj
 .debug_abbrev  0x00005f7a      0x462 examples/experimental_lpn/CMakeFiles/lpn_nrf52840_xxAA_s140_6.1.0.dir/__/__/mesh/core/src/mesh_flash.c.obj
 .debug_abbrev  0x000063dc      0x242 examples/experimental_lpn/CMakeFiles/lpn_nrf52840_xxAA_s140_6.1.0.dir/__/__/mesh/core/src/nrf_mesh_utils.c.obj
 .debug_abbrev  0x0000661e      0x496 examples/experimental_lpn/CMakeFiles/lpn_nrf52840_xxAA_s140_6.1.0.dir/__/__/mesh/core/src/nrf_mesh.c.obj
 .debug_abbrev  0x00006ab4      0x247 examples/experimental_lpn/CMakeFiles/lpn_nrf52840_xxAA_s140_6.1.0.dir/__/__/mesh/core/src/queue.c.obj
 .debug_abbrev  0x00006cfb      0x244 examples/experimental_lpn/CMakeFiles/lpn_nrf52840_xxAA_s140_6.1.0.dir/__/__/mesh/core/src/hal.c.obj
 .debug_abbrev  0x00006f3f      0x341 examples/experimental_lpn/CMakeFiles/lpn_nrf52840_xxAA_s140_6.1.0.dir/__/__/mesh/core/src/aes_cmac.c.obj
 .debug_abbrev  0x00007280      0x361 examples/experimental_lpn/CMakeFiles/lpn_nrf52840_xxAA_s140_6.1.0.dir/__/__/mesh/core/src/timer_scheduler.c.obj
 .debug_abbrev  0x000075e1      0x2d8 examples/experimental_lpn/CMakeFiles/lpn_nrf52840_xxAA_s140_6.1.0.dir/__/__/mesh/core/src/timer.c.obj
 .debug_abbrev  0x000078b9      0x194 examples/experimental_lpn/CMakeFiles/lpn_nrf52840_xxAA_s140_6.1.0.dir/__/__/mesh/core/src/rand.c.obj
 .debug_abbrev  0x00007a4d      0x21f examples/experimental_lpn/CMakeFiles/lpn_nrf52840_xxAA_s140_6.1.0.dir/__/__/mesh/core/src/mesh_opt.c.obj
 .debug_abbrev  0x00007c6c      0x4ac examples/experimental_lpn/CMakeFiles/lpn_nrf52840_xxAA_s140_6.1.0.dir/__/__/mesh/core/src/timeslot.c.obj
 .debug_abbrev  0x00008118      0x2f8 examples/experimental_lpn/CMakeFiles/lpn_nrf52840_xxAA_s140_6.1.0.dir/__/__/mesh/core/src/timeslot_timer.c.obj
 .debug_abbrev  0x00008410      0x522 examples/experimental_lpn/CMakeFiles/lpn_nrf52840_xxAA_s140_6.1.0.dir/__/__/mesh/core/src/bearer_event.c.obj
 .debug_abbrev  0x00008932      0x3b7 examples/experimental_lpn/CMakeFiles/lpn_nrf52840_xxAA_s140_6.1.0.dir/__/__/mesh/core/src/enc.c.obj
 .debug_abbrev  0x00008ce9      0x4df examples/experimental_lpn/CMakeFiles/lpn_nrf52840_xxAA_s140_6.1.0.dir/__/__/mesh/core/src/network.c.obj
 .debug_abbrev  0x000091c8      0x4a4 examples/experimental_lpn/CMakeFiles/lpn_nrf52840_xxAA_s140_6.1.0.dir/__/__/mesh/core/src/net_packet.c.obj
 .debug_abbrev  0x0000966c      0x2c0 examples/experimental_lpn/CMakeFiles/lpn_nrf52840_xxAA_s140_6.1.0.dir/__/__/mesh/core/src/msqueue.c.obj
 .debug_abbrev  0x0000992c      0x223 examples/experimental_lpn/CMakeFiles/lpn_nrf52840_xxAA_s140_6.1.0.dir/__/__/mesh/core/src/nrf_mesh_keygen.c.obj
 .debug_abbrev  0x00009b4f      0x2a3 examples/experimental_lpn/CMakeFiles/lpn_nrf52840_xxAA_s140_6.1.0.dir/__/__/mesh/core/src/cache.c.obj
 .debug_abbrev  0x00009df2      0x1a4 examples/experimental_lpn/CMakeFiles/lpn_nrf52840_xxAA_s140_6.1.0.dir/__/__/mesh/core/src/list.c.obj
 .debug_abbrev  0x00009f96      0x24e examples/experimental_lpn/CMakeFiles/lpn_nrf52840_xxAA_s140_6.1.0.dir/__/__/mesh/core/src/log.c.obj
 .debug_abbrev  0x0000a1e4      0x53f examples/experimental_lpn/CMakeFiles/lpn_nrf52840_xxAA_s140_6.1.0.dir/__/__/mesh/core/src/flash_manager.c.obj
 .debug_abbrev  0x0000a723      0x390 examples/experimental_lpn/CMakeFiles/lpn_nrf52840_xxAA_s140_6.1.0.dir/__/__/mesh/core/src/ccm_soft.c.obj
 .debug_abbrev  0x0000aab3      0x261 examples/experimental_lpn/CMakeFiles/lpn_nrf52840_xxAA_s140_6.1.0.dir/__/__/mesh/core/src/replay_cache.c.obj
 .debug_abbrev  0x0000ad14      0x2dc examples/experimental_lpn/CMakeFiles/lpn_nrf52840_xxAA_s140_6.1.0.dir/__/__/mesh/core/src/beacon.c.obj
 .debug_abbrev  0x0000aff0      0x288 examples/experimental_lpn/CMakeFiles/lpn_nrf52840_xxAA_s140_6.1.0.dir/__/__/mesh/core/src/flash_manager_internal.c.obj
 .debug_abbrev  0x0000b278      0x2fc examples/experimental_lpn/CMakeFiles/lpn_nrf52840_xxAA_s140_6.1.0.dir/__/__/mesh/core/src/core_tx.c.obj
 .debug_abbrev  0x0000b574      0x571 examples/experimental_lpn/CMakeFiles/lpn_nrf52840_xxAA_s140_6.1.0.dir/__/__/mesh/core/src/heartbeat.c.obj
 .debug_abbrev  0x0000bae5      0x4ed examples/experimental_lpn/CMakeFiles/lpn_nrf52840_xxAA_s140_6.1.0.dir/__/__/mesh/core/src/net_beacon.c.obj
 .debug_abbrev  0x0000bfd2      0x510 examples/experimental_lpn/CMakeFiles/lpn_nrf52840_xxAA_s140_6.1.0.dir/__/__/mesh/core/src/mesh_config.c.obj
 .debug_abbrev  0x0000c4e2      0x310 examples/experimental_lpn/CMakeFiles/lpn_nrf52840_xxAA_s140_6.1.0.dir/__/__/mesh/core/src/fsm.c.obj
 .debug_abbrev  0x0000c7f2      0x3d7 examples/experimental_lpn/CMakeFiles/lpn_nrf52840_xxAA_s140_6.1.0.dir/__/__/mesh/core/src/mesh_config_backend.c.obj
 .debug_abbrev  0x0000cbc9      0x3a5 examples/experimental_lpn/CMakeFiles/lpn_nrf52840_xxAA_s140_6.1.0.dir/__/__/mesh/core/src/mesh_config_flashman_glue.c.obj
 .debug_abbrev  0x0000cf6e      0x501 examples/experimental_lpn/CMakeFiles/lpn_nrf52840_xxAA_s140_6.1.0.dir/__/__/mesh/core/src/lpn.c.obj
 .debug_abbrev  0x0000d46f      0x381 examples/experimental_lpn/CMakeFiles/lpn_nrf52840_xxAA_s140_6.1.0.dir/__/__/mesh/core/src/core_tx_lpn.c.obj
 .debug_abbrev  0x0000d7f0      0x49e examples/experimental_lpn/CMakeFiles/lpn_nrf52840_xxAA_s140_6.1.0.dir/__/__/mesh/core/src/mesh_lpn_subman.c.obj
 .debug_abbrev  0x0000dc8e      0x49c examples/experimental_lpn/CMakeFiles/lpn_nrf52840_xxAA_s140_6.1.0.dir/__/__/mesh/core/src/core_tx_adv.c.obj
 .debug_abbrev  0x0000e12a      0x226 examples/experimental_lpn/CMakeFiles/lpn_nrf52840_xxAA_s140_6.1.0.dir/__/__/mesh/core/src/mesh_mem_stdlib.c.obj
 .debug_abbrev  0x0000e350      0x341 examples/experimental_lpn/CMakeFiles/lpn_nrf52840_xxAA_s140_6.1.0.dir/__/__/mesh/bearer/src/ad_listener.c.obj
 .debug_abbrev  0x0000e691      0x368 examples/experimental_lpn/CMakeFiles/lpn_nrf52840_xxAA_s140_6.1.0.dir/__/__/mesh/bearer/src/ad_type_filter.c.obj
 .debug_abbrev  0x0000e9f9      0x4e3 examples/experimental_lpn/CMakeFiles/lpn_nrf52840_xxAA_s140_6.1.0.dir/__/__/mesh/bearer/src/advertiser.c.obj
 .debug_abbrev  0x0000eedc      0x49c examples/experimental_lpn/CMakeFiles/lpn_nrf52840_xxAA_s140_6.1.0.dir/__/__/mesh/bearer/src/bearer_handler.c.obj
 .debug_abbrev  0x0000f378      0x3b9 examples/experimental_lpn/CMakeFiles/lpn_nrf52840_xxAA_s140_6.1.0.dir/__/__/mesh/bearer/src/broadcast.c.obj
 .debug_abbrev  0x0000f731      0x2a6 examples/experimental_lpn/CMakeFiles/lpn_nrf52840_xxAA_s140_6.1.0.dir/__/__/mesh/bearer/src/filter_engine.c.obj
 .debug_abbrev  0x0000f9d7      0x1d5 examples/experimental_lpn/CMakeFiles/lpn_nrf52840_xxAA_s140_6.1.0.dir/__/__/mesh/bearer/src/radio_config.c.obj
 .debug_abbrev  0x0000fbac      0x52a examples/experimental_lpn/CMakeFiles/lpn_nrf52840_xxAA_s140_6.1.0.dir/__/__/mesh/bearer/src/scanner.c.obj
 .debug_abbrev  0x000100d6      0x2bd examples/experimental_lpn/CMakeFiles/lpn_nrf52840_xxAA_s140_6.1.0.dir/__/__/mesh/bearer/src/mesh_pa_lna.c.obj
 .debug_abbrev  0x00010393      0x533 examples/experimental_lpn/CMakeFiles/lpn_nrf52840_xxAA_s140_6.1.0.dir/__/__/mesh/gatt/src/mesh_gatt.c.obj
 .debug_abbrev  0x000108c6      0x5df examples/experimental_lpn/CMakeFiles/lpn_nrf52840_xxAA_s140_6.1.0.dir/__/__/mesh/gatt/src/proxy.c.obj
 .debug_abbrev  0x00010ea5      0x1ce examples/experimental_lpn/CMakeFiles/lpn_nrf52840_xxAA_s140_6.1.0.dir/__/__/mesh/gatt/src/proxy_filter.c.obj
 .debug_abbrev  0x00011073      0x340 examples/experimental_lpn/CMakeFiles/lpn_nrf52840_xxAA_s140_6.1.0.dir/__/__/models/model_spec/generic_onoff/src/generic_onoff_client.c.obj
 .debug_abbrev  0x000113b3      0x35e examples/experimental_lpn/CMakeFiles/lpn_nrf52840_xxAA_s140_6.1.0.dir/__/__/models/model_spec/common/src/model_common.c.obj
 .debug_abbrev  0x00011711      0x2e2 examples/experimental_lpn/CMakeFiles/lpn_nrf52840_xxAA_s140_6.1.0.dir/__/__/models/foundation/config/src/composition_data.c.obj
 .debug_abbrev  0x000119f3      0x576 examples/experimental_lpn/CMakeFiles/lpn_nrf52840_xxAA_s140_6.1.0.dir/__/__/models/foundation/config/src/config_server.c.obj
 .debug_abbrev  0x00011f69       0x95 examples/experimental_lpn/CMakeFiles/lpn_nrf52840_xxAA_s140_6.1.0.dir/__/__/models/foundation/config/src/packed_index_list.c.obj
 .debug_abbrev  0x00011ffe      0x4de examples/experimental_lpn/CMakeFiles/lpn_nrf52840_xxAA_s140_6.1.0.dir/__/__/models/foundation/health/src/health_server.c.obj
 .debug_abbrev  0x000124dc      0x434 examples/experimental_lpn/CMakeFiles/lpn_nrf52840_xxAA_s140_6.1.0.dir/__/__/mesh/access/src/access_publish.c.obj
 .debug_abbrev  0x00012910      0x5e5 examples/experimental_lpn/CMakeFiles/lpn_nrf52840_xxAA_s140_6.1.0.dir/__/__/mesh/access/src/access.c.obj
 .debug_abbrev  0x00012ef5      0x455 examples/experimental_lpn/CMakeFiles/lpn_nrf52840_xxAA_s140_6.1.0.dir/__/__/mesh/access/src/access_reliable.c.obj
 .debug_abbrev  0x0001334a      0x2be examples/experimental_lpn/CMakeFiles/lpn_nrf52840_xxAA_s140_6.1.0.dir/__/__/mesh/access/src/access_loopback.c.obj
 .debug_abbrev  0x00013608      0x5ef examples/experimental_lpn/CMakeFiles/lpn_nrf52840_xxAA_s140_6.1.0.dir/__/__/mesh/access/src/device_state_manager.c.obj
 .debug_abbrev  0x00013bf7      0x4f9 examples/experimental_lpn/CMakeFiles/lpn_nrf52840_xxAA_s140_6.1.0.dir/__/__/external/app_timer/app_timer_mesh.c.obj
 .debug_abbrev  0x000140f0      0x48d examples/experimental_lpn/CMakeFiles/lpn_nrf52840_xxAA_s140_6.1.0.dir/__/__/mesh/prov/src/prov_provisionee.c.obj
 .debug_abbrev  0x0001457d      0x434 examples/experimental_lpn/CMakeFiles/lpn_nrf52840_xxAA_s140_6.1.0.dir/__/__/mesh/prov/src/nrf_mesh_prov.c.obj
 .debug_abbrev  0x000149b1      0x2a9 examples/experimental_lpn/CMakeFiles/lpn_nrf52840_xxAA_s140_6.1.0.dir/__/__/mesh/prov/src/provisioning.c.obj
 .debug_abbrev  0x00014c5a      0x2c8 examples/experimental_lpn/CMakeFiles/lpn_nrf52840_xxAA_s140_6.1.0.dir/__/__/mesh/prov/src/prov_beacon.c.obj
 .debug_abbrev  0x00014f22      0x422 examples/experimental_lpn/CMakeFiles/lpn_nrf52840_xxAA_s140_6.1.0.dir/__/__/mesh/prov/src/prov_utils.c.obj
 .debug_abbrev  0x00015344      0x440 examples/experimental_lpn/CMakeFiles/lpn_nrf52840_xxAA_s140_6.1.0.dir/__/__/mesh/prov/src/nrf_mesh_prov_bearer_gatt.c.obj
 .debug_abbrev  0x00015784      0x20b examples/experimental_lpn/CMakeFiles/lpn_nrf52840_xxAA_s140_6.1.0.dir/C_/mesh/deps/nRF5_SDK_15.2.0_9412b96/modules/nrfx/mdk/system_nrf52840.c.obj
 .debug_abbrev  0x0001598f      0x232 examples/experimental_lpn/CMakeFiles/lpn_nrf52840_xxAA_s140_6.1.0.dir/C_/mesh/deps/nRF5_SDK_15.2.0_9412b96/components/libraries/util/app_error.c.obj
 .debug_abbrev  0x00015bc1      0x1bd examples/experimental_lpn/CMakeFiles/lpn_nrf52840_xxAA_s140_6.1.0.dir/C_/mesh/deps/nRF5_SDK_15.2.0_9412b96/components/libraries/util/app_error_handler_gcc.c.obj
 .debug_abbrev  0x00015d7e      0x3a9 external/rtt/librtt_nrf52840_xxAA.a(SEGGER_RTT.c.obj)
 .debug_abbrev  0x00016127      0x32e external/rtt/librtt_nrf52840_xxAA.a(SEGGER_RTT_printf.c.obj)
 .debug_abbrev  0x00016455      0x4b4 external/micro-ecc/libuECC_nrf52840_xxAA.a(uECC.c.obj)

.debug_loc      0x00000000    0x2c6d9
 .debug_loc     0x00000000      0x652 examples/experimental_lpn/CMakeFiles/lpn_nrf52840_xxAA_s140_6.1.0.dir/src/main.c.obj
 .debug_loc     0x00000652      0x1e0 examples/experimental_lpn/CMakeFiles/lpn_nrf52840_xxAA_s140_6.1.0.dir/__/__/mesh/stack/src/mesh_stack.c.obj
 .debug_loc     0x00000832      0x2f5 examples/experimental_lpn/CMakeFiles/lpn_nrf52840_xxAA_s140_6.1.0.dir/__/common/src/mesh_provisionee.c.obj
 .debug_loc     0x00000b27       0xed examples/experimental_lpn/CMakeFiles/lpn_nrf52840_xxAA_s140_6.1.0.dir/__/common/src/rtt_input.c.obj
 .debug_loc     0x00000c14      0x26c examples/experimental_lpn/CMakeFiles/lpn_nrf52840_xxAA_s140_6.1.0.dir/__/common/src/simple_hal.c.obj
 .debug_loc     0x00000e80       0x9a examples/experimental_lpn/CMakeFiles/lpn_nrf52840_xxAA_s140_6.1.0.dir/__/common/src/mesh_app_utils.c.obj
 .debug_loc     0x00000f1a      0x17a examples/experimental_lpn/CMakeFiles/lpn_nrf52840_xxAA_s140_6.1.0.dir/__/common/src/mesh_adv.c.obj
 .debug_loc     0x00001094      0x1fb examples/experimental_lpn/CMakeFiles/lpn_nrf52840_xxAA_s140_6.1.0.dir/__/common/src/ble_softdevice_support.c.obj
 .debug_loc     0x0000128f       0xc1 examples/experimental_lpn/CMakeFiles/lpn_nrf52840_xxAA_s140_6.1.0.dir/C_/mesh/deps/nRF5_SDK_15.2.0_9412b96/components/libraries/util/app_util_platform.c.obj
 .debug_loc     0x00001350      0xd8e examples/experimental_lpn/CMakeFiles/lpn_nrf52840_xxAA_s140_6.1.0.dir/C_/mesh/deps/nRF5_SDK_15.2.0_9412b96/components/ble/common/ble_advdata.c.obj
 .debug_loc     0x000020de       0x74 examples/experimental_lpn/CMakeFiles/lpn_nrf52840_xxAA_s140_6.1.0.dir/C_/mesh/deps/nRF5_SDK_15.2.0_9412b96/components/softdevice/common/nrf_sdh_soc.c.obj
 .debug_loc     0x00002152      0x1d5 examples/experimental_lpn/CMakeFiles/lpn_nrf52840_xxAA_s140_6.1.0.dir/C_/mesh/deps/nRF5_SDK_15.2.0_9412b96/components/softdevice/common/nrf_sdh_ble.c.obj
 .debug_loc     0x00002327      0x142 examples/experimental_lpn/CMakeFiles/lpn_nrf52840_xxAA_s140_6.1.0.dir/C_/mesh/deps/nRF5_SDK_15.2.0_9412b96/components/softdevice/common/nrf_sdh.c.obj
 .debug_loc     0x00002469      0x7e7 examples/experimental_lpn/CMakeFiles/lpn_nrf52840_xxAA_s140_6.1.0.dir/C_/mesh/deps/nRF5_SDK_15.2.0_9412b96/components/ble/common/ble_conn_params.c.obj
 .debug_loc     0x00002c50      0x1dc examples/experimental_lpn/CMakeFiles/lpn_nrf52840_xxAA_s140_6.1.0.dir/C_/mesh/deps/nRF5_SDK_15.2.0_9412b96/components/ble/common/ble_srv_common.c.obj
 .debug_loc     0x00002e2c      0x18c examples/experimental_lpn/CMakeFiles/lpn_nrf52840_xxAA_s140_6.1.0.dir/__/common/src/app_error_weak.c.obj
 .debug_loc     0x00002fb8       0x2c examples/experimental_lpn/CMakeFiles/lpn_nrf52840_xxAA_s140_6.1.0.dir/__/common/src/assertion_handler_weak.c.obj
 .debug_loc     0x00002fe4       0x2c examples/experimental_lpn/CMakeFiles/lpn_nrf52840_xxAA_s140_6.1.0.dir/__/__/mesh/core/src/nrf_mesh_configure.c.obj
 .debug_loc     0x00003010      0x10d examples/experimental_lpn/CMakeFiles/lpn_nrf52840_xxAA_s140_6.1.0.dir/__/__/mesh/core/src/msg_cache.c.obj
 .debug_loc     0x0000311d     0x2565 examples/experimental_lpn/CMakeFiles/lpn_nrf52840_xxAA_s140_6.1.0.dir/__/__/mesh/core/src/transport.c.obj
 .debug_loc     0x00005682      0x124 examples/experimental_lpn/CMakeFiles/lpn_nrf52840_xxAA_s140_6.1.0.dir/__/__/mesh/core/src/event.c.obj
 .debug_loc     0x000057a6      0x889 examples/experimental_lpn/CMakeFiles/lpn_nrf52840_xxAA_s140_6.1.0.dir/__/__/mesh/core/src/packet_buffer.c.obj
 .debug_loc     0x0000602f      0x795 examples/experimental_lpn/CMakeFiles/lpn_nrf52840_xxAA_s140_6.1.0.dir/__/__/mesh/core/src/flash_manager_defrag.c.obj
 .debug_loc     0x000067c4      0x4f6 examples/experimental_lpn/CMakeFiles/lpn_nrf52840_xxAA_s140_6.1.0.dir/__/__/mesh/core/src/fifo.c.obj
 .debug_loc     0x00006cba      0x17a examples/experimental_lpn/CMakeFiles/lpn_nrf52840_xxAA_s140_6.1.0.dir/__/__/mesh/core/src/nrf_flash.c.obj
 .debug_loc     0x00006e34      0x8e7 examples/experimental_lpn/CMakeFiles/lpn_nrf52840_xxAA_s140_6.1.0.dir/__/__/mesh/core/src/net_state.c.obj
 .debug_loc     0x0000771b      0x96b examples/experimental_lpn/CMakeFiles/lpn_nrf52840_xxAA_s140_6.1.0.dir/__/__/mesh/core/src/mesh_flash.c.obj
 .debug_loc     0x00008086       0xf8 examples/experimental_lpn/CMakeFiles/lpn_nrf52840_xxAA_s140_6.1.0.dir/__/__/mesh/core/src/nrf_mesh_utils.c.obj
 .debug_loc     0x0000817e      0x4f8 examples/experimental_lpn/CMakeFiles/lpn_nrf52840_xxAA_s140_6.1.0.dir/__/__/mesh/core/src/nrf_mesh.c.obj
 .debug_loc     0x00008676       0xf5 examples/experimental_lpn/CMakeFiles/lpn_nrf52840_xxAA_s140_6.1.0.dir/__/__/mesh/core/src/queue.c.obj
 .debug_loc     0x0000876b       0x84 examples/experimental_lpn/CMakeFiles/lpn_nrf52840_xxAA_s140_6.1.0.dir/__/__/mesh/core/src/hal.c.obj
 .debug_loc     0x000087ef      0x3d8 examples/experimental_lpn/CMakeFiles/lpn_nrf52840_xxAA_s140_6.1.0.dir/__/__/mesh/core/src/aes_cmac.c.obj
 .debug_loc     0x00008bc7      0x2e5 examples/experimental_lpn/CMakeFiles/lpn_nrf52840_xxAA_s140_6.1.0.dir/__/__/mesh/core/src/timer_scheduler.c.obj
 .debug_loc     0x00008eac      0x198 examples/experimental_lpn/CMakeFiles/lpn_nrf52840_xxAA_s140_6.1.0.dir/__/__/mesh/core/src/timer.c.obj
 .debug_loc     0x00009044      0x14e examples/experimental_lpn/CMakeFiles/lpn_nrf52840_xxAA_s140_6.1.0.dir/__/__/mesh/core/src/rand.c.obj
 .debug_loc     0x00009192      0x309 examples/experimental_lpn/CMakeFiles/lpn_nrf52840_xxAA_s140_6.1.0.dir/__/__/mesh/core/src/timeslot.c.obj
 .debug_loc     0x0000949b      0x400 examples/experimental_lpn/CMakeFiles/lpn_nrf52840_xxAA_s140_6.1.0.dir/__/__/mesh/core/src/timeslot_timer.c.obj
 .debug_loc     0x0000989b      0x639 examples/experimental_lpn/CMakeFiles/lpn_nrf52840_xxAA_s140_6.1.0.dir/__/__/mesh/core/src/bearer_event.c.obj
 .debug_loc     0x00009ed4      0x9ea examples/experimental_lpn/CMakeFiles/lpn_nrf52840_xxAA_s140_6.1.0.dir/__/__/mesh/core/src/enc.c.obj
 .debug_loc     0x0000a8be      0x6e4 examples/experimental_lpn/CMakeFiles/lpn_nrf52840_xxAA_s140_6.1.0.dir/__/__/mesh/core/src/network.c.obj
 .debug_loc     0x0000afa2      0x7ac examples/experimental_lpn/CMakeFiles/lpn_nrf52840_xxAA_s140_6.1.0.dir/__/__/mesh/core/src/net_packet.c.obj
 .debug_loc     0x0000b74e      0x2ed examples/experimental_lpn/CMakeFiles/lpn_nrf52840_xxAA_s140_6.1.0.dir/__/__/mesh/core/src/msqueue.c.obj
 .debug_loc     0x0000ba3b      0x28b examples/experimental_lpn/CMakeFiles/lpn_nrf52840_xxAA_s140_6.1.0.dir/__/__/mesh/core/src/nrf_mesh_keygen.c.obj
 .debug_loc     0x0000bcc6      0x29b examples/experimental_lpn/CMakeFiles/lpn_nrf52840_xxAA_s140_6.1.0.dir/__/__/mesh/core/src/cache.c.obj
 .debug_loc     0x0000bf61      0x3bf examples/experimental_lpn/CMakeFiles/lpn_nrf52840_xxAA_s140_6.1.0.dir/__/__/mesh/core/src/list.c.obj
 .debug_loc     0x0000c320      0x348 examples/experimental_lpn/CMakeFiles/lpn_nrf52840_xxAA_s140_6.1.0.dir/__/__/mesh/core/src/log.c.obj
 .debug_loc     0x0000c668     0x17e2 examples/experimental_lpn/CMakeFiles/lpn_nrf52840_xxAA_s140_6.1.0.dir/__/__/mesh/core/src/flash_manager.c.obj
 .debug_loc     0x0000de4a      0x449 examples/experimental_lpn/CMakeFiles/lpn_nrf52840_xxAA_s140_6.1.0.dir/__/__/mesh/core/src/ccm_soft.c.obj
 .debug_loc     0x0000e293      0x157 examples/experimental_lpn/CMakeFiles/lpn_nrf52840_xxAA_s140_6.1.0.dir/__/__/mesh/core/src/replay_cache.c.obj
 .debug_loc     0x0000e3ea      0x2ee examples/experimental_lpn/CMakeFiles/lpn_nrf52840_xxAA_s140_6.1.0.dir/__/__/mesh/core/src/beacon.c.obj
 .debug_loc     0x0000e6d8       0xe3 examples/experimental_lpn/CMakeFiles/lpn_nrf52840_xxAA_s140_6.1.0.dir/__/__/mesh/core/src/flash_manager_internal.c.obj
 .debug_loc     0x0000e7bb      0x3c0 examples/experimental_lpn/CMakeFiles/lpn_nrf52840_xxAA_s140_6.1.0.dir/__/__/mesh/core/src/core_tx.c.obj
 .debug_loc     0x0000eb7b      0x666 examples/experimental_lpn/CMakeFiles/lpn_nrf52840_xxAA_s140_6.1.0.dir/__/__/mesh/core/src/heartbeat.c.obj
 .debug_loc     0x0000f1e1      0x6b3 examples/experimental_lpn/CMakeFiles/lpn_nrf52840_xxAA_s140_6.1.0.dir/__/__/mesh/core/src/net_beacon.c.obj
 .debug_loc     0x0000f894      0x789 examples/experimental_lpn/CMakeFiles/lpn_nrf52840_xxAA_s140_6.1.0.dir/__/__/mesh/core/src/mesh_config.c.obj
 .debug_loc     0x0001001d      0x3b5 examples/experimental_lpn/CMakeFiles/lpn_nrf52840_xxAA_s140_6.1.0.dir/__/__/mesh/core/src/fsm.c.obj
 .debug_loc     0x000103d2      0x4d9 examples/experimental_lpn/CMakeFiles/lpn_nrf52840_xxAA_s140_6.1.0.dir/__/__/mesh/core/src/mesh_config_backend.c.obj
 .debug_loc     0x000108ab      0x4e3 examples/experimental_lpn/CMakeFiles/lpn_nrf52840_xxAA_s140_6.1.0.dir/__/__/mesh/core/src/mesh_config_flashman_glue.c.obj
 .debug_loc     0x00010d8e      0xb66 examples/experimental_lpn/CMakeFiles/lpn_nrf52840_xxAA_s140_6.1.0.dir/__/__/mesh/core/src/lpn.c.obj
 .debug_loc     0x000118f4      0x230 examples/experimental_lpn/CMakeFiles/lpn_nrf52840_xxAA_s140_6.1.0.dir/__/__/mesh/core/src/core_tx_lpn.c.obj
 .debug_loc     0x00011b24      0x31e examples/experimental_lpn/CMakeFiles/lpn_nrf52840_xxAA_s140_6.1.0.dir/__/__/mesh/core/src/mesh_lpn_subman.c.obj
 .debug_loc     0x00011e42      0xb08 examples/experimental_lpn/CMakeFiles/lpn_nrf52840_xxAA_s140_6.1.0.dir/__/__/mesh/core/src/core_tx_adv.c.obj
 .debug_loc     0x0001294a       0x84 examples/experimental_lpn/CMakeFiles/lpn_nrf52840_xxAA_s140_6.1.0.dir/__/__/mesh/core/src/mesh_mem_stdlib.c.obj
 .debug_loc     0x000129ce      0x40d examples/experimental_lpn/CMakeFiles/lpn_nrf52840_xxAA_s140_6.1.0.dir/__/__/mesh/bearer/src/ad_listener.c.obj
 .debug_loc     0x00012ddb      0x3ae examples/experimental_lpn/CMakeFiles/lpn_nrf52840_xxAA_s140_6.1.0.dir/__/__/mesh/bearer/src/ad_type_filter.c.obj
 .debug_loc     0x00013189      0xc5b examples/experimental_lpn/CMakeFiles/lpn_nrf52840_xxAA_s140_6.1.0.dir/__/__/mesh/bearer/src/advertiser.c.obj
 .debug_loc     0x00013de4      0x4d2 examples/experimental_lpn/CMakeFiles/lpn_nrf52840_xxAA_s140_6.1.0.dir/__/__/mesh/bearer/src/bearer_handler.c.obj
 .debug_loc     0x000142b6      0x311 examples/experimental_lpn/CMakeFiles/lpn_nrf52840_xxAA_s140_6.1.0.dir/__/__/mesh/bearer/src/broadcast.c.obj
 .debug_loc     0x000145c7       0xde examples/experimental_lpn/CMakeFiles/lpn_nrf52840_xxAA_s140_6.1.0.dir/__/__/mesh/bearer/src/filter_engine.c.obj
 .debug_loc     0x000146a5      0x232 examples/experimental_lpn/CMakeFiles/lpn_nrf52840_xxAA_s140_6.1.0.dir/__/__/mesh/bearer/src/radio_config.c.obj
 .debug_loc     0x000148d7      0x49d examples/experimental_lpn/CMakeFiles/lpn_nrf52840_xxAA_s140_6.1.0.dir/__/__/mesh/bearer/src/scanner.c.obj
 .debug_loc     0x00014d74      0x1d6 examples/experimental_lpn/CMakeFiles/lpn_nrf52840_xxAA_s140_6.1.0.dir/__/__/mesh/bearer/src/mesh_pa_lna.c.obj
 .debug_loc     0x00014f4a     0x1284 examples/experimental_lpn/CMakeFiles/lpn_nrf52840_xxAA_s140_6.1.0.dir/__/__/mesh/gatt/src/mesh_gatt.c.obj
 .debug_loc     0x000161ce     0x128d examples/experimental_lpn/CMakeFiles/lpn_nrf52840_xxAA_s140_6.1.0.dir/__/__/mesh/gatt/src/proxy.c.obj
 .debug_loc     0x0001745b      0x27a examples/experimental_lpn/CMakeFiles/lpn_nrf52840_xxAA_s140_6.1.0.dir/__/__/mesh/gatt/src/proxy_filter.c.obj
 .debug_loc     0x000176d5      0x6fa examples/experimental_lpn/CMakeFiles/lpn_nrf52840_xxAA_s140_6.1.0.dir/__/__/models/model_spec/generic_onoff/src/generic_onoff_client.c.obj
 .debug_loc     0x00017dcf      0x437 examples/experimental_lpn/CMakeFiles/lpn_nrf52840_xxAA_s140_6.1.0.dir/__/__/models/model_spec/common/src/model_common.c.obj
 .debug_loc     0x00018206      0x254 examples/experimental_lpn/CMakeFiles/lpn_nrf52840_xxAA_s140_6.1.0.dir/__/__/models/foundation/config/src/composition_data.c.obj
 .debug_loc     0x0001845a     0x4bf1 examples/experimental_lpn/CMakeFiles/lpn_nrf52840_xxAA_s140_6.1.0.dir/__/__/models/foundation/config/src/config_server.c.obj
 .debug_loc     0x0001d04b       0x89 examples/experimental_lpn/CMakeFiles/lpn_nrf52840_xxAA_s140_6.1.0.dir/__/__/models/foundation/config/src/packed_index_list.c.obj
 .debug_loc     0x0001d0d4     0x13d4 examples/experimental_lpn/CMakeFiles/lpn_nrf52840_xxAA_s140_6.1.0.dir/__/__/models/foundation/health/src/health_server.c.obj
 .debug_loc     0x0001e4a8      0x4d4 examples/experimental_lpn/CMakeFiles/lpn_nrf52840_xxAA_s140_6.1.0.dir/__/__/mesh/access/src/access_publish.c.obj
 .debug_loc     0x0001e97c     0x2303 examples/experimental_lpn/CMakeFiles/lpn_nrf52840_xxAA_s140_6.1.0.dir/__/__/mesh/access/src/access.c.obj
 .debug_loc     0x00020c7f      0x7bc examples/experimental_lpn/CMakeFiles/lpn_nrf52840_xxAA_s140_6.1.0.dir/__/__/mesh/access/src/access_reliable.c.obj
 .debug_loc     0x0002143b       0x81 examples/experimental_lpn/CMakeFiles/lpn_nrf52840_xxAA_s140_6.1.0.dir/__/__/mesh/access/src/access_loopback.c.obj
 .debug_loc     0x000214bc     0x44cf examples/experimental_lpn/CMakeFiles/lpn_nrf52840_xxAA_s140_6.1.0.dir/__/__/mesh/access/src/device_state_manager.c.obj
 .debug_loc     0x0002598b      0xa19 examples/experimental_lpn/CMakeFiles/lpn_nrf52840_xxAA_s140_6.1.0.dir/__/__/external/app_timer/app_timer_mesh.c.obj
 .debug_loc     0x000263a4      0x7ae examples/experimental_lpn/CMakeFiles/lpn_nrf52840_xxAA_s140_6.1.0.dir/__/__/mesh/prov/src/prov_provisionee.c.obj
 .debug_loc     0x00026b52      0xa86 examples/experimental_lpn/CMakeFiles/lpn_nrf52840_xxAA_s140_6.1.0.dir/__/__/mesh/prov/src/nrf_mesh_prov.c.obj
 .debug_loc     0x000275d8      0x490 examples/experimental_lpn/CMakeFiles/lpn_nrf52840_xxAA_s140_6.1.0.dir/__/__/mesh/prov/src/provisioning.c.obj
 .debug_loc     0x00027a68      0x18c examples/experimental_lpn/CMakeFiles/lpn_nrf52840_xxAA_s140_6.1.0.dir/__/__/mesh/prov/src/prov_beacon.c.obj
 .debug_loc     0x00027bf4      0x548 examples/experimental_lpn/CMakeFiles/lpn_nrf52840_xxAA_s140_6.1.0.dir/__/__/mesh/prov/src/prov_utils.c.obj
 .debug_loc     0x0002813c      0x70b examples/experimental_lpn/CMakeFiles/lpn_nrf52840_xxAA_s140_6.1.0.dir/__/__/mesh/prov/src/nrf_mesh_prov_bearer_gatt.c.obj
 .debug_loc     0x00028847       0xb5 examples/experimental_lpn/CMakeFiles/lpn_nrf52840_xxAA_s140_6.1.0.dir/C_/mesh/deps/nRF5_SDK_15.2.0_9412b96/components/libraries/util/app_error.c.obj
 .debug_loc     0x000288fc       0x63 examples/experimental_lpn/CMakeFiles/lpn_nrf52840_xxAA_s140_6.1.0.dir/C_/mesh/deps/nRF5_SDK_15.2.0_9412b96/components/libraries/util/app_error_handler_gcc.c.obj
 .debug_loc     0x0002895f     0x1222 external/rtt/librtt_nrf52840_xxAA.a(SEGGER_RTT.c.obj)
 .debug_loc     0x00029b81      0x70f external/rtt/librtt_nrf52840_xxAA.a(SEGGER_RTT_printf.c.obj)
 .debug_loc     0x0002a290     0x2449 external/micro-ecc/libuECC_nrf52840_xxAA.a(uECC.c.obj)

.debug_aranges  0x00000000     0x3090
 .debug_aranges
                0x00000000       0xa0 examples/experimental_lpn/CMakeFiles/lpn_nrf52840_xxAA_s140_6.1.0.dir/src/main.c.obj
 .debug_aranges
                0x000000a0       0x60 examples/experimental_lpn/CMakeFiles/lpn_nrf52840_xxAA_s140_6.1.0.dir/__/__/mesh/stack/src/mesh_stack.c.obj
 .debug_aranges
                0x00000100       0x48 examples/experimental_lpn/CMakeFiles/lpn_nrf52840_xxAA_s140_6.1.0.dir/__/common/src/mesh_provisionee.c.obj
 .debug_aranges
                0x00000148       0x30 examples/experimental_lpn/CMakeFiles/lpn_nrf52840_xxAA_s140_6.1.0.dir/__/common/src/rtt_input.c.obj
 .debug_aranges
                0x00000178       0x60 examples/experimental_lpn/CMakeFiles/lpn_nrf52840_xxAA_s140_6.1.0.dir/__/common/src/simple_hal.c.obj
 .debug_aranges
                0x000001d8       0x20 examples/experimental_lpn/CMakeFiles/lpn_nrf52840_xxAA_s140_6.1.0.dir/__/common/src/mesh_app_utils.c.obj
 .debug_aranges
                0x000001f8       0x50 examples/experimental_lpn/CMakeFiles/lpn_nrf52840_xxAA_s140_6.1.0.dir/__/common/src/mesh_adv.c.obj
 .debug_aranges
                0x00000248       0x60 examples/experimental_lpn/CMakeFiles/lpn_nrf52840_xxAA_s140_6.1.0.dir/__/common/src/ble_softdevice_support.c.obj
 .debug_aranges
                0x000002a8       0x48 examples/experimental_lpn/CMakeFiles/lpn_nrf52840_xxAA_s140_6.1.0.dir/C_/mesh/deps/nRF5_SDK_15.2.0_9412b96/components/libraries/util/app_util_platform.c.obj
 .debug_aranges
                0x000002f0       0x80 examples/experimental_lpn/CMakeFiles/lpn_nrf52840_xxAA_s140_6.1.0.dir/C_/mesh/deps/nRF5_SDK_15.2.0_9412b96/components/ble/common/ble_advdata.c.obj
 .debug_aranges
                0x00000370       0x28 examples/experimental_lpn/CMakeFiles/lpn_nrf52840_xxAA_s140_6.1.0.dir/C_/mesh/deps/nRF5_SDK_15.2.0_9412b96/components/libraries/experimental_section_vars/nrf_section_iter.c.obj
 .debug_aranges
                0x00000398       0x28 examples/experimental_lpn/CMakeFiles/lpn_nrf52840_xxAA_s140_6.1.0.dir/C_/mesh/deps/nRF5_SDK_15.2.0_9412b96/components/softdevice/common/nrf_sdh_soc.c.obj
 .debug_aranges
                0x000003c0       0x50 examples/experimental_lpn/CMakeFiles/lpn_nrf52840_xxAA_s140_6.1.0.dir/C_/mesh/deps/nRF5_SDK_15.2.0_9412b96/components/softdevice/common/nrf_sdh_ble.c.obj
 .debug_aranges
                0x00000410       0x90 examples/experimental_lpn/CMakeFiles/lpn_nrf52840_xxAA_s140_6.1.0.dir/C_/mesh/deps/nRF5_SDK_15.2.0_9412b96/components/softdevice/common/nrf_sdh.c.obj
 .debug_aranges
                0x000004a0       0x80 examples/experimental_lpn/CMakeFiles/lpn_nrf52840_xxAA_s140_6.1.0.dir/C_/mesh/deps/nRF5_SDK_15.2.0_9412b96/components/ble/common/ble_conn_params.c.obj
 .debug_aranges
                0x00000520       0x60 examples/experimental_lpn/CMakeFiles/lpn_nrf52840_xxAA_s140_6.1.0.dir/C_/mesh/deps/nRF5_SDK_15.2.0_9412b96/components/ble/common/ble_srv_common.c.obj
 .debug_aranges
                0x00000580       0x28 examples/experimental_lpn/CMakeFiles/lpn_nrf52840_xxAA_s140_6.1.0.dir/__/nrf_mesh_weak.c.obj
 .debug_aranges
                0x000005a8       0x20 examples/experimental_lpn/CMakeFiles/lpn_nrf52840_xxAA_s140_6.1.0.dir/__/common/src/app_error_weak.c.obj
 .debug_aranges
                0x000005c8       0x20 examples/experimental_lpn/CMakeFiles/lpn_nrf52840_xxAA_s140_6.1.0.dir/__/common/src/assertion_handler_weak.c.obj
 .debug_aranges
                0x000005e8       0x30 examples/experimental_lpn/CMakeFiles/lpn_nrf52840_xxAA_s140_6.1.0.dir/__/__/mesh/core/src/nrf_mesh_configure.c.obj
 .debug_aranges
                0x00000618       0x38 examples/experimental_lpn/CMakeFiles/lpn_nrf52840_xxAA_s140_6.1.0.dir/__/__/mesh/core/src/msg_cache.c.obj
 .debug_aranges
                0x00000650      0x128 examples/experimental_lpn/CMakeFiles/lpn_nrf52840_xxAA_s140_6.1.0.dir/__/__/mesh/core/src/transport.c.obj
 .debug_aranges
                0x00000778       0x30 examples/experimental_lpn/CMakeFiles/lpn_nrf52840_xxAA_s140_6.1.0.dir/__/__/mesh/core/src/event.c.obj
 .debug_aranges
                0x000007a8       0x78 examples/experimental_lpn/CMakeFiles/lpn_nrf52840_xxAA_s140_6.1.0.dir/__/__/mesh/core/src/packet_buffer.c.obj
 .debug_aranges
                0x00000820       0xc8 examples/experimental_lpn/CMakeFiles/lpn_nrf52840_xxAA_s140_6.1.0.dir/__/__/mesh/core/src/flash_manager_defrag.c.obj
 .debug_aranges
                0x000008e8       0x60 examples/experimental_lpn/CMakeFiles/lpn_nrf52840_xxAA_s140_6.1.0.dir/__/__/mesh/core/src/fifo.c.obj
 .debug_aranges
                0x00000948       0x30 examples/experimental_lpn/CMakeFiles/lpn_nrf52840_xxAA_s140_6.1.0.dir/__/__/mesh/core/src/nrf_flash.c.obj
 .debug_aranges
                0x00000978       0xe8 examples/experimental_lpn/CMakeFiles/lpn_nrf52840_xxAA_s140_6.1.0.dir/__/__/mesh/core/src/net_state.c.obj
 .debug_aranges
                0x00000a60       0x68 examples/experimental_lpn/CMakeFiles/lpn_nrf52840_xxAA_s140_6.1.0.dir/__/__/mesh/core/src/mesh_flash.c.obj
 .debug_aranges
                0x00000ac8       0x30 examples/experimental_lpn/CMakeFiles/lpn_nrf52840_xxAA_s140_6.1.0.dir/__/__/mesh/core/src/nrf_mesh_utils.c.obj
 .debug_aranges
                0x00000af8       0x98 examples/experimental_lpn/CMakeFiles/lpn_nrf52840_xxAA_s140_6.1.0.dir/__/__/mesh/core/src/nrf_mesh.c.obj
 .debug_aranges
                0x00000b90       0x38 examples/experimental_lpn/CMakeFiles/lpn_nrf52840_xxAA_s140_6.1.0.dir/__/__/mesh/core/src/queue.c.obj
 .debug_aranges
                0x00000bc8       0x40 examples/experimental_lpn/CMakeFiles/lpn_nrf52840_xxAA_s140_6.1.0.dir/__/__/mesh/core/src/hal.c.obj
 .debug_aranges
                0x00000c08       0x30 examples/experimental_lpn/CMakeFiles/lpn_nrf52840_xxAA_s140_6.1.0.dir/__/__/mesh/core/src/aes_cmac.c.obj
 .debug_aranges
                0x00000c38       0x68 examples/experimental_lpn/CMakeFiles/lpn_nrf52840_xxAA_s140_6.1.0.dir/__/__/mesh/core/src/timer_scheduler.c.obj
 .debug_aranges
                0x00000ca0       0x48 examples/experimental_lpn/CMakeFiles/lpn_nrf52840_xxAA_s140_6.1.0.dir/__/__/mesh/core/src/timer.c.obj
 .debug_aranges
                0x00000ce8       0x40 examples/experimental_lpn/CMakeFiles/lpn_nrf52840_xxAA_s140_6.1.0.dir/__/__/mesh/core/src/rand.c.obj
 .debug_aranges
                0x00000d28       0x20 examples/experimental_lpn/CMakeFiles/lpn_nrf52840_xxAA_s140_6.1.0.dir/__/__/mesh/core/src/mesh_opt.c.obj
 .debug_aranges
                0x00000d48       0xd8 examples/experimental_lpn/CMakeFiles/lpn_nrf52840_xxAA_s140_6.1.0.dir/__/__/mesh/core/src/timeslot.c.obj
 .debug_aranges
                0x00000e20       0x70 examples/experimental_lpn/CMakeFiles/lpn_nrf52840_xxAA_s140_6.1.0.dir/__/__/mesh/core/src/timeslot_timer.c.obj
 .debug_aranges
                0x00000e90       0x90 examples/experimental_lpn/CMakeFiles/lpn_nrf52840_xxAA_s140_6.1.0.dir/__/__/mesh/core/src/bearer_event.c.obj
 .debug_aranges
                0x00000f20       0x78 examples/experimental_lpn/CMakeFiles/lpn_nrf52840_xxAA_s140_6.1.0.dir/__/__/mesh/core/src/enc.c.obj
 .debug_aranges
                0x00000f98       0x60 examples/experimental_lpn/CMakeFiles/lpn_nrf52840_xxAA_s140_6.1.0.dir/__/__/mesh/core/src/network.c.obj
 .debug_aranges
                0x00000ff8       0x70 examples/experimental_lpn/CMakeFiles/lpn_nrf52840_xxAA_s140_6.1.0.dir/__/__/mesh/core/src/net_packet.c.obj
 .debug_aranges
                0x00001068       0x48 examples/experimental_lpn/CMakeFiles/lpn_nrf52840_xxAA_s140_6.1.0.dir/__/__/mesh/core/src/msqueue.c.obj
 .debug_aranges
                0x000010b0       0x48 examples/experimental_lpn/CMakeFiles/lpn_nrf52840_xxAA_s140_6.1.0.dir/__/__/mesh/core/src/nrf_mesh_keygen.c.obj
 .debug_aranges
                0x000010f8       0x40 examples/experimental_lpn/CMakeFiles/lpn_nrf52840_xxAA_s140_6.1.0.dir/__/__/mesh/core/src/cache.c.obj
 .debug_aranges
                0x00001138       0x48 examples/experimental_lpn/CMakeFiles/lpn_nrf52840_xxAA_s140_6.1.0.dir/__/__/mesh/core/src/list.c.obj
 .debug_aranges
                0x00001180       0x48 examples/experimental_lpn/CMakeFiles/lpn_nrf52840_xxAA_s140_6.1.0.dir/__/__/mesh/core/src/log.c.obj
 .debug_aranges
                0x000011c8      0x110 examples/experimental_lpn/CMakeFiles/lpn_nrf52840_xxAA_s140_6.1.0.dir/__/__/mesh/core/src/flash_manager.c.obj
 .debug_aranges
                0x000012d8       0x50 examples/experimental_lpn/CMakeFiles/lpn_nrf52840_xxAA_s140_6.1.0.dir/__/__/mesh/core/src/ccm_soft.c.obj
 .debug_aranges
                0x00001328       0x40 examples/experimental_lpn/CMakeFiles/lpn_nrf52840_xxAA_s140_6.1.0.dir/__/__/mesh/core/src/replay_cache.c.obj
 .debug_aranges
                0x00001368       0x28 examples/experimental_lpn/CMakeFiles/lpn_nrf52840_xxAA_s140_6.1.0.dir/__/__/mesh/core/src/beacon.c.obj
 .debug_aranges
                0x00001390       0x20 examples/experimental_lpn/CMakeFiles/lpn_nrf52840_xxAA_s140_6.1.0.dir/__/__/mesh/core/src/flash_manager_internal.c.obj
 .debug_aranges
                0x000013b0       0x58 examples/experimental_lpn/CMakeFiles/lpn_nrf52840_xxAA_s140_6.1.0.dir/__/__/mesh/core/src/core_tx.c.obj
 .debug_aranges
                0x00001408       0xa8 examples/experimental_lpn/CMakeFiles/lpn_nrf52840_xxAA_s140_6.1.0.dir/__/__/mesh/core/src/heartbeat.c.obj
 .debug_aranges
                0x000014b0       0x80 examples/experimental_lpn/CMakeFiles/lpn_nrf52840_xxAA_s140_6.1.0.dir/__/__/mesh/core/src/net_beacon.c.obj
 .debug_aranges
                0x00001530       0x90 examples/experimental_lpn/CMakeFiles/lpn_nrf52840_xxAA_s140_6.1.0.dir/__/__/mesh/core/src/mesh_config.c.obj
 .debug_aranges
                0x000015c0       0x38 examples/experimental_lpn/CMakeFiles/lpn_nrf52840_xxAA_s140_6.1.0.dir/__/__/mesh/core/src/fsm.c.obj
 .debug_aranges
                0x000015f8       0x58 examples/experimental_lpn/CMakeFiles/lpn_nrf52840_xxAA_s140_6.1.0.dir/__/__/mesh/core/src/mesh_config_backend.c.obj
 .debug_aranges
                0x00001650       0x88 examples/experimental_lpn/CMakeFiles/lpn_nrf52840_xxAA_s140_6.1.0.dir/__/__/mesh/core/src/mesh_config_flashman_glue.c.obj
 .debug_aranges
                0x000016d8      0x168 examples/experimental_lpn/CMakeFiles/lpn_nrf52840_xxAA_s140_6.1.0.dir/__/__/mesh/core/src/lpn.c.obj
 .debug_aranges
                0x00001840       0x48 examples/experimental_lpn/CMakeFiles/lpn_nrf52840_xxAA_s140_6.1.0.dir/__/__/mesh/core/src/core_tx_lpn.c.obj
 .debug_aranges
                0x00001888       0x50 examples/experimental_lpn/CMakeFiles/lpn_nrf52840_xxAA_s140_6.1.0.dir/__/__/mesh/core/src/mesh_lpn_subman.c.obj
 .debug_aranges
                0x000018d8       0xa0 examples/experimental_lpn/CMakeFiles/lpn_nrf52840_xxAA_s140_6.1.0.dir/__/__/mesh/core/src/core_tx_adv.c.obj
 .debug_aranges
                0x00001978       0x38 examples/experimental_lpn/CMakeFiles/lpn_nrf52840_xxAA_s140_6.1.0.dir/__/__/mesh/core/src/mesh_mem_stdlib.c.obj
 .debug_aranges
                0x000019b0       0x30 examples/experimental_lpn/CMakeFiles/lpn_nrf52840_xxAA_s140_6.1.0.dir/__/__/mesh/bearer/src/ad_listener.c.obj
 .debug_aranges
                0x000019e0       0x58 examples/experimental_lpn/CMakeFiles/lpn_nrf52840_xxAA_s140_6.1.0.dir/__/__/mesh/bearer/src/ad_type_filter.c.obj
 .debug_aranges
                0x00001a38       0xb8 examples/experimental_lpn/CMakeFiles/lpn_nrf52840_xxAA_s140_6.1.0.dir/__/__/mesh/bearer/src/advertiser.c.obj
 .debug_aranges
                0x00001af0       0xa8 examples/experimental_lpn/CMakeFiles/lpn_nrf52840_xxAA_s140_6.1.0.dir/__/__/mesh/bearer/src/bearer_handler.c.obj
 .debug_aranges
                0x00001b98       0x30 examples/experimental_lpn/CMakeFiles/lpn_nrf52840_xxAA_s140_6.1.0.dir/__/__/mesh/bearer/src/broadcast.c.obj
 .debug_aranges
                0x00001bc8       0x38 examples/experimental_lpn/CMakeFiles/lpn_nrf52840_xxAA_s140_6.1.0.dir/__/__/mesh/bearer/src/filter_engine.c.obj
 .debug_aranges
                0x00001c00       0x40 examples/experimental_lpn/CMakeFiles/lpn_nrf52840_xxAA_s140_6.1.0.dir/__/__/mesh/bearer/src/radio_config.c.obj
 .debug_aranges
                0x00001c40       0xe8 examples/experimental_lpn/CMakeFiles/lpn_nrf52840_xxAA_s140_6.1.0.dir/__/__/mesh/bearer/src/scanner.c.obj
 .debug_aranges
                0x00001d28       0x70 examples/experimental_lpn/CMakeFiles/lpn_nrf52840_xxAA_s140_6.1.0.dir/__/__/mesh/bearer/src/mesh_pa_lna.c.obj
 .debug_aranges
                0x00001d98       0xa8 examples/experimental_lpn/CMakeFiles/lpn_nrf52840_xxAA_s140_6.1.0.dir/__/__/mesh/gatt/src/mesh_gatt.c.obj
 .debug_aranges
                0x00001e40      0x118 examples/experimental_lpn/CMakeFiles/lpn_nrf52840_xxAA_s140_6.1.0.dir/__/__/mesh/gatt/src/proxy.c.obj
 .debug_aranges
                0x00001f58       0x40 examples/experimental_lpn/CMakeFiles/lpn_nrf52840_xxAA_s140_6.1.0.dir/__/__/mesh/gatt/src/proxy_filter.c.obj
 .debug_aranges
                0x00001f98       0x40 examples/experimental_lpn/CMakeFiles/lpn_nrf52840_xxAA_s140_6.1.0.dir/__/__/models/model_spec/generic_onoff/src/generic_onoff_client.c.obj
 .debug_aranges
                0x00001fd8       0x88 examples/experimental_lpn/CMakeFiles/lpn_nrf52840_xxAA_s140_6.1.0.dir/__/__/models/model_spec/common/src/model_common.c.obj
 .debug_aranges
                0x00002060       0x20 examples/experimental_lpn/CMakeFiles/lpn_nrf52840_xxAA_s140_6.1.0.dir/__/__/models/foundation/config/src/composition_data.c.obj
 .debug_aranges
                0x00002080      0x218 examples/experimental_lpn/CMakeFiles/lpn_nrf52840_xxAA_s140_6.1.0.dir/__/__/models/foundation/config/src/config_server.c.obj
 .debug_aranges
                0x00002298       0x20 examples/experimental_lpn/CMakeFiles/lpn_nrf52840_xxAA_s140_6.1.0.dir/__/__/models/foundation/config/src/packed_index_list.c.obj
 .debug_aranges
                0x000022b8       0xc0 examples/experimental_lpn/CMakeFiles/lpn_nrf52840_xxAA_s140_6.1.0.dir/__/__/models/foundation/health/src/health_server.c.obj
 .debug_aranges
                0x00002378       0x50 examples/experimental_lpn/CMakeFiles/lpn_nrf52840_xxAA_s140_6.1.0.dir/__/__/mesh/access/src/access_publish.c.obj
 .debug_aranges
                0x000023c8      0x1f8 examples/experimental_lpn/CMakeFiles/lpn_nrf52840_xxAA_s140_6.1.0.dir/__/__/mesh/access/src/access.c.obj
 .debug_aranges
                0x000025c0       0x58 examples/experimental_lpn/CMakeFiles/lpn_nrf52840_xxAA_s140_6.1.0.dir/__/__/mesh/access/src/access_reliable.c.obj
 .debug_aranges
                0x00002618       0x38 examples/experimental_lpn/CMakeFiles/lpn_nrf52840_xxAA_s140_6.1.0.dir/__/__/mesh/access/src/access_loopback.c.obj
 .debug_aranges
                0x00002650      0x368 examples/experimental_lpn/CMakeFiles/lpn_nrf52840_xxAA_s140_6.1.0.dir/__/__/mesh/access/src/device_state_manager.c.obj
 .debug_aranges
                0x000029b8       0xa0 examples/experimental_lpn/CMakeFiles/lpn_nrf52840_xxAA_s140_6.1.0.dir/__/__/external/app_timer/app_timer_mesh.c.obj
 .debug_aranges
                0x00002a58       0x70 examples/experimental_lpn/CMakeFiles/lpn_nrf52840_xxAA_s140_6.1.0.dir/__/__/mesh/prov/src/prov_provisionee.c.obj
 .debug_aranges
                0x00002ac8       0x88 examples/experimental_lpn/CMakeFiles/lpn_nrf52840_xxAA_s140_6.1.0.dir/__/__/mesh/prov/src/nrf_mesh_prov.c.obj
 .debug_aranges
                0x00002b50       0x80 examples/experimental_lpn/CMakeFiles/lpn_nrf52840_xxAA_s140_6.1.0.dir/__/__/mesh/prov/src/provisioning.c.obj
 .debug_aranges
                0x00002bd0       0x38 examples/experimental_lpn/CMakeFiles/lpn_nrf52840_xxAA_s140_6.1.0.dir/__/__/mesh/prov/src/prov_beacon.c.obj
 .debug_aranges
                0x00002c08       0x90 examples/experimental_lpn/CMakeFiles/lpn_nrf52840_xxAA_s140_6.1.0.dir/__/__/mesh/prov/src/prov_utils.c.obj
 .debug_aranges
                0x00002c98       0xc8 examples/experimental_lpn/CMakeFiles/lpn_nrf52840_xxAA_s140_6.1.0.dir/__/__/mesh/prov/src/nrf_mesh_prov_bearer_gatt.c.obj
 .debug_aranges
                0x00002d60       0x30 examples/experimental_lpn/CMakeFiles/lpn_nrf52840_xxAA_s140_6.1.0.dir/C_/mesh/deps/nRF5_SDK_15.2.0_9412b96/modules/nrfx/mdk/system_nrf52840.c.obj
 .debug_aranges
                0x00002d90       0x28 examples/experimental_lpn/CMakeFiles/lpn_nrf52840_xxAA_s140_6.1.0.dir/C_/mesh/deps/nRF5_SDK_15.2.0_9412b96/components/libraries/util/app_error.c.obj
 .debug_aranges
                0x00002db8       0x20 examples/experimental_lpn/CMakeFiles/lpn_nrf52840_xxAA_s140_6.1.0.dir/C_/mesh/deps/nRF5_SDK_15.2.0_9412b96/components/libraries/util/app_error_handler_gcc.c.obj
 .debug_aranges
                0x00002dd8       0xd8 external/rtt/librtt_nrf52840_xxAA.a(SEGGER_RTT.c.obj)
 .debug_aranges
                0x00002eb0       0x38 external/rtt/librtt_nrf52840_xxAA.a(SEGGER_RTT_printf.c.obj)
 .debug_aranges
                0x00002ee8      0x1a8 external/micro-ecc/libuECC_nrf52840_xxAA.a(uECC.c.obj)

.debug_ranges   0x00000000     0x77e8
 .debug_ranges  0x00000000      0x488 examples/experimental_lpn/CMakeFiles/lpn_nrf52840_xxAA_s140_6.1.0.dir/src/main.c.obj
 .debug_ranges  0x00000488       0x80 examples/experimental_lpn/CMakeFiles/lpn_nrf52840_xxAA_s140_6.1.0.dir/__/__/mesh/stack/src/mesh_stack.c.obj
 .debug_ranges  0x00000508       0x68 examples/experimental_lpn/CMakeFiles/lpn_nrf52840_xxAA_s140_6.1.0.dir/__/common/src/mesh_provisionee.c.obj
 .debug_ranges  0x00000570       0x50 examples/experimental_lpn/CMakeFiles/lpn_nrf52840_xxAA_s140_6.1.0.dir/__/common/src/rtt_input.c.obj
 .debug_ranges  0x000005c0       0xa0 examples/experimental_lpn/CMakeFiles/lpn_nrf52840_xxAA_s140_6.1.0.dir/__/common/src/simple_hal.c.obj
 .debug_ranges  0x00000660       0x10 examples/experimental_lpn/CMakeFiles/lpn_nrf52840_xxAA_s140_6.1.0.dir/__/common/src/mesh_app_utils.c.obj
 .debug_ranges  0x00000670       0x70 examples/experimental_lpn/CMakeFiles/lpn_nrf52840_xxAA_s140_6.1.0.dir/__/common/src/mesh_adv.c.obj
 .debug_ranges  0x000006e0       0x98 examples/experimental_lpn/CMakeFiles/lpn_nrf52840_xxAA_s140_6.1.0.dir/__/common/src/ble_softdevice_support.c.obj
 .debug_ranges  0x00000778       0x38 examples/experimental_lpn/CMakeFiles/lpn_nrf52840_xxAA_s140_6.1.0.dir/C_/mesh/deps/nRF5_SDK_15.2.0_9412b96/components/libraries/util/app_util_platform.c.obj
 .debug_ranges  0x000007b0      0x1b8 examples/experimental_lpn/CMakeFiles/lpn_nrf52840_xxAA_s140_6.1.0.dir/C_/mesh/deps/nRF5_SDK_15.2.0_9412b96/components/ble/common/ble_advdata.c.obj
 .debug_ranges  0x00000968       0x18 examples/experimental_lpn/CMakeFiles/lpn_nrf52840_xxAA_s140_6.1.0.dir/C_/mesh/deps/nRF5_SDK_15.2.0_9412b96/components/libraries/experimental_section_vars/nrf_section_iter.c.obj
 .debug_ranges  0x00000980       0x18 examples/experimental_lpn/CMakeFiles/lpn_nrf52840_xxAA_s140_6.1.0.dir/C_/mesh/deps/nRF5_SDK_15.2.0_9412b96/components/softdevice/common/nrf_sdh_soc.c.obj
 .debug_ranges  0x00000998       0x58 examples/experimental_lpn/CMakeFiles/lpn_nrf52840_xxAA_s140_6.1.0.dir/C_/mesh/deps/nRF5_SDK_15.2.0_9412b96/components/softdevice/common/nrf_sdh_ble.c.obj
 .debug_ranges  0x000009f0       0xb0 examples/experimental_lpn/CMakeFiles/lpn_nrf52840_xxAA_s140_6.1.0.dir/C_/mesh/deps/nRF5_SDK_15.2.0_9412b96/components/softdevice/common/nrf_sdh.c.obj
 .debug_ranges  0x00000aa0      0x138 examples/experimental_lpn/CMakeFiles/lpn_nrf52840_xxAA_s140_6.1.0.dir/C_/mesh/deps/nRF5_SDK_15.2.0_9412b96/components/ble/common/ble_conn_params.c.obj
 .debug_ranges  0x00000bd8       0x50 examples/experimental_lpn/CMakeFiles/lpn_nrf52840_xxAA_s140_6.1.0.dir/C_/mesh/deps/nRF5_SDK_15.2.0_9412b96/components/ble/common/ble_srv_common.c.obj
 .debug_ranges  0x00000c28       0x18 examples/experimental_lpn/CMakeFiles/lpn_nrf52840_xxAA_s140_6.1.0.dir/__/nrf_mesh_weak.c.obj
 .debug_ranges  0x00000c40       0xb8 examples/experimental_lpn/CMakeFiles/lpn_nrf52840_xxAA_s140_6.1.0.dir/__/common/src/app_error_weak.c.obj
 .debug_ranges  0x00000cf8       0x10 examples/experimental_lpn/CMakeFiles/lpn_nrf52840_xxAA_s140_6.1.0.dir/__/common/src/assertion_handler_weak.c.obj
 .debug_ranges  0x00000d08       0x20 examples/experimental_lpn/CMakeFiles/lpn_nrf52840_xxAA_s140_6.1.0.dir/__/__/mesh/core/src/nrf_mesh_configure.c.obj
 .debug_ranges  0x00000d28       0x48 examples/experimental_lpn/CMakeFiles/lpn_nrf52840_xxAA_s140_6.1.0.dir/__/__/mesh/core/src/msg_cache.c.obj
 .debug_ranges  0x00000d70      0x5f8 examples/experimental_lpn/CMakeFiles/lpn_nrf52840_xxAA_s140_6.1.0.dir/__/__/mesh/core/src/transport.c.obj
 .debug_ranges  0x00001368       0x50 examples/experimental_lpn/CMakeFiles/lpn_nrf52840_xxAA_s140_6.1.0.dir/__/__/mesh/core/src/event.c.obj
 .debug_ranges  0x000013b8       0x88 examples/experimental_lpn/CMakeFiles/lpn_nrf52840_xxAA_s140_6.1.0.dir/__/__/mesh/core/src/packet_buffer.c.obj
 .debug_ranges  0x00001440      0x218 examples/experimental_lpn/CMakeFiles/lpn_nrf52840_xxAA_s140_6.1.0.dir/__/__/mesh/core/src/flash_manager_defrag.c.obj
 .debug_ranges  0x00001658       0x68 examples/experimental_lpn/CMakeFiles/lpn_nrf52840_xxAA_s140_6.1.0.dir/__/__/mesh/core/src/fifo.c.obj
 .debug_ranges  0x000016c0       0x38 examples/experimental_lpn/CMakeFiles/lpn_nrf52840_xxAA_s140_6.1.0.dir/__/__/mesh/core/src/nrf_flash.c.obj
 .debug_ranges  0x000016f8      0x190 examples/experimental_lpn/CMakeFiles/lpn_nrf52840_xxAA_s140_6.1.0.dir/__/__/mesh/core/src/net_state.c.obj
 .debug_ranges  0x00001888      0x1d0 examples/experimental_lpn/CMakeFiles/lpn_nrf52840_xxAA_s140_6.1.0.dir/__/__/mesh/core/src/mesh_flash.c.obj
 .debug_ranges  0x00001a58       0x20 examples/experimental_lpn/CMakeFiles/lpn_nrf52840_xxAA_s140_6.1.0.dir/__/__/mesh/core/src/nrf_mesh_utils.c.obj
 .debug_ranges  0x00001a78       0xe8 examples/experimental_lpn/CMakeFiles/lpn_nrf52840_xxAA_s140_6.1.0.dir/__/__/mesh/core/src/nrf_mesh.c.obj
 .debug_ranges  0x00001b60       0x28 examples/experimental_lpn/CMakeFiles/lpn_nrf52840_xxAA_s140_6.1.0.dir/__/__/mesh/core/src/queue.c.obj
 .debug_ranges  0x00001b88       0x30 examples/experimental_lpn/CMakeFiles/lpn_nrf52840_xxAA_s140_6.1.0.dir/__/__/mesh/core/src/hal.c.obj
 .debug_ranges  0x00001bb8      0x120 examples/experimental_lpn/CMakeFiles/lpn_nrf52840_xxAA_s140_6.1.0.dir/__/__/mesh/core/src/aes_cmac.c.obj
 .debug_ranges  0x00001cd8       0xa8 examples/experimental_lpn/CMakeFiles/lpn_nrf52840_xxAA_s140_6.1.0.dir/__/__/mesh/core/src/timer_scheduler.c.obj
 .debug_ranges  0x00001d80       0x50 examples/experimental_lpn/CMakeFiles/lpn_nrf52840_xxAA_s140_6.1.0.dir/__/__/mesh/core/src/timer.c.obj
 .debug_ranges  0x00001dd0       0x30 examples/experimental_lpn/CMakeFiles/lpn_nrf52840_xxAA_s140_6.1.0.dir/__/__/mesh/core/src/rand.c.obj
 .debug_ranges  0x00001e00       0x10 examples/experimental_lpn/CMakeFiles/lpn_nrf52840_xxAA_s140_6.1.0.dir/__/__/mesh/core/src/mesh_opt.c.obj
 .debug_ranges  0x00001e10      0x158 examples/experimental_lpn/CMakeFiles/lpn_nrf52840_xxAA_s140_6.1.0.dir/__/__/mesh/core/src/timeslot.c.obj
 .debug_ranges  0x00001f68       0xa0 examples/experimental_lpn/CMakeFiles/lpn_nrf52840_xxAA_s140_6.1.0.dir/__/__/mesh/core/src/timeslot_timer.c.obj
 .debug_ranges  0x00002008      0x1d8 examples/experimental_lpn/CMakeFiles/lpn_nrf52840_xxAA_s140_6.1.0.dir/__/__/mesh/core/src/bearer_event.c.obj
 .debug_ranges  0x000021e0       0xd0 examples/experimental_lpn/CMakeFiles/lpn_nrf52840_xxAA_s140_6.1.0.dir/__/__/mesh/core/src/enc.c.obj
 .debug_ranges  0x000022b0      0x148 examples/experimental_lpn/CMakeFiles/lpn_nrf52840_xxAA_s140_6.1.0.dir/__/__/mesh/core/src/network.c.obj
 .debug_ranges  0x000023f8      0x148 examples/experimental_lpn/CMakeFiles/lpn_nrf52840_xxAA_s140_6.1.0.dir/__/__/mesh/core/src/net_packet.c.obj
 .debug_ranges  0x00002540       0x50 examples/experimental_lpn/CMakeFiles/lpn_nrf52840_xxAA_s140_6.1.0.dir/__/__/mesh/core/src/msqueue.c.obj
 .debug_ranges  0x00002590       0x38 examples/experimental_lpn/CMakeFiles/lpn_nrf52840_xxAA_s140_6.1.0.dir/__/__/mesh/core/src/nrf_mesh_keygen.c.obj
 .debug_ranges  0x000025c8       0x80 examples/experimental_lpn/CMakeFiles/lpn_nrf52840_xxAA_s140_6.1.0.dir/__/__/mesh/core/src/cache.c.obj
 .debug_ranges  0x00002648       0x78 examples/experimental_lpn/CMakeFiles/lpn_nrf52840_xxAA_s140_6.1.0.dir/__/__/mesh/core/src/list.c.obj
 .debug_ranges  0x000026c0       0x38 examples/experimental_lpn/CMakeFiles/lpn_nrf52840_xxAA_s140_6.1.0.dir/__/__/mesh/core/src/log.c.obj
 .debug_ranges  0x000026f8      0x418 examples/experimental_lpn/CMakeFiles/lpn_nrf52840_xxAA_s140_6.1.0.dir/__/__/mesh/core/src/flash_manager.c.obj
 .debug_ranges  0x00002b10       0xa0 examples/experimental_lpn/CMakeFiles/lpn_nrf52840_xxAA_s140_6.1.0.dir/__/__/mesh/core/src/ccm_soft.c.obj
 .debug_ranges  0x00002bb0       0x30 examples/experimental_lpn/CMakeFiles/lpn_nrf52840_xxAA_s140_6.1.0.dir/__/__/mesh/core/src/replay_cache.c.obj
 .debug_ranges  0x00002be0       0xa8 examples/experimental_lpn/CMakeFiles/lpn_nrf52840_xxAA_s140_6.1.0.dir/__/__/mesh/core/src/beacon.c.obj
 .debug_ranges  0x00002c88       0x10 examples/experimental_lpn/CMakeFiles/lpn_nrf52840_xxAA_s140_6.1.0.dir/__/__/mesh/core/src/flash_manager_internal.c.obj
 .debug_ranges  0x00002c98      0x110 examples/experimental_lpn/CMakeFiles/lpn_nrf52840_xxAA_s140_6.1.0.dir/__/__/mesh/core/src/core_tx.c.obj
 .debug_ranges  0x00002da8      0x138 examples/experimental_lpn/CMakeFiles/lpn_nrf52840_xxAA_s140_6.1.0.dir/__/__/mesh/core/src/heartbeat.c.obj
 .debug_ranges  0x00002ee0      0x188 examples/experimental_lpn/CMakeFiles/lpn_nrf52840_xxAA_s140_6.1.0.dir/__/__/mesh/core/src/net_beacon.c.obj
 .debug_ranges  0x00003068      0x208 examples/experimental_lpn/CMakeFiles/lpn_nrf52840_xxAA_s140_6.1.0.dir/__/__/mesh/core/src/mesh_config.c.obj
 .debug_ranges  0x00003270       0x40 examples/experimental_lpn/CMakeFiles/lpn_nrf52840_xxAA_s140_6.1.0.dir/__/__/mesh/core/src/fsm.c.obj
 .debug_ranges  0x000032b0       0xe8 examples/experimental_lpn/CMakeFiles/lpn_nrf52840_xxAA_s140_6.1.0.dir/__/__/mesh/core/src/mesh_config_backend.c.obj
 .debug_ranges  0x00003398       0x78 examples/experimental_lpn/CMakeFiles/lpn_nrf52840_xxAA_s140_6.1.0.dir/__/__/mesh/core/src/mesh_config_flashman_glue.c.obj
 .debug_ranges  0x00003410      0x220 examples/experimental_lpn/CMakeFiles/lpn_nrf52840_xxAA_s140_6.1.0.dir/__/__/mesh/core/src/lpn.c.obj
 .debug_ranges  0x00003630       0x68 examples/experimental_lpn/CMakeFiles/lpn_nrf52840_xxAA_s140_6.1.0.dir/__/__/mesh/core/src/core_tx_lpn.c.obj
 .debug_ranges  0x00003698      0x158 examples/experimental_lpn/CMakeFiles/lpn_nrf52840_xxAA_s140_6.1.0.dir/__/__/mesh/core/src/mesh_lpn_subman.c.obj
 .debug_ranges  0x000037f0      0x190 examples/experimental_lpn/CMakeFiles/lpn_nrf52840_xxAA_s140_6.1.0.dir/__/__/mesh/core/src/core_tx_adv.c.obj
 .debug_ranges  0x00003980       0x28 examples/experimental_lpn/CMakeFiles/lpn_nrf52840_xxAA_s140_6.1.0.dir/__/__/mesh/core/src/mesh_mem_stdlib.c.obj
 .debug_ranges  0x000039a8      0x110 examples/experimental_lpn/CMakeFiles/lpn_nrf52840_xxAA_s140_6.1.0.dir/__/__/mesh/bearer/src/ad_listener.c.obj
 .debug_ranges  0x00003ab8       0xd0 examples/experimental_lpn/CMakeFiles/lpn_nrf52840_xxAA_s140_6.1.0.dir/__/__/mesh/bearer/src/ad_type_filter.c.obj
 .debug_ranges  0x00003b88      0x218 examples/experimental_lpn/CMakeFiles/lpn_nrf52840_xxAA_s140_6.1.0.dir/__/__/mesh/bearer/src/advertiser.c.obj
 .debug_ranges  0x00003da0      0x180 examples/experimental_lpn/CMakeFiles/lpn_nrf52840_xxAA_s140_6.1.0.dir/__/__/mesh/bearer/src/bearer_handler.c.obj
 .debug_ranges  0x00003f20       0xc0 examples/experimental_lpn/CMakeFiles/lpn_nrf52840_xxAA_s140_6.1.0.dir/__/__/mesh/bearer/src/broadcast.c.obj
 .debug_ranges  0x00003fe0       0x48 examples/experimental_lpn/CMakeFiles/lpn_nrf52840_xxAA_s140_6.1.0.dir/__/__/mesh/bearer/src/filter_engine.c.obj
 .debug_ranges  0x00004028       0x48 examples/experimental_lpn/CMakeFiles/lpn_nrf52840_xxAA_s140_6.1.0.dir/__/__/mesh/bearer/src/radio_config.c.obj
 .debug_ranges  0x00004070      0x1a8 examples/experimental_lpn/CMakeFiles/lpn_nrf52840_xxAA_s140_6.1.0.dir/__/__/mesh/bearer/src/scanner.c.obj
 .debug_ranges  0x00004218       0xb8 examples/experimental_lpn/CMakeFiles/lpn_nrf52840_xxAA_s140_6.1.0.dir/__/__/mesh/bearer/src/mesh_pa_lna.c.obj
 .debug_ranges  0x000042d0      0x1a8 examples/experimental_lpn/CMakeFiles/lpn_nrf52840_xxAA_s140_6.1.0.dir/__/__/mesh/gatt/src/mesh_gatt.c.obj
 .debug_ranges  0x00004478      0x4c0 examples/experimental_lpn/CMakeFiles/lpn_nrf52840_xxAA_s140_6.1.0.dir/__/__/mesh/gatt/src/proxy.c.obj
 .debug_ranges  0x00004938       0x90 examples/experimental_lpn/CMakeFiles/lpn_nrf52840_xxAA_s140_6.1.0.dir/__/__/mesh/gatt/src/proxy_filter.c.obj
 .debug_ranges  0x000049c8      0x140 examples/experimental_lpn/CMakeFiles/lpn_nrf52840_xxAA_s140_6.1.0.dir/__/__/models/model_spec/generic_onoff/src/generic_onoff_client.c.obj
 .debug_ranges  0x00004b08       0x78 examples/experimental_lpn/CMakeFiles/lpn_nrf52840_xxAA_s140_6.1.0.dir/__/__/models/model_spec/common/src/model_common.c.obj
 .debug_ranges  0x00004b80       0xb8 examples/experimental_lpn/CMakeFiles/lpn_nrf52840_xxAA_s140_6.1.0.dir/__/__/models/foundation/config/src/composition_data.c.obj
 .debug_ranges  0x00004c38      0x7f8 examples/experimental_lpn/CMakeFiles/lpn_nrf52840_xxAA_s140_6.1.0.dir/__/__/models/foundation/config/src/config_server.c.obj
 .debug_ranges  0x00005430       0x10 examples/experimental_lpn/CMakeFiles/lpn_nrf52840_xxAA_s140_6.1.0.dir/__/__/models/foundation/config/src/packed_index_list.c.obj
 .debug_ranges  0x00005440      0x248 examples/experimental_lpn/CMakeFiles/lpn_nrf52840_xxAA_s140_6.1.0.dir/__/__/models/foundation/health/src/health_server.c.obj
 .debug_ranges  0x00005688      0x118 examples/experimental_lpn/CMakeFiles/lpn_nrf52840_xxAA_s140_6.1.0.dir/__/__/mesh/access/src/access_publish.c.obj
 .debug_ranges  0x000057a0      0x7f0 examples/experimental_lpn/CMakeFiles/lpn_nrf52840_xxAA_s140_6.1.0.dir/__/__/mesh/access/src/access.c.obj
 .debug_ranges  0x00005f90      0x190 examples/experimental_lpn/CMakeFiles/lpn_nrf52840_xxAA_s140_6.1.0.dir/__/__/mesh/access/src/access_reliable.c.obj
 .debug_ranges  0x00006120       0x28 examples/experimental_lpn/CMakeFiles/lpn_nrf52840_xxAA_s140_6.1.0.dir/__/__/mesh/access/src/access_loopback.c.obj
 .debug_ranges  0x00006148      0x9c0 examples/experimental_lpn/CMakeFiles/lpn_nrf52840_xxAA_s140_6.1.0.dir/__/__/mesh/access/src/device_state_manager.c.obj
 .debug_ranges  0x00006b08      0x330 examples/experimental_lpn/CMakeFiles/lpn_nrf52840_xxAA_s140_6.1.0.dir/__/__/external/app_timer/app_timer_mesh.c.obj
 .debug_ranges  0x00006e38      0x180 examples/experimental_lpn/CMakeFiles/lpn_nrf52840_xxAA_s140_6.1.0.dir/__/__/mesh/prov/src/prov_provisionee.c.obj
 .debug_ranges  0x00006fb8      0x130 examples/experimental_lpn/CMakeFiles/lpn_nrf52840_xxAA_s140_6.1.0.dir/__/__/mesh/prov/src/nrf_mesh_prov.c.obj
 .debug_ranges  0x000070e8       0x70 examples/experimental_lpn/CMakeFiles/lpn_nrf52840_xxAA_s140_6.1.0.dir/__/__/mesh/prov/src/provisioning.c.obj
 .debug_ranges  0x00007158       0x40 examples/experimental_lpn/CMakeFiles/lpn_nrf52840_xxAA_s140_6.1.0.dir/__/__/mesh/prov/src/prov_beacon.c.obj
 .debug_ranges  0x00007198       0xd8 examples/experimental_lpn/CMakeFiles/lpn_nrf52840_xxAA_s140_6.1.0.dir/__/__/mesh/prov/src/prov_utils.c.obj
 .debug_ranges  0x00007270       0xd0 examples/experimental_lpn/CMakeFiles/lpn_nrf52840_xxAA_s140_6.1.0.dir/__/__/mesh/prov/src/nrf_mesh_prov_bearer_gatt.c.obj
 .debug_ranges  0x00007340       0x20 examples/experimental_lpn/CMakeFiles/lpn_nrf52840_xxAA_s140_6.1.0.dir/C_/mesh/deps/nRF5_SDK_15.2.0_9412b96/modules/nrfx/mdk/system_nrf52840.c.obj
 .debug_ranges  0x00007360       0x18 examples/experimental_lpn/CMakeFiles/lpn_nrf52840_xxAA_s140_6.1.0.dir/C_/mesh/deps/nRF5_SDK_15.2.0_9412b96/components/libraries/util/app_error.c.obj
 .debug_ranges  0x00007378       0x10 examples/experimental_lpn/CMakeFiles/lpn_nrf52840_xxAA_s140_6.1.0.dir/C_/mesh/deps/nRF5_SDK_15.2.0_9412b96/components/libraries/util/app_error_handler_gcc.c.obj
 .debug_ranges  0x00007388      0x130 external/rtt/librtt_nrf52840_xxAA.a(SEGGER_RTT.c.obj)
 .debug_ranges  0x000074b8       0x48 external/rtt/librtt_nrf52840_xxAA.a(SEGGER_RTT_printf.c.obj)
 .debug_ranges  0x00007500      0x2e8 external/micro-ecc/libuECC_nrf52840_xxAA.a(uECC.c.obj)

.debug_line     0x00000000    0x21c0b
 .debug_line    0x00000000      0xf0d examples/experimental_lpn/CMakeFiles/lpn_nrf52840_xxAA_s140_6.1.0.dir/src/main.c.obj
 .debug_line    0x00000f0d      0x604 examples/experimental_lpn/CMakeFiles/lpn_nrf52840_xxAA_s140_6.1.0.dir/__/__/mesh/stack/src/mesh_stack.c.obj
 .debug_line    0x00001511      0x656 examples/experimental_lpn/CMakeFiles/lpn_nrf52840_xxAA_s140_6.1.0.dir/__/common/src/mesh_provisionee.c.obj
 .debug_line    0x00001b67      0x3ad examples/experimental_lpn/CMakeFiles/lpn_nrf52840_xxAA_s140_6.1.0.dir/__/common/src/rtt_input.c.obj
 .debug_line    0x00001f14      0x481 examples/experimental_lpn/CMakeFiles/lpn_nrf52840_xxAA_s140_6.1.0.dir/__/common/src/simple_hal.c.obj
 .debug_line    0x00002395      0x220 examples/experimental_lpn/CMakeFiles/lpn_nrf52840_xxAA_s140_6.1.0.dir/__/common/src/mesh_app_utils.c.obj
 .debug_line    0x000025b5      0x402 examples/experimental_lpn/CMakeFiles/lpn_nrf52840_xxAA_s140_6.1.0.dir/__/common/src/mesh_adv.c.obj
 .debug_line    0x000029b7      0x4f9 examples/experimental_lpn/CMakeFiles/lpn_nrf52840_xxAA_s140_6.1.0.dir/__/common/src/ble_softdevice_support.c.obj
 .debug_line    0x00002eb0      0x35a examples/experimental_lpn/CMakeFiles/lpn_nrf52840_xxAA_s140_6.1.0.dir/C_/mesh/deps/nRF5_SDK_15.2.0_9412b96/components/libraries/util/app_util_platform.c.obj
 .debug_line    0x0000320a      0x623 examples/experimental_lpn/CMakeFiles/lpn_nrf52840_xxAA_s140_6.1.0.dir/C_/mesh/deps/nRF5_SDK_15.2.0_9412b96/components/ble/common/ble_advdata.c.obj
 .debug_line    0x0000382d      0x28d examples/experimental_lpn/CMakeFiles/lpn_nrf52840_xxAA_s140_6.1.0.dir/C_/mesh/deps/nRF5_SDK_15.2.0_9412b96/components/libraries/experimental_section_vars/nrf_section_iter.c.obj
 .debug_line    0x00003aba      0x432 examples/experimental_lpn/CMakeFiles/lpn_nrf52840_xxAA_s140_6.1.0.dir/C_/mesh/deps/nRF5_SDK_15.2.0_9412b96/components/softdevice/common/nrf_sdh_soc.c.obj
 .debug_line    0x00003eec      0x553 examples/experimental_lpn/CMakeFiles/lpn_nrf52840_xxAA_s140_6.1.0.dir/C_/mesh/deps/nRF5_SDK_15.2.0_9412b96/components/softdevice/common/nrf_sdh_ble.c.obj
 .debug_line    0x0000443f      0x5d2 examples/experimental_lpn/CMakeFiles/lpn_nrf52840_xxAA_s140_6.1.0.dir/C_/mesh/deps/nRF5_SDK_15.2.0_9412b96/components/softdevice/common/nrf_sdh.c.obj
 .debug_line    0x00004a11      0x5cb examples/experimental_lpn/CMakeFiles/lpn_nrf52840_xxAA_s140_6.1.0.dir/C_/mesh/deps/nRF5_SDK_15.2.0_9412b96/components/ble/common/ble_conn_params.c.obj
 .debug_line    0x00004fdc      0x420 examples/experimental_lpn/CMakeFiles/lpn_nrf52840_xxAA_s140_6.1.0.dir/C_/mesh/deps/nRF5_SDK_15.2.0_9412b96/components/ble/common/ble_srv_common.c.obj
 .debug_line    0x000053fc      0x242 examples/experimental_lpn/CMakeFiles/lpn_nrf52840_xxAA_s140_6.1.0.dir/__/nrf_mesh_weak.c.obj
 .debug_line    0x0000563e      0x494 examples/experimental_lpn/CMakeFiles/lpn_nrf52840_xxAA_s140_6.1.0.dir/__/common/src/app_error_weak.c.obj
 .debug_line    0x00005ad2      0x243 examples/experimental_lpn/CMakeFiles/lpn_nrf52840_xxAA_s140_6.1.0.dir/__/common/src/assertion_handler_weak.c.obj
 .debug_line    0x00005d15      0x235 examples/experimental_lpn/CMakeFiles/lpn_nrf52840_xxAA_s140_6.1.0.dir/__/__/mesh/core/src/nrf_mesh_configure.c.obj
 .debug_line    0x00005f4a      0x2b5 examples/experimental_lpn/CMakeFiles/lpn_nrf52840_xxAA_s140_6.1.0.dir/__/__/mesh/core/src/msg_cache.c.obj
 .debug_line    0x000061ff      0xe53 examples/experimental_lpn/CMakeFiles/lpn_nrf52840_xxAA_s140_6.1.0.dir/__/__/mesh/core/src/transport.c.obj
 .debug_line    0x00007052      0x3c9 examples/experimental_lpn/CMakeFiles/lpn_nrf52840_xxAA_s140_6.1.0.dir/__/__/mesh/core/src/event.c.obj
 .debug_line    0x0000741b      0x56b examples/experimental_lpn/CMakeFiles/lpn_nrf52840_xxAA_s140_6.1.0.dir/__/__/mesh/core/src/packet_buffer.c.obj
 .debug_line    0x00007986      0x721 examples/experimental_lpn/CMakeFiles/lpn_nrf52840_xxAA_s140_6.1.0.dir/__/__/mesh/core/src/flash_manager_defrag.c.obj
 .debug_line    0x000080a7      0x37f examples/experimental_lpn/CMakeFiles/lpn_nrf52840_xxAA_s140_6.1.0.dir/__/__/mesh/core/src/fifo.c.obj
 .debug_line    0x00008426      0x293 examples/experimental_lpn/CMakeFiles/lpn_nrf52840_xxAA_s140_6.1.0.dir/__/__/mesh/core/src/nrf_flash.c.obj
 .debug_line    0x000086b9      0x757 examples/experimental_lpn/CMakeFiles/lpn_nrf52840_xxAA_s140_6.1.0.dir/__/__/mesh/core/src/net_state.c.obj
 .debug_line    0x00008e10      0x59f examples/experimental_lpn/CMakeFiles/lpn_nrf52840_xxAA_s140_6.1.0.dir/__/__/mesh/core/src/mesh_flash.c.obj
 .debug_line    0x000093af      0x2a9 examples/experimental_lpn/CMakeFiles/lpn_nrf52840_xxAA_s140_6.1.0.dir/__/__/mesh/core/src/nrf_mesh_utils.c.obj
 .debug_line    0x00009658      0x836 examples/experimental_lpn/CMakeFiles/lpn_nrf52840_xxAA_s140_6.1.0.dir/__/__/mesh/core/src/nrf_mesh.c.obj
 .debug_line    0x00009e8e      0x2e1 examples/experimental_lpn/CMakeFiles/lpn_nrf52840_xxAA_s140_6.1.0.dir/__/__/mesh/core/src/queue.c.obj
 .debug_line    0x0000a16f      0x24b examples/experimental_lpn/CMakeFiles/lpn_nrf52840_xxAA_s140_6.1.0.dir/__/__/mesh/core/src/hal.c.obj
 .debug_line    0x0000a3ba      0x36f examples/experimental_lpn/CMakeFiles/lpn_nrf52840_xxAA_s140_6.1.0.dir/__/__/mesh/core/src/aes_cmac.c.obj
 .debug_line    0x0000a729      0x3cd examples/experimental_lpn/CMakeFiles/lpn_nrf52840_xxAA_s140_6.1.0.dir/__/__/mesh/core/src/timer_scheduler.c.obj
 .debug_line    0x0000aaf6      0x3ac examples/experimental_lpn/CMakeFiles/lpn_nrf52840_xxAA_s140_6.1.0.dir/__/__/mesh/core/src/timer.c.obj
 .debug_line    0x0000aea2      0x281 examples/experimental_lpn/CMakeFiles/lpn_nrf52840_xxAA_s140_6.1.0.dir/__/__/mesh/core/src/rand.c.obj
 .debug_line    0x0000b123      0x2db examples/experimental_lpn/CMakeFiles/lpn_nrf52840_xxAA_s140_6.1.0.dir/__/__/mesh/core/src/mesh_opt.c.obj
 .debug_line    0x0000b3fe      0x668 examples/experimental_lpn/CMakeFiles/lpn_nrf52840_xxAA_s140_6.1.0.dir/__/__/mesh/core/src/timeslot.c.obj
 .debug_line    0x0000ba66      0x361 examples/experimental_lpn/CMakeFiles/lpn_nrf52840_xxAA_s140_6.1.0.dir/__/__/mesh/core/src/timeslot_timer.c.obj
 .debug_line    0x0000bdc7      0x64b examples/experimental_lpn/CMakeFiles/lpn_nrf52840_xxAA_s140_6.1.0.dir/__/__/mesh/core/src/bearer_event.c.obj
 .debug_line    0x0000c412      0x4f1 examples/experimental_lpn/CMakeFiles/lpn_nrf52840_xxAA_s140_6.1.0.dir/__/__/mesh/core/src/enc.c.obj
 .debug_line    0x0000c903      0x62a examples/experimental_lpn/CMakeFiles/lpn_nrf52840_xxAA_s140_6.1.0.dir/__/__/mesh/core/src/network.c.obj
 .debug_line    0x0000cf2d      0x618 examples/experimental_lpn/CMakeFiles/lpn_nrf52840_xxAA_s140_6.1.0.dir/__/__/mesh/core/src/net_packet.c.obj
 .debug_line    0x0000d545      0x350 examples/experimental_lpn/CMakeFiles/lpn_nrf52840_xxAA_s140_6.1.0.dir/__/__/mesh/core/src/msqueue.c.obj
 .debug_line    0x0000d895      0x32c examples/experimental_lpn/CMakeFiles/lpn_nrf52840_xxAA_s140_6.1.0.dir/__/__/mesh/core/src/nrf_mesh_keygen.c.obj
 .debug_line    0x0000dbc1      0x21e examples/experimental_lpn/CMakeFiles/lpn_nrf52840_xxAA_s140_6.1.0.dir/__/__/mesh/core/src/cache.c.obj
 .debug_line    0x0000dddf      0x2e3 examples/experimental_lpn/CMakeFiles/lpn_nrf52840_xxAA_s140_6.1.0.dir/__/__/mesh/core/src/list.c.obj
 .debug_line    0x0000e0c2      0x288 examples/experimental_lpn/CMakeFiles/lpn_nrf52840_xxAA_s140_6.1.0.dir/__/__/mesh/core/src/log.c.obj
 .debug_line    0x0000e34a      0xa3a examples/experimental_lpn/CMakeFiles/lpn_nrf52840_xxAA_s140_6.1.0.dir/__/__/mesh/core/src/flash_manager.c.obj
 .debug_line    0x0000ed84      0x40d examples/experimental_lpn/CMakeFiles/lpn_nrf52840_xxAA_s140_6.1.0.dir/__/__/mesh/core/src/ccm_soft.c.obj
 .debug_line    0x0000f191      0x1cd examples/experimental_lpn/CMakeFiles/lpn_nrf52840_xxAA_s140_6.1.0.dir/__/__/mesh/core/src/replay_cache.c.obj
 .debug_line    0x0000f35e      0x4fc examples/experimental_lpn/CMakeFiles/lpn_nrf52840_xxAA_s140_6.1.0.dir/__/__/mesh/core/src/beacon.c.obj
 .debug_line    0x0000f85a      0x2c9 examples/experimental_lpn/CMakeFiles/lpn_nrf52840_xxAA_s140_6.1.0.dir/__/__/mesh/core/src/flash_manager_internal.c.obj
 .debug_line    0x0000fb23      0x3fe examples/experimental_lpn/CMakeFiles/lpn_nrf52840_xxAA_s140_6.1.0.dir/__/__/mesh/core/src/core_tx.c.obj
 .debug_line    0x0000ff21      0x70e examples/experimental_lpn/CMakeFiles/lpn_nrf52840_xxAA_s140_6.1.0.dir/__/__/mesh/core/src/heartbeat.c.obj
 .debug_line    0x0001062f      0x71c examples/experimental_lpn/CMakeFiles/lpn_nrf52840_xxAA_s140_6.1.0.dir/__/__/mesh/core/src/net_beacon.c.obj
 .debug_line    0x00010d4b      0x658 examples/experimental_lpn/CMakeFiles/lpn_nrf52840_xxAA_s140_6.1.0.dir/__/__/mesh/core/src/mesh_config.c.obj
 .debug_line    0x000113a3      0x2c0 examples/experimental_lpn/CMakeFiles/lpn_nrf52840_xxAA_s140_6.1.0.dir/__/__/mesh/core/src/fsm.c.obj
 .debug_line    0x00011663      0x4d2 examples/experimental_lpn/CMakeFiles/lpn_nrf52840_xxAA_s140_6.1.0.dir/__/__/mesh/core/src/mesh_config_backend.c.obj
 .debug_line    0x00011b35      0x563 examples/experimental_lpn/CMakeFiles/lpn_nrf52840_xxAA_s140_6.1.0.dir/__/__/mesh/core/src/mesh_config_flashman_glue.c.obj
 .debug_line    0x00012098      0xa3e examples/experimental_lpn/CMakeFiles/lpn_nrf52840_xxAA_s140_6.1.0.dir/__/__/mesh/core/src/lpn.c.obj
 .debug_line    0x00012ad6      0x482 examples/experimental_lpn/CMakeFiles/lpn_nrf52840_xxAA_s140_6.1.0.dir/__/__/mesh/core/src/core_tx_lpn.c.obj
 .debug_line    0x00012f58      0x57f examples/experimental_lpn/CMakeFiles/lpn_nrf52840_xxAA_s140_6.1.0.dir/__/__/mesh/core/src/mesh_lpn_subman.c.obj
 .debug_line    0x000134d7      0x69d examples/experimental_lpn/CMakeFiles/lpn_nrf52840_xxAA_s140_6.1.0.dir/__/__/mesh/core/src/core_tx_adv.c.obj
 .debug_line    0x00013b74      0x13f examples/experimental_lpn/CMakeFiles/lpn_nrf52840_xxAA_s140_6.1.0.dir/__/__/mesh/core/src/mesh_mem_stdlib.c.obj
 .debug_line    0x00013cb3      0x39e examples/experimental_lpn/CMakeFiles/lpn_nrf52840_xxAA_s140_6.1.0.dir/__/__/mesh/bearer/src/ad_listener.c.obj
 .debug_line    0x00014051      0x44f examples/experimental_lpn/CMakeFiles/lpn_nrf52840_xxAA_s140_6.1.0.dir/__/__/mesh/bearer/src/ad_type_filter.c.obj
 .debug_line    0x000144a0      0x757 examples/experimental_lpn/CMakeFiles/lpn_nrf52840_xxAA_s140_6.1.0.dir/__/__/mesh/bearer/src/advertiser.c.obj
 .debug_line    0x00014bf7      0x655 examples/experimental_lpn/CMakeFiles/lpn_nrf52840_xxAA_s140_6.1.0.dir/__/__/mesh/bearer/src/bearer_handler.c.obj
 .debug_line    0x0001524c      0x3e2 examples/experimental_lpn/CMakeFiles/lpn_nrf52840_xxAA_s140_6.1.0.dir/__/__/mesh/bearer/src/broadcast.c.obj
 .debug_line    0x0001562e      0x38d examples/experimental_lpn/CMakeFiles/lpn_nrf52840_xxAA_s140_6.1.0.dir/__/__/mesh/bearer/src/filter_engine.c.obj
 .debug_line    0x000159bb      0x29d examples/experimental_lpn/CMakeFiles/lpn_nrf52840_xxAA_s140_6.1.0.dir/__/__/mesh/bearer/src/radio_config.c.obj
 .debug_line    0x00015c58      0x751 examples/experimental_lpn/CMakeFiles/lpn_nrf52840_xxAA_s140_6.1.0.dir/__/__/mesh/bearer/src/scanner.c.obj
 .debug_line    0x000163a9      0x332 examples/experimental_lpn/CMakeFiles/lpn_nrf52840_xxAA_s140_6.1.0.dir/__/__/mesh/bearer/src/mesh_pa_lna.c.obj
 .debug_line    0x000166db      0x7e4 examples/experimental_lpn/CMakeFiles/lpn_nrf52840_xxAA_s140_6.1.0.dir/__/__/mesh/gatt/src/mesh_gatt.c.obj
 .debug_line    0x00016ebf      0xbd7 examples/experimental_lpn/CMakeFiles/lpn_nrf52840_xxAA_s140_6.1.0.dir/__/__/mesh/gatt/src/proxy.c.obj
 .debug_line    0x00017a96      0x280 examples/experimental_lpn/CMakeFiles/lpn_nrf52840_xxAA_s140_6.1.0.dir/__/__/mesh/gatt/src/proxy_filter.c.obj
 .debug_line    0x00017d16      0x53e examples/experimental_lpn/CMakeFiles/lpn_nrf52840_xxAA_s140_6.1.0.dir/__/__/models/model_spec/generic_onoff/src/generic_onoff_client.c.obj
 .debug_line    0x00018254      0x539 examples/experimental_lpn/CMakeFiles/lpn_nrf52840_xxAA_s140_6.1.0.dir/__/__/models/model_spec/common/src/model_common.c.obj
 .debug_line    0x0001878d      0x332 examples/experimental_lpn/CMakeFiles/lpn_nrf52840_xxAA_s140_6.1.0.dir/__/__/models/foundation/config/src/composition_data.c.obj
 .debug_line    0x00018abf     0x1500 examples/experimental_lpn/CMakeFiles/lpn_nrf52840_xxAA_s140_6.1.0.dir/__/__/models/foundation/config/src/config_server.c.obj
 .debug_line    0x00019fbf       0xfa examples/experimental_lpn/CMakeFiles/lpn_nrf52840_xxAA_s140_6.1.0.dir/__/__/models/foundation/config/src/packed_index_list.c.obj
 .debug_line    0x0001a0b9      0x69f examples/experimental_lpn/CMakeFiles/lpn_nrf52840_xxAA_s140_6.1.0.dir/__/__/models/foundation/health/src/health_server.c.obj
 .debug_line    0x0001a758      0x46e examples/experimental_lpn/CMakeFiles/lpn_nrf52840_xxAA_s140_6.1.0.dir/__/__/mesh/access/src/access_publish.c.obj
 .debug_line    0x0001abc6     0x105a examples/experimental_lpn/CMakeFiles/lpn_nrf52840_xxAA_s140_6.1.0.dir/__/__/mesh/access/src/access.c.obj
 .debug_line    0x0001bc20      0x602 examples/experimental_lpn/CMakeFiles/lpn_nrf52840_xxAA_s140_6.1.0.dir/__/__/mesh/access/src/access_reliable.c.obj
 .debug_line    0x0001c222      0x3d6 examples/experimental_lpn/CMakeFiles/lpn_nrf52840_xxAA_s140_6.1.0.dir/__/__/mesh/access/src/access_loopback.c.obj
 .debug_line    0x0001c5f8     0x167e examples/experimental_lpn/CMakeFiles/lpn_nrf52840_xxAA_s140_6.1.0.dir/__/__/mesh/access/src/device_state_manager.c.obj
 .debug_line    0x0001dc76      0x719 examples/experimental_lpn/CMakeFiles/lpn_nrf52840_xxAA_s140_6.1.0.dir/__/__/external/app_timer/app_timer_mesh.c.obj
 .debug_line    0x0001e38f      0x6c9 examples/experimental_lpn/CMakeFiles/lpn_nrf52840_xxAA_s140_6.1.0.dir/__/__/mesh/prov/src/prov_provisionee.c.obj
 .debug_line    0x0001ea58      0x5c1 examples/experimental_lpn/CMakeFiles/lpn_nrf52840_xxAA_s140_6.1.0.dir/__/__/mesh/prov/src/nrf_mesh_prov.c.obj
 .debug_line    0x0001f019      0x40e examples/experimental_lpn/CMakeFiles/lpn_nrf52840_xxAA_s140_6.1.0.dir/__/__/mesh/prov/src/provisioning.c.obj
 .debug_line    0x0001f427      0x4d6 examples/experimental_lpn/CMakeFiles/lpn_nrf52840_xxAA_s140_6.1.0.dir/__/__/mesh/prov/src/prov_beacon.c.obj
 .debug_line    0x0001f8fd      0x572 examples/experimental_lpn/CMakeFiles/lpn_nrf52840_xxAA_s140_6.1.0.dir/__/__/mesh/prov/src/prov_utils.c.obj
 .debug_line    0x0001fe6f      0x5a2 examples/experimental_lpn/CMakeFiles/lpn_nrf52840_xxAA_s140_6.1.0.dir/__/__/mesh/prov/src/nrf_mesh_prov_bearer_gatt.c.obj
 .debug_line    0x00020411      0x20f examples/experimental_lpn/CMakeFiles/lpn_nrf52840_xxAA_s140_6.1.0.dir/C_/mesh/deps/nRF5_SDK_15.2.0_9412b96/modules/nrfx/mdk/system_nrf52840.c.obj
 .debug_line    0x00020620      0x27b examples/experimental_lpn/CMakeFiles/lpn_nrf52840_xxAA_s140_6.1.0.dir/C_/mesh/deps/nRF5_SDK_15.2.0_9412b96/components/libraries/util/app_error.c.obj
 .debug_line    0x0002089b      0x220 examples/experimental_lpn/CMakeFiles/lpn_nrf52840_xxAA_s140_6.1.0.dir/C_/mesh/deps/nRF5_SDK_15.2.0_9412b96/components/libraries/util/app_error_handler_gcc.c.obj
 .debug_line    0x00020abb      0x4c3 external/rtt/librtt_nrf52840_xxAA.a(SEGGER_RTT.c.obj)
 .debug_line    0x00020f7e      0x285 external/rtt/librtt_nrf52840_xxAA.a(SEGGER_RTT_printf.c.obj)
 .debug_line    0x00021203      0xa08 external/micro-ecc/libuECC_nrf52840_xxAA.a(uECC.c.obj)

.debug_str      0x00000000    0x1bed8
 .debug_str     0x00000000     0x3901 examples/experimental_lpn/CMakeFiles/lpn_nrf52840_xxAA_s140_6.1.0.dir/src/main.c.obj
                               0x3e92 (size before relaxing)
 .debug_str     0x00003901      0x361 examples/experimental_lpn/CMakeFiles/lpn_nrf52840_xxAA_s140_6.1.0.dir/__/__/mesh/stack/src/mesh_stack.c.obj
                               0x2e62 (size before relaxing)
 .debug_str     0x00003c62     0x1769 examples/experimental_lpn/CMakeFiles/lpn_nrf52840_xxAA_s140_6.1.0.dir/__/common/src/mesh_provisionee.c.obj
                               0x37d9 (size before relaxing)
 .debug_str     0x000053cb      0x12d examples/experimental_lpn/CMakeFiles/lpn_nrf52840_xxAA_s140_6.1.0.dir/__/common/src/rtt_input.c.obj
                                0x877 (size before relaxing)
 .debug_str     0x000054f8      0x578 examples/experimental_lpn/CMakeFiles/lpn_nrf52840_xxAA_s140_6.1.0.dir/__/common/src/simple_hal.c.obj
                                0xe06 (size before relaxing)
 .debug_str     0x00005a70      0x189 examples/experimental_lpn/CMakeFiles/lpn_nrf52840_xxAA_s140_6.1.0.dir/__/common/src/mesh_app_utils.c.obj
                                0x7c5 (size before relaxing)
 .debug_str     0x00005bf9      0x9d5 examples/experimental_lpn/CMakeFiles/lpn_nrf52840_xxAA_s140_6.1.0.dir/__/common/src/mesh_adv.c.obj
                               0x10f0 (size before relaxing)
 .debug_str     0x000065ce      0x309 examples/experimental_lpn/CMakeFiles/lpn_nrf52840_xxAA_s140_6.1.0.dir/__/common/src/ble_softdevice_support.c.obj
                                0xfa2 (size before relaxing)
 .debug_str     0x000068d7      0x2b9 examples/experimental_lpn/CMakeFiles/lpn_nrf52840_xxAA_s140_6.1.0.dir/C_/mesh/deps/nRF5_SDK_15.2.0_9412b96/components/libraries/util/app_util_platform.c.obj
                                0xca2 (size before relaxing)
 .debug_str     0x00006b90      0x4eb examples/experimental_lpn/CMakeFiles/lpn_nrf52840_xxAA_s140_6.1.0.dir/C_/mesh/deps/nRF5_SDK_15.2.0_9412b96/components/ble/common/ble_advdata.c.obj
                               0x130e (size before relaxing)
 .debug_str     0x0000707b       0xe6 examples/experimental_lpn/CMakeFiles/lpn_nrf52840_xxAA_s140_6.1.0.dir/C_/mesh/deps/nRF5_SDK_15.2.0_9412b96/components/libraries/experimental_section_vars/nrf_section_iter.c.obj
                                0x6fb (size before relaxing)
 .debug_str     0x00007161      0x339 examples/experimental_lpn/CMakeFiles/lpn_nrf52840_xxAA_s140_6.1.0.dir/C_/mesh/deps/nRF5_SDK_15.2.0_9412b96/components/softdevice/common/nrf_sdh_soc.c.obj
                                0xf0b (size before relaxing)
 .debug_str     0x0000749a     0x1484 examples/experimental_lpn/CMakeFiles/lpn_nrf52840_xxAA_s140_6.1.0.dir/C_/mesh/deps/nRF5_SDK_15.2.0_9412b96/components/softdevice/common/nrf_sdh_ble.c.obj
                               0x21b2 (size before relaxing)
 .debug_str     0x0000891e      0x454 examples/experimental_lpn/CMakeFiles/lpn_nrf52840_xxAA_s140_6.1.0.dir/C_/mesh/deps/nRF5_SDK_15.2.0_9412b96/components/softdevice/common/nrf_sdh.c.obj
                               0x1350 (size before relaxing)
 .debug_str     0x00008d72      0x68b examples/experimental_lpn/CMakeFiles/lpn_nrf52840_xxAA_s140_6.1.0.dir/C_/mesh/deps/nRF5_SDK_15.2.0_9412b96/components/ble/common/ble_conn_params.c.obj
                               0x248e (size before relaxing)
 .debug_str     0x000093fd      0x647 examples/experimental_lpn/CMakeFiles/lpn_nrf52840_xxAA_s140_6.1.0.dir/C_/mesh/deps/nRF5_SDK_15.2.0_9412b96/components/ble/common/ble_srv_common.c.obj
                                0xe3f (size before relaxing)
 .debug_str     0x00009a44       0x3c examples/experimental_lpn/CMakeFiles/lpn_nrf52840_xxAA_s140_6.1.0.dir/__/nrf_mesh_weak.c.obj
                                0x656 (size before relaxing)
 .debug_str     0x00009a80       0x97 examples/experimental_lpn/CMakeFiles/lpn_nrf52840_xxAA_s140_6.1.0.dir/__/common/src/app_error_weak.c.obj
                                0x869 (size before relaxing)
 .debug_str     0x00009b17       0x30 examples/experimental_lpn/CMakeFiles/lpn_nrf52840_xxAA_s140_6.1.0.dir/__/common/src/assertion_handler_weak.c.obj
                                0x67f (size before relaxing)
 .debug_str     0x00009b47       0x75 examples/experimental_lpn/CMakeFiles/lpn_nrf52840_xxAA_s140_6.1.0.dir/__/__/mesh/core/src/nrf_mesh_configure.c.obj
                                0x7f9 (size before relaxing)
 .debug_str     0x00009bbc       0xbb examples/experimental_lpn/CMakeFiles/lpn_nrf52840_xxAA_s140_6.1.0.dir/__/__/mesh/core/src/msg_cache.c.obj
                                0x6f3 (size before relaxing)
 .debug_str     0x00009c77     0x17c1 examples/experimental_lpn/CMakeFiles/lpn_nrf52840_xxAA_s140_6.1.0.dir/__/__/mesh/core/src/transport.c.obj
                               0x397d (size before relaxing)
 .debug_str     0x0000b438       0xff examples/experimental_lpn/CMakeFiles/lpn_nrf52840_xxAA_s140_6.1.0.dir/__/__/mesh/core/src/event.c.obj
                               0x1d6a (size before relaxing)
 .debug_str     0x0000b537      0x333 examples/experimental_lpn/CMakeFiles/lpn_nrf52840_xxAA_s140_6.1.0.dir/__/__/mesh/core/src/packet_buffer.c.obj
                                0xb89 (size before relaxing)
 .debug_str     0x0000b86a      0x914 examples/experimental_lpn/CMakeFiles/lpn_nrf52840_xxAA_s140_6.1.0.dir/__/__/mesh/core/src/flash_manager_defrag.c.obj
                               0x11c6 (size before relaxing)
 .debug_str     0x0000c17e       0x9e examples/experimental_lpn/CMakeFiles/lpn_nrf52840_xxAA_s140_6.1.0.dir/__/__/mesh/core/src/fifo.c.obj
                                0x6e8 (size before relaxing)
 .debug_str     0x0000c21c       0xd9 examples/experimental_lpn/CMakeFiles/lpn_nrf52840_xxAA_s140_6.1.0.dir/__/__/mesh/core/src/nrf_flash.c.obj
                                0x72d (size before relaxing)
 .debug_str     0x0000c2f5      0x5b9 examples/experimental_lpn/CMakeFiles/lpn_nrf52840_xxAA_s140_6.1.0.dir/__/__/mesh/core/src/net_state.c.obj
                               0x273e (size before relaxing)
 .debug_str     0x0000c8ae      0x427 examples/experimental_lpn/CMakeFiles/lpn_nrf52840_xxAA_s140_6.1.0.dir/__/__/mesh/core/src/mesh_flash.c.obj
                                0xd7d (size before relaxing)
 .debug_str     0x0000ccd5       0x94 examples/experimental_lpn/CMakeFiles/lpn_nrf52840_xxAA_s140_6.1.0.dir/__/__/mesh/core/src/nrf_mesh_utils.c.obj
                                0x78b (size before relaxing)
 .debug_str     0x0000cd69      0x676 examples/experimental_lpn/CMakeFiles/lpn_nrf52840_xxAA_s140_6.1.0.dir/__/__/mesh/core/src/nrf_mesh.c.obj
                               0x27a2 (size before relaxing)
 .debug_str     0x0000d3df       0x53 examples/experimental_lpn/CMakeFiles/lpn_nrf52840_xxAA_s140_6.1.0.dir/__/__/mesh/core/src/queue.c.obj
                                0x6bd (size before relaxing)
 .debug_str     0x0000d432       0xac examples/experimental_lpn/CMakeFiles/lpn_nrf52840_xxAA_s140_6.1.0.dir/__/__/mesh/core/src/hal.c.obj
                                0xb15 (size before relaxing)
 .debug_str     0x0000d4de      0x16e examples/experimental_lpn/CMakeFiles/lpn_nrf52840_xxAA_s140_6.1.0.dir/__/__/mesh/core/src/aes_cmac.c.obj
                                0xc49 (size before relaxing)
 .debug_str     0x0000d64c       0xd4 examples/experimental_lpn/CMakeFiles/lpn_nrf52840_xxAA_s140_6.1.0.dir/__/__/mesh/core/src/timer_scheduler.c.obj
                                0x88c (size before relaxing)
 .debug_str     0x0000d720       0xb5 examples/experimental_lpn/CMakeFiles/lpn_nrf52840_xxAA_s140_6.1.0.dir/__/__/mesh/core/src/timer.c.obj
                                0x863 (size before relaxing)
 .debug_str     0x0000d7d5       0xac examples/experimental_lpn/CMakeFiles/lpn_nrf52840_xxAA_s140_6.1.0.dir/__/__/mesh/core/src/rand.c.obj
                                0x77b (size before relaxing)
 .debug_str     0x0000d881      0x165 examples/experimental_lpn/CMakeFiles/lpn_nrf52840_xxAA_s140_6.1.0.dir/__/__/mesh/core/src/mesh_opt.c.obj
                                0xacf (size before relaxing)
 .debug_str     0x0000d9e6      0xa14 examples/experimental_lpn/CMakeFiles/lpn_nrf52840_xxAA_s140_6.1.0.dir/__/__/mesh/core/src/timeslot.c.obj
                               0x1986 (size before relaxing)
 .debug_str     0x0000e3fa      0x1da examples/experimental_lpn/CMakeFiles/lpn_nrf52840_xxAA_s140_6.1.0.dir/__/__/mesh/core/src/timeslot_timer.c.obj
                                0x892 (size before relaxing)
 .debug_str     0x0000e5d4      0x2af examples/experimental_lpn/CMakeFiles/lpn_nrf52840_xxAA_s140_6.1.0.dir/__/__/mesh/core/src/bearer_event.c.obj
                               0x10a0 (size before relaxing)
 .debug_str     0x0000e883      0x15e examples/experimental_lpn/CMakeFiles/lpn_nrf52840_xxAA_s140_6.1.0.dir/__/__/mesh/core/src/enc.c.obj
                                0xf20 (size before relaxing)
 .debug_str     0x0000e9e1      0x4ba examples/experimental_lpn/CMakeFiles/lpn_nrf52840_xxAA_s140_6.1.0.dir/__/__/mesh/core/src/network.c.obj
                               0x176e (size before relaxing)
 .debug_str     0x0000ee9b      0x30f examples/experimental_lpn/CMakeFiles/lpn_nrf52840_xxAA_s140_6.1.0.dir/__/__/mesh/core/src/net_packet.c.obj
                                0xebf (size before relaxing)
 .debug_str     0x0000f1aa       0x53 examples/experimental_lpn/CMakeFiles/lpn_nrf52840_xxAA_s140_6.1.0.dir/__/__/mesh/core/src/msqueue.c.obj
                                0x6f9 (size before relaxing)
 .debug_str     0x0000f1fd      0x14b examples/experimental_lpn/CMakeFiles/lpn_nrf52840_xxAA_s140_6.1.0.dir/__/__/mesh/core/src/nrf_mesh_keygen.c.obj
                                0x85a (size before relaxing)
 .debug_str     0x0000f348       0xa8 examples/experimental_lpn/CMakeFiles/lpn_nrf52840_xxAA_s140_6.1.0.dir/__/__/mesh/core/src/cache.c.obj
                                0x6bc (size before relaxing)
 .debug_str     0x0000f3f0       0x63 examples/experimental_lpn/CMakeFiles/lpn_nrf52840_xxAA_s140_6.1.0.dir/__/__/mesh/core/src/list.c.obj
                                0x2cb (size before relaxing)
 .debug_str     0x0000f453       0xf0 examples/experimental_lpn/CMakeFiles/lpn_nrf52840_xxAA_s140_6.1.0.dir/__/__/mesh/core/src/log.c.obj
                                0x7dd (size before relaxing)
 .debug_str     0x0000f543      0x623 examples/experimental_lpn/CMakeFiles/lpn_nrf52840_xxAA_s140_6.1.0.dir/__/__/mesh/core/src/flash_manager.c.obj
                               0x1773 (size before relaxing)
 .debug_str     0x0000fb66       0xd5 examples/experimental_lpn/CMakeFiles/lpn_nrf52840_xxAA_s140_6.1.0.dir/__/__/mesh/core/src/ccm_soft.c.obj
                                0xd29 (size before relaxing)
 .debug_str     0x0000fc3b       0x92 examples/experimental_lpn/CMakeFiles/lpn_nrf52840_xxAA_s140_6.1.0.dir/__/__/mesh/core/src/replay_cache.c.obj
                                0x69a (size before relaxing)
 .debug_str     0x0000fccd      0x302 examples/experimental_lpn/CMakeFiles/lpn_nrf52840_xxAA_s140_6.1.0.dir/__/__/mesh/core/src/beacon.c.obj
                               0x1185 (size before relaxing)
 .debug_str     0x0000ffcf       0x38 examples/experimental_lpn/CMakeFiles/lpn_nrf52840_xxAA_s140_6.1.0.dir/__/__/mesh/core/src/flash_manager_internal.c.obj
                                0x7de (size before relaxing)
 .debug_str     0x00010007      0x1fb examples/experimental_lpn/CMakeFiles/lpn_nrf52840_xxAA_s140_6.1.0.dir/__/__/mesh/core/src/core_tx.c.obj
                                0xc57 (size before relaxing)
 .debug_str     0x00010202      0x67e examples/experimental_lpn/CMakeFiles/lpn_nrf52840_xxAA_s140_6.1.0.dir/__/__/mesh/core/src/heartbeat.c.obj
                               0x2aad (size before relaxing)
 .debug_str     0x00010880      0x2c4 examples/experimental_lpn/CMakeFiles/lpn_nrf52840_xxAA_s140_6.1.0.dir/__/__/mesh/core/src/net_beacon.c.obj
                               0x29fa (size before relaxing)
 .debug_str     0x00010b44      0x467 examples/experimental_lpn/CMakeFiles/lpn_nrf52840_xxAA_s140_6.1.0.dir/__/__/mesh/core/src/mesh_config.c.obj
                               0x26d2 (size before relaxing)
 .debug_str     0x00010fab       0xed examples/experimental_lpn/CMakeFiles/lpn_nrf52840_xxAA_s140_6.1.0.dir/__/__/mesh/core/src/fsm.c.obj
                                0x84c (size before relaxing)
 .debug_str     0x00011098      0x1f3 examples/experimental_lpn/CMakeFiles/lpn_nrf52840_xxAA_s140_6.1.0.dir/__/__/mesh/core/src/mesh_config_backend.c.obj
                                0xfe8 (size before relaxing)
 .debug_str     0x0001128b       0xb2 examples/experimental_lpn/CMakeFiles/lpn_nrf52840_xxAA_s140_6.1.0.dir/__/__/mesh/core/src/mesh_config_flashman_glue.c.obj
                               0x256d (size before relaxing)
 .debug_str     0x0001133d      0xbee examples/experimental_lpn/CMakeFiles/lpn_nrf52840_xxAA_s140_6.1.0.dir/__/__/mesh/core/src/lpn.c.obj
                               0x333a (size before relaxing)
 .debug_str     0x00011f2b       0xef examples/experimental_lpn/CMakeFiles/lpn_nrf52840_xxAA_s140_6.1.0.dir/__/__/mesh/core/src/core_tx_lpn.c.obj
                               0x11c8 (size before relaxing)
 .debug_str     0x0001201a      0x353 examples/experimental_lpn/CMakeFiles/lpn_nrf52840_xxAA_s140_6.1.0.dir/__/__/mesh/core/src/mesh_lpn_subman.c.obj
                               0x2551 (size before relaxing)
 .debug_str     0x0001236d      0x376 examples/experimental_lpn/CMakeFiles/lpn_nrf52840_xxAA_s140_6.1.0.dir/__/__/mesh/core/src/core_tx_adv.c.obj
                               0x196a (size before relaxing)
 .debug_str     0x000126e3       0x39 examples/experimental_lpn/CMakeFiles/lpn_nrf52840_xxAA_s140_6.1.0.dir/__/__/mesh/core/src/mesh_mem_stdlib.c.obj
                                0x615 (size before relaxing)
 .debug_str     0x0001271c      0x185 examples/experimental_lpn/CMakeFiles/lpn_nrf52840_xxAA_s140_6.1.0.dir/__/__/mesh/bearer/src/ad_listener.c.obj
                                0xc27 (size before relaxing)
 .debug_str     0x000128a1      0x162 examples/experimental_lpn/CMakeFiles/lpn_nrf52840_xxAA_s140_6.1.0.dir/__/__/mesh/bearer/src/ad_type_filter.c.obj
                                0x9e5 (size before relaxing)
 .debug_str     0x00012a03      0x2e0 examples/experimental_lpn/CMakeFiles/lpn_nrf52840_xxAA_s140_6.1.0.dir/__/__/mesh/bearer/src/advertiser.c.obj
                               0x15fb (size before relaxing)
 .debug_str     0x00012ce3      0x555 examples/experimental_lpn/CMakeFiles/lpn_nrf52840_xxAA_s140_6.1.0.dir/__/__/mesh/bearer/src/bearer_handler.c.obj
                               0x141c (size before relaxing)
 .debug_str     0x00013238      0x219 examples/experimental_lpn/CMakeFiles/lpn_nrf52840_xxAA_s140_6.1.0.dir/__/__/mesh/bearer/src/broadcast.c.obj
                               0x11bf (size before relaxing)
 .debug_str     0x00013451       0x72 examples/experimental_lpn/CMakeFiles/lpn_nrf52840_xxAA_s140_6.1.0.dir/__/__/mesh/bearer/src/filter_engine.c.obj
                                0x852 (size before relaxing)
 .debug_str     0x000134c3       0x79 examples/experimental_lpn/CMakeFiles/lpn_nrf52840_xxAA_s140_6.1.0.dir/__/__/mesh/bearer/src/radio_config.c.obj
                                0x934 (size before relaxing)
 .debug_str     0x0001353c      0x48b examples/experimental_lpn/CMakeFiles/lpn_nrf52840_xxAA_s140_6.1.0.dir/__/__/mesh/bearer/src/scanner.c.obj
                               0x1b7d (size before relaxing)
 .debug_str     0x000139c7      0x15f examples/experimental_lpn/CMakeFiles/lpn_nrf52840_xxAA_s140_6.1.0.dir/__/__/mesh/bearer/src/mesh_pa_lna.c.obj
                                0x92e (size before relaxing)
 .debug_str     0x00013b26      0x767 examples/experimental_lpn/CMakeFiles/lpn_nrf52840_xxAA_s140_6.1.0.dir/__/__/mesh/gatt/src/mesh_gatt.c.obj
                               0x2e61 (size before relaxing)
 .debug_str     0x0001428d      0x730 examples/experimental_lpn/CMakeFiles/lpn_nrf52840_xxAA_s140_6.1.0.dir/__/__/mesh/gatt/src/proxy.c.obj
                               0x31a9 (size before relaxing)
 .debug_str     0x000149bd       0x3e examples/experimental_lpn/CMakeFiles/lpn_nrf52840_xxAA_s140_6.1.0.dir/__/__/mesh/gatt/src/proxy_filter.c.obj
                                0x365 (size before relaxing)
 .debug_str     0x000149fb      0x362 examples/experimental_lpn/CMakeFiles/lpn_nrf52840_xxAA_s140_6.1.0.dir/__/__/models/model_spec/generic_onoff/src/generic_onoff_client.c.obj
                               0x11d1 (size before relaxing)
 .debug_str     0x00014d5d      0x28e examples/experimental_lpn/CMakeFiles/lpn_nrf52840_xxAA_s140_6.1.0.dir/__/__/models/model_spec/common/src/model_common.c.obj
                                0xe54 (size before relaxing)
 .debug_str     0x00014feb      0x22c examples/experimental_lpn/CMakeFiles/lpn_nrf52840_xxAA_s140_6.1.0.dir/__/__/models/foundation/config/src/composition_data.c.obj
                                0x8f5 (size before relaxing)
 .debug_str     0x00015217     0x2676 examples/experimental_lpn/CMakeFiles/lpn_nrf52840_xxAA_s140_6.1.0.dir/__/__/models/foundation/config/src/config_server.c.obj
                               0x57ea (size before relaxing)
 .debug_str     0x0001788d       0x74 examples/experimental_lpn/CMakeFiles/lpn_nrf52840_xxAA_s140_6.1.0.dir/__/__/models/foundation/config/src/packed_index_list.c.obj
                                0x265 (size before relaxing)
 .debug_str     0x00017901      0x616 examples/experimental_lpn/CMakeFiles/lpn_nrf52840_xxAA_s140_6.1.0.dir/__/__/models/foundation/health/src/health_server.c.obj
                               0x167c (size before relaxing)
 .debug_str     0x00017f17      0x24e examples/experimental_lpn/CMakeFiles/lpn_nrf52840_xxAA_s140_6.1.0.dir/__/__/mesh/access/src/access_publish.c.obj
                                0xb9b (size before relaxing)
 .debug_str     0x00018165      0x9ae examples/experimental_lpn/CMakeFiles/lpn_nrf52840_xxAA_s140_6.1.0.dir/__/__/mesh/access/src/access.c.obj
                               0x37c9 (size before relaxing)
 .debug_str     0x00018b13      0x10b examples/experimental_lpn/CMakeFiles/lpn_nrf52840_xxAA_s140_6.1.0.dir/__/__/mesh/access/src/access_reliable.c.obj
                               0x10cb (size before relaxing)
 .debug_str     0x00018c1e       0x87 examples/experimental_lpn/CMakeFiles/lpn_nrf52840_xxAA_s140_6.1.0.dir/__/__/mesh/access/src/access_loopback.c.obj
                                0xbd5 (size before relaxing)
 .debug_str     0x00018ca5      0xe33 examples/experimental_lpn/CMakeFiles/lpn_nrf52840_xxAA_s140_6.1.0.dir/__/__/mesh/access/src/device_state_manager.c.obj
                               0x3b76 (size before relaxing)
 .debug_str     0x00019ad8      0x593 examples/experimental_lpn/CMakeFiles/lpn_nrf52840_xxAA_s140_6.1.0.dir/__/__/external/app_timer/app_timer_mesh.c.obj
                               0x12e8 (size before relaxing)
 .debug_str     0x0001a06b      0x5f7 examples/experimental_lpn/CMakeFiles/lpn_nrf52840_xxAA_s140_6.1.0.dir/__/__/mesh/prov/src/prov_provisionee.c.obj
                               0x2317 (size before relaxing)
 .debug_str     0x0001a662      0x21f examples/experimental_lpn/CMakeFiles/lpn_nrf52840_xxAA_s140_6.1.0.dir/__/__/mesh/prov/src/nrf_mesh_prov.c.obj
                               0x1ede (size before relaxing)
 .debug_str     0x0001a881       0xc8 examples/experimental_lpn/CMakeFiles/lpn_nrf52840_xxAA_s140_6.1.0.dir/__/__/mesh/prov/src/provisioning.c.obj
                                0xf65 (size before relaxing)
 .debug_str     0x0001a949       0xaa examples/experimental_lpn/CMakeFiles/lpn_nrf52840_xxAA_s140_6.1.0.dir/__/__/mesh/prov/src/prov_beacon.c.obj
                               0x1aa7 (size before relaxing)
 .debug_str     0x0001a9f3      0x275 examples/experimental_lpn/CMakeFiles/lpn_nrf52840_xxAA_s140_6.1.0.dir/__/__/mesh/prov/src/prov_utils.c.obj
                               0x22c0 (size before relaxing)
 .debug_str     0x0001ac68      0x38e examples/experimental_lpn/CMakeFiles/lpn_nrf52840_xxAA_s140_6.1.0.dir/__/__/mesh/prov/src/nrf_mesh_prov_bearer_gatt.c.obj
                               0x142a (size before relaxing)
 .debug_str     0x0001aff6      0x3c3 examples/experimental_lpn/CMakeFiles/lpn_nrf52840_xxAA_s140_6.1.0.dir/C_/mesh/deps/nRF5_SDK_15.2.0_9412b96/modules/nrfx/mdk/system_nrf52840.c.obj
                                0x922 (size before relaxing)
 .debug_str     0x0001b3b9       0x99 examples/experimental_lpn/CMakeFiles/lpn_nrf52840_xxAA_s140_6.1.0.dir/C_/mesh/deps/nRF5_SDK_15.2.0_9412b96/components/libraries/util/app_error.c.obj
                                0x739 (size before relaxing)
 .debug_str     0x0001b452       0x57 examples/experimental_lpn/CMakeFiles/lpn_nrf52840_xxAA_s140_6.1.0.dir/C_/mesh/deps/nRF5_SDK_15.2.0_9412b96/components/libraries/util/app_error_handler_gcc.c.obj
                                0x69e (size before relaxing)
 .debug_str     0x0001b4a9      0x2bf external/rtt/librtt_nrf52840_xxAA.a(SEGGER_RTT.c.obj)
                                0x92f (size before relaxing)
 .debug_str     0x0001b768       0xdf external/rtt/librtt_nrf52840_xxAA.a(SEGGER_RTT_printf.c.obj)
                                0x79f (size before relaxing)
 .debug_str     0x0001b847      0x691 external/micro-ecc/libuECC_nrf52840_xxAA.a(uECC.c.obj)
                                0x88d (size before relaxing)

.debug_frame    0x00000000     0x91d4
 .debug_frame   0x00000000      0x230 examples/experimental_lpn/CMakeFiles/lpn_nrf52840_xxAA_s140_6.1.0.dir/src/main.c.obj
 .debug_frame   0x00000230      0x108 examples/experimental_lpn/CMakeFiles/lpn_nrf52840_xxAA_s140_6.1.0.dir/__/__/mesh/stack/src/mesh_stack.c.obj
 .debug_frame   0x00000338       0xd0 examples/experimental_lpn/CMakeFiles/lpn_nrf52840_xxAA_s140_6.1.0.dir/__/common/src/mesh_provisionee.c.obj
 .debug_frame   0x00000408       0x60 examples/experimental_lpn/CMakeFiles/lpn_nrf52840_xxAA_s140_6.1.0.dir/__/common/src/rtt_input.c.obj
 .debug_frame   0x00000468       0xe0 examples/experimental_lpn/CMakeFiles/lpn_nrf52840_xxAA_s140_6.1.0.dir/__/common/src/simple_hal.c.obj
 .debug_frame   0x00000548       0x2c examples/experimental_lpn/CMakeFiles/lpn_nrf52840_xxAA_s140_6.1.0.dir/__/common/src/mesh_app_utils.c.obj
 .debug_frame   0x00000574       0xb4 examples/experimental_lpn/CMakeFiles/lpn_nrf52840_xxAA_s140_6.1.0.dir/__/common/src/mesh_adv.c.obj
 .debug_frame   0x00000628       0xe0 examples/experimental_lpn/CMakeFiles/lpn_nrf52840_xxAA_s140_6.1.0.dir/__/common/src/ble_softdevice_support.c.obj
 .debug_frame   0x00000708       0x84 examples/experimental_lpn/CMakeFiles/lpn_nrf52840_xxAA_s140_6.1.0.dir/C_/mesh/deps/nRF5_SDK_15.2.0_9412b96/components/libraries/util/app_util_platform.c.obj
 .debug_frame   0x0000078c      0x1ac examples/experimental_lpn/CMakeFiles/lpn_nrf52840_xxAA_s140_6.1.0.dir/C_/mesh/deps/nRF5_SDK_15.2.0_9412b96/components/ble/common/ble_advdata.c.obj
 .debug_frame   0x00000938       0x30 examples/experimental_lpn/CMakeFiles/lpn_nrf52840_xxAA_s140_6.1.0.dir/C_/mesh/deps/nRF5_SDK_15.2.0_9412b96/components/libraries/experimental_section_vars/nrf_section_iter.c.obj
 .debug_frame   0x00000968       0x3c examples/experimental_lpn/CMakeFiles/lpn_nrf52840_xxAA_s140_6.1.0.dir/C_/mesh/deps/nRF5_SDK_15.2.0_9412b96/components/softdevice/common/nrf_sdh_soc.c.obj
 .debug_frame   0x000009a4       0xb0 examples/experimental_lpn/CMakeFiles/lpn_nrf52840_xxAA_s140_6.1.0.dir/C_/mesh/deps/nRF5_SDK_15.2.0_9412b96/components/softdevice/common/nrf_sdh_ble.c.obj
 .debug_frame   0x00000a54      0x164 examples/experimental_lpn/CMakeFiles/lpn_nrf52840_xxAA_s140_6.1.0.dir/C_/mesh/deps/nRF5_SDK_15.2.0_9412b96/components/softdevice/common/nrf_sdh.c.obj
 .debug_frame   0x00000bb8      0x150 examples/experimental_lpn/CMakeFiles/lpn_nrf52840_xxAA_s140_6.1.0.dir/C_/mesh/deps/nRF5_SDK_15.2.0_9412b96/components/ble/common/ble_conn_params.c.obj
 .debug_frame   0x00000d08       0xd4 examples/experimental_lpn/CMakeFiles/lpn_nrf52840_xxAA_s140_6.1.0.dir/C_/mesh/deps/nRF5_SDK_15.2.0_9412b96/components/ble/common/ble_srv_common.c.obj
 .debug_frame   0x00000ddc       0x30 examples/experimental_lpn/CMakeFiles/lpn_nrf52840_xxAA_s140_6.1.0.dir/__/nrf_mesh_weak.c.obj
 .debug_frame   0x00000e0c       0x34 examples/experimental_lpn/CMakeFiles/lpn_nrf52840_xxAA_s140_6.1.0.dir/__/common/src/app_error_weak.c.obj
 .debug_frame   0x00000e40       0x28 examples/experimental_lpn/CMakeFiles/lpn_nrf52840_xxAA_s140_6.1.0.dir/__/common/src/assertion_handler_weak.c.obj
 .debug_frame   0x00000e68       0x4c examples/experimental_lpn/CMakeFiles/lpn_nrf52840_xxAA_s140_6.1.0.dir/__/__/mesh/core/src/nrf_mesh_configure.c.obj
 .debug_frame   0x00000eb4       0x6c examples/experimental_lpn/CMakeFiles/lpn_nrf52840_xxAA_s140_6.1.0.dir/__/__/mesh/core/src/msg_cache.c.obj
 .debug_frame   0x00000f20      0x468 examples/experimental_lpn/CMakeFiles/lpn_nrf52840_xxAA_s140_6.1.0.dir/__/__/mesh/core/src/transport.c.obj
 .debug_frame   0x00001388       0x68 examples/experimental_lpn/CMakeFiles/lpn_nrf52840_xxAA_s140_6.1.0.dir/__/__/mesh/core/src/event.c.obj
 .debug_frame   0x000013f0      0x158 examples/experimental_lpn/CMakeFiles/lpn_nrf52840_xxAA_s140_6.1.0.dir/__/__/mesh/core/src/packet_buffer.c.obj
 .debug_frame   0x00001548      0x24c examples/experimental_lpn/CMakeFiles/lpn_nrf52840_xxAA_s140_6.1.0.dir/__/__/mesh/core/src/flash_manager_defrag.c.obj
 .debug_frame   0x00001794       0xd0 examples/experimental_lpn/CMakeFiles/lpn_nrf52840_xxAA_s140_6.1.0.dir/__/__/mesh/core/src/fifo.c.obj
 .debug_frame   0x00001864       0x54 examples/experimental_lpn/CMakeFiles/lpn_nrf52840_xxAA_s140_6.1.0.dir/__/__/mesh/core/src/nrf_flash.c.obj
 .debug_frame   0x000018b8      0x2c8 examples/experimental_lpn/CMakeFiles/lpn_nrf52840_xxAA_s140_6.1.0.dir/__/__/mesh/core/src/net_state.c.obj
 .debug_frame   0x00001b80      0x16c examples/experimental_lpn/CMakeFiles/lpn_nrf52840_xxAA_s140_6.1.0.dir/__/__/mesh/core/src/mesh_flash.c.obj
 .debug_frame   0x00001cec       0x50 examples/experimental_lpn/CMakeFiles/lpn_nrf52840_xxAA_s140_6.1.0.dir/__/__/mesh/core/src/nrf_mesh_utils.c.obj
 .debug_frame   0x00001d3c      0x188 examples/experimental_lpn/CMakeFiles/lpn_nrf52840_xxAA_s140_6.1.0.dir/__/__/mesh/core/src/nrf_mesh.c.obj
 .debug_frame   0x00001ec4       0x74 examples/experimental_lpn/CMakeFiles/lpn_nrf52840_xxAA_s140_6.1.0.dir/__/__/mesh/core/src/queue.c.obj
 .debug_frame   0x00001f38       0x68 examples/experimental_lpn/CMakeFiles/lpn_nrf52840_xxAA_s140_6.1.0.dir/__/__/mesh/core/src/hal.c.obj
 .debug_frame   0x00001fa0       0x6c examples/experimental_lpn/CMakeFiles/lpn_nrf52840_xxAA_s140_6.1.0.dir/__/__/mesh/core/src/aes_cmac.c.obj
 .debug_frame   0x0000200c      0x10c examples/experimental_lpn/CMakeFiles/lpn_nrf52840_xxAA_s140_6.1.0.dir/__/__/mesh/core/src/timer_scheduler.c.obj
 .debug_frame   0x00002118       0xb4 examples/experimental_lpn/CMakeFiles/lpn_nrf52840_xxAA_s140_6.1.0.dir/__/__/mesh/core/src/timer.c.obj
 .debug_frame   0x000021cc       0x84 examples/experimental_lpn/CMakeFiles/lpn_nrf52840_xxAA_s140_6.1.0.dir/__/__/mesh/core/src/rand.c.obj
 .debug_frame   0x00002250       0x20 examples/experimental_lpn/CMakeFiles/lpn_nrf52840_xxAA_s140_6.1.0.dir/__/__/mesh/core/src/mesh_opt.c.obj
 .debug_frame   0x00002270      0x1e4 examples/experimental_lpn/CMakeFiles/lpn_nrf52840_xxAA_s140_6.1.0.dir/__/__/mesh/core/src/timeslot.c.obj
 .debug_frame   0x00002454      0x118 examples/experimental_lpn/CMakeFiles/lpn_nrf52840_xxAA_s140_6.1.0.dir/__/__/mesh/core/src/timeslot_timer.c.obj
 .debug_frame   0x0000256c      0x1b0 examples/experimental_lpn/CMakeFiles/lpn_nrf52840_xxAA_s140_6.1.0.dir/__/__/mesh/core/src/bearer_event.c.obj
 .debug_frame   0x0000271c      0x150 examples/experimental_lpn/CMakeFiles/lpn_nrf52840_xxAA_s140_6.1.0.dir/__/__/mesh/core/src/enc.c.obj
 .debug_frame   0x0000286c      0x11c examples/experimental_lpn/CMakeFiles/lpn_nrf52840_xxAA_s140_6.1.0.dir/__/__/mesh/core/src/network.c.obj
 .debug_frame   0x00002988      0x138 examples/experimental_lpn/CMakeFiles/lpn_nrf52840_xxAA_s140_6.1.0.dir/__/__/mesh/core/src/net_packet.c.obj
 .debug_frame   0x00002ac0       0xb4 examples/experimental_lpn/CMakeFiles/lpn_nrf52840_xxAA_s140_6.1.0.dir/__/__/mesh/core/src/msqueue.c.obj
 .debug_frame   0x00002b74       0xd4 examples/experimental_lpn/CMakeFiles/lpn_nrf52840_xxAA_s140_6.1.0.dir/__/__/mesh/core/src/nrf_mesh_keygen.c.obj
 .debug_frame   0x00002c48       0xb0 examples/experimental_lpn/CMakeFiles/lpn_nrf52840_xxAA_s140_6.1.0.dir/__/__/mesh/core/src/cache.c.obj
 .debug_frame   0x00002cf8       0xc8 examples/experimental_lpn/CMakeFiles/lpn_nrf52840_xxAA_s140_6.1.0.dir/__/__/mesh/core/src/list.c.obj
 .debug_frame   0x00002dc0       0xb0 examples/experimental_lpn/CMakeFiles/lpn_nrf52840_xxAA_s140_6.1.0.dir/__/__/mesh/core/src/log.c.obj
 .debug_frame   0x00002e70      0x394 examples/experimental_lpn/CMakeFiles/lpn_nrf52840_xxAA_s140_6.1.0.dir/__/__/mesh/core/src/flash_manager.c.obj
 .debug_frame   0x00003204       0xec examples/experimental_lpn/CMakeFiles/lpn_nrf52840_xxAA_s140_6.1.0.dir/__/__/mesh/core/src/ccm_soft.c.obj
 .debug_frame   0x000032f0       0x80 examples/experimental_lpn/CMakeFiles/lpn_nrf52840_xxAA_s140_6.1.0.dir/__/__/mesh/core/src/replay_cache.c.obj
 .debug_frame   0x00003370       0x58 examples/experimental_lpn/CMakeFiles/lpn_nrf52840_xxAA_s140_6.1.0.dir/__/__/mesh/core/src/beacon.c.obj
 .debug_frame   0x000033c8       0x34 examples/experimental_lpn/CMakeFiles/lpn_nrf52840_xxAA_s140_6.1.0.dir/__/__/mesh/core/src/flash_manager_internal.c.obj
 .debug_frame   0x000033fc       0xf0 examples/experimental_lpn/CMakeFiles/lpn_nrf52840_xxAA_s140_6.1.0.dir/__/__/mesh/core/src/core_tx.c.obj
 .debug_frame   0x000034ec      0x1fc examples/experimental_lpn/CMakeFiles/lpn_nrf52840_xxAA_s140_6.1.0.dir/__/__/mesh/core/src/heartbeat.c.obj
 .debug_frame   0x000036e8      0x190 examples/experimental_lpn/CMakeFiles/lpn_nrf52840_xxAA_s140_6.1.0.dir/__/__/mesh/core/src/net_beacon.c.obj
 .debug_frame   0x00003878      0x1d4 examples/experimental_lpn/CMakeFiles/lpn_nrf52840_xxAA_s140_6.1.0.dir/__/__/mesh/core/src/mesh_config.c.obj
 .debug_frame   0x00003a4c       0x84 examples/experimental_lpn/CMakeFiles/lpn_nrf52840_xxAA_s140_6.1.0.dir/__/__/mesh/core/src/fsm.c.obj
 .debug_frame   0x00003ad0      0x108 examples/experimental_lpn/CMakeFiles/lpn_nrf52840_xxAA_s140_6.1.0.dir/__/__/mesh/core/src/mesh_config_backend.c.obj
 .debug_frame   0x00003bd8      0x174 examples/experimental_lpn/CMakeFiles/lpn_nrf52840_xxAA_s140_6.1.0.dir/__/__/mesh/core/src/mesh_config_flashman_glue.c.obj
 .debug_frame   0x00003d4c      0x438 examples/experimental_lpn/CMakeFiles/lpn_nrf52840_xxAA_s140_6.1.0.dir/__/__/mesh/core/src/lpn.c.obj
 .debug_frame   0x00004184       0xb8 examples/experimental_lpn/CMakeFiles/lpn_nrf52840_xxAA_s140_6.1.0.dir/__/__/mesh/core/src/core_tx_lpn.c.obj
 .debug_frame   0x0000423c       0xec examples/experimental_lpn/CMakeFiles/lpn_nrf52840_xxAA_s140_6.1.0.dir/__/__/mesh/core/src/mesh_lpn_subman.c.obj
 .debug_frame   0x00004328      0x200 examples/experimental_lpn/CMakeFiles/lpn_nrf52840_xxAA_s140_6.1.0.dir/__/__/mesh/core/src/core_tx_adv.c.obj
 .debug_frame   0x00004528       0x50 examples/experimental_lpn/CMakeFiles/lpn_nrf52840_xxAA_s140_6.1.0.dir/__/__/mesh/core/src/mesh_mem_stdlib.c.obj
 .debug_frame   0x00004578       0x6c examples/experimental_lpn/CMakeFiles/lpn_nrf52840_xxAA_s140_6.1.0.dir/__/__/mesh/bearer/src/ad_listener.c.obj
 .debug_frame   0x000045e4       0xa8 examples/experimental_lpn/CMakeFiles/lpn_nrf52840_xxAA_s140_6.1.0.dir/__/__/mesh/bearer/src/ad_type_filter.c.obj
 .debug_frame   0x0000468c      0x284 examples/experimental_lpn/CMakeFiles/lpn_nrf52840_xxAA_s140_6.1.0.dir/__/__/mesh/bearer/src/advertiser.c.obj
 .debug_frame   0x00004910      0x248 examples/experimental_lpn/CMakeFiles/lpn_nrf52840_xxAA_s140_6.1.0.dir/__/__/mesh/bearer/src/bearer_handler.c.obj
 .debug_frame   0x00004b58       0x88 examples/experimental_lpn/CMakeFiles/lpn_nrf52840_xxAA_s140_6.1.0.dir/__/__/mesh/bearer/src/broadcast.c.obj
 .debug_frame   0x00004be0       0x74 examples/experimental_lpn/CMakeFiles/lpn_nrf52840_xxAA_s140_6.1.0.dir/__/__/mesh/bearer/src/filter_engine.c.obj
 .debug_frame   0x00004c54       0x94 examples/experimental_lpn/CMakeFiles/lpn_nrf52840_xxAA_s140_6.1.0.dir/__/__/mesh/bearer/src/radio_config.c.obj
 .debug_frame   0x00004ce8      0x2dc examples/experimental_lpn/CMakeFiles/lpn_nrf52840_xxAA_s140_6.1.0.dir/__/__/mesh/bearer/src/scanner.c.obj
 .debug_frame   0x00004fc4      0x10c examples/experimental_lpn/CMakeFiles/lpn_nrf52840_xxAA_s140_6.1.0.dir/__/__/mesh/bearer/src/mesh_pa_lna.c.obj
 .debug_frame   0x000050d0      0x1dc examples/experimental_lpn/CMakeFiles/lpn_nrf52840_xxAA_s140_6.1.0.dir/__/__/mesh/gatt/src/mesh_gatt.c.obj
 .debug_frame   0x000052ac      0x370 examples/experimental_lpn/CMakeFiles/lpn_nrf52840_xxAA_s140_6.1.0.dir/__/__/mesh/gatt/src/proxy.c.obj
 .debug_frame   0x0000561c       0xa0 examples/experimental_lpn/CMakeFiles/lpn_nrf52840_xxAA_s140_6.1.0.dir/__/__/mesh/gatt/src/proxy_filter.c.obj
 .debug_frame   0x000056bc       0xc4 examples/experimental_lpn/CMakeFiles/lpn_nrf52840_xxAA_s140_6.1.0.dir/__/__/models/model_spec/generic_onoff/src/generic_onoff_client.c.obj
 .debug_frame   0x00005780      0x138 examples/experimental_lpn/CMakeFiles/lpn_nrf52840_xxAA_s140_6.1.0.dir/__/__/models/model_spec/common/src/model_common.c.obj
 .debug_frame   0x000058b8       0x40 examples/experimental_lpn/CMakeFiles/lpn_nrf52840_xxAA_s140_6.1.0.dir/__/__/models/foundation/config/src/composition_data.c.obj
 .debug_frame   0x000058f8      0x8f8 examples/experimental_lpn/CMakeFiles/lpn_nrf52840_xxAA_s140_6.1.0.dir/__/__/models/foundation/config/src/config_server.c.obj
 .debug_frame   0x000061f0       0x2c examples/experimental_lpn/CMakeFiles/lpn_nrf52840_xxAA_s140_6.1.0.dir/__/__/models/foundation/config/src/packed_index_list.c.obj
 .debug_frame   0x0000621c      0x280 examples/experimental_lpn/CMakeFiles/lpn_nrf52840_xxAA_s140_6.1.0.dir/__/__/models/foundation/health/src/health_server.c.obj
 .debug_frame   0x0000649c      0x114 examples/experimental_lpn/CMakeFiles/lpn_nrf52840_xxAA_s140_6.1.0.dir/__/__/mesh/access/src/access_publish.c.obj
 .debug_frame   0x000065b0      0x640 examples/experimental_lpn/CMakeFiles/lpn_nrf52840_xxAA_s140_6.1.0.dir/__/__/mesh/access/src/access.c.obj
 .debug_frame   0x00006bf0      0x13c examples/experimental_lpn/CMakeFiles/lpn_nrf52840_xxAA_s140_6.1.0.dir/__/__/mesh/access/src/access_reliable.c.obj
 .debug_frame   0x00006d2c       0x70 examples/experimental_lpn/CMakeFiles/lpn_nrf52840_xxAA_s140_6.1.0.dir/__/__/mesh/access/src/access_loopback.c.obj
 .debug_frame   0x00006d9c      0xbe8 examples/experimental_lpn/CMakeFiles/lpn_nrf52840_xxAA_s140_6.1.0.dir/__/__/mesh/access/src/device_state_manager.c.obj
 .debug_frame   0x00007984      0x18c examples/experimental_lpn/CMakeFiles/lpn_nrf52840_xxAA_s140_6.1.0.dir/__/__/external/app_timer/app_timer_mesh.c.obj
 .debug_frame   0x00007b10      0x198 examples/experimental_lpn/CMakeFiles/lpn_nrf52840_xxAA_s140_6.1.0.dir/__/__/mesh/prov/src/prov_provisionee.c.obj
 .debug_frame   0x00007ca8      0x160 examples/experimental_lpn/CMakeFiles/lpn_nrf52840_xxAA_s140_6.1.0.dir/__/__/mesh/prov/src/nrf_mesh_prov.c.obj
 .debug_frame   0x00007e08      0x170 examples/experimental_lpn/CMakeFiles/lpn_nrf52840_xxAA_s140_6.1.0.dir/__/__/mesh/prov/src/provisioning.c.obj
 .debug_frame   0x00007f78       0x84 examples/experimental_lpn/CMakeFiles/lpn_nrf52840_xxAA_s140_6.1.0.dir/__/__/mesh/prov/src/prov_beacon.c.obj
 .debug_frame   0x00007ffc      0x1b0 examples/experimental_lpn/CMakeFiles/lpn_nrf52840_xxAA_s140_6.1.0.dir/__/__/mesh/prov/src/prov_utils.c.obj
 .debug_frame   0x000081ac      0x250 examples/experimental_lpn/CMakeFiles/lpn_nrf52840_xxAA_s140_6.1.0.dir/__/__/mesh/prov/src/nrf_mesh_prov_bearer_gatt.c.obj
 .debug_frame   0x000083fc       0x48 examples/experimental_lpn/CMakeFiles/lpn_nrf52840_xxAA_s140_6.1.0.dir/C_/mesh/deps/nRF5_SDK_15.2.0_9412b96/modules/nrfx/mdk/system_nrf52840.c.obj
 .debug_frame   0x00008444       0x44 examples/experimental_lpn/CMakeFiles/lpn_nrf52840_xxAA_s140_6.1.0.dir/C_/mesh/deps/nRF5_SDK_15.2.0_9412b96/components/libraries/util/app_error.c.obj
 .debug_frame   0x00008488       0x20 examples/experimental_lpn/CMakeFiles/lpn_nrf52840_xxAA_s140_6.1.0.dir/C_/mesh/deps/nRF5_SDK_15.2.0_9412b96/components/libraries/util/app_error_handler_gcc.c.obj
 .debug_frame   0x000084a8      0x2d8 external/rtt/librtt_nrf52840_xxAA.a(SEGGER_RTT.c.obj)
 .debug_frame   0x00008780       0xac external/rtt/librtt_nrf52840_xxAA.a(SEGGER_RTT_printf.c.obj)
 .debug_frame   0x0000882c      0x684 external/micro-ecc/libuECC_nrf52840_xxAA.a(uECC.c.obj)
 .debug_frame   0x00008eb0       0x2c c:/mesh/arm_gcc/bin/../lib/gcc/arm-none-eabi/6.3.1/thumb/v7e-m/fpv4-sp/hard\libgcc.a(_aeabi_uldivmod.o)
 .debug_frame   0x00008edc       0x34 c:/mesh/arm_gcc/bin/../lib/gcc/arm-none-eabi/6.3.1/thumb/v7e-m/fpv4-sp/hard\libgcc.a(_udivmoddi4.o)
 .debug_frame   0x00008f10       0x28 c:/mesh/arm_gcc/bin/../lib/gcc/arm-none-eabi/6.3.1/../../../../arm-none-eabi/lib/thumb/v7e-m/fpv4-sp/hard\libg_nano.a(lib_a-exit.o)
 .debug_frame   0x00008f38       0x2c c:/mesh/arm_gcc/bin/../lib/gcc/arm-none-eabi/6.3.1/../../../../arm-none-eabi/lib/thumb/v7e-m/fpv4-sp/hard\libg_nano.a(lib_a-init.o)
 .debug_frame   0x00008f64       0x30 c:/mesh/arm_gcc/bin/../lib/gcc/arm-none-eabi/6.3.1/../../../../arm-none-eabi/lib/thumb/v7e-m/fpv4-sp/hard\libg_nano.a(lib_a-malloc.o)
 .debug_frame   0x00008f94       0x28 c:/mesh/arm_gcc/bin/../lib/gcc/arm-none-eabi/6.3.1/../../../../arm-none-eabi/lib/thumb/v7e-m/fpv4-sp/hard\libg_nano.a(lib_a-memcmp.o)
 .debug_frame   0x00008fbc       0x28 c:/mesh/arm_gcc/bin/../lib/gcc/arm-none-eabi/6.3.1/../../../../arm-none-eabi/lib/thumb/v7e-m/fpv4-sp/hard\libg_nano.a(lib_a-memcpy-stub.o)
 .debug_frame   0x00008fe4       0x20 c:/mesh/arm_gcc/bin/../lib/gcc/arm-none-eabi/6.3.1/../../../../arm-none-eabi/lib/thumb/v7e-m/fpv4-sp/hard\libg_nano.a(lib_a-memset.o)
 .debug_frame   0x00009004       0x38 c:/mesh/arm_gcc/bin/../lib/gcc/arm-none-eabi/6.3.1/../../../../arm-none-eabi/lib/thumb/v7e-m/fpv4-sp/hard\libg_nano.a(lib_a-nano-freer.o)
 .debug_frame   0x0000903c       0x2c c:/mesh/arm_gcc/bin/../lib/gcc/arm-none-eabi/6.3.1/../../../../arm-none-eabi/lib/thumb/v7e-m/fpv4-sp/hard\libg_nano.a(lib_a-nano-mallocr.o)
 .debug_frame   0x00009068       0x2c c:/mesh/arm_gcc/bin/../lib/gcc/arm-none-eabi/6.3.1/../../../../arm-none-eabi/lib/thumb/v7e-m/fpv4-sp/hard\libg_nano.a(lib_a-sbrkr.o)
 .debug_frame   0x00009094       0x20 c:/mesh/arm_gcc/bin/../lib/gcc/arm-none-eabi/6.3.1/../../../../arm-none-eabi/lib/thumb/v7e-m/fpv4-sp/hard\libg_nano.a(lib_a-strcpy.o)
 .debug_frame   0x000090b4       0x34 c:/mesh/arm_gcc/bin/../lib/gcc/arm-none-eabi/6.3.1/../../../../arm-none-eabi/lib/thumb/v7e-m/fpv4-sp/hard\libg_nano.a(lib_a-strrchr.o)
 .debug_frame   0x000090e8       0x30 c:/mesh/arm_gcc/bin/../lib/gcc/arm-none-eabi/6.3.1/../../../../arm-none-eabi/lib/thumb/v7e-m/fpv4-sp/hard\libg_nano.a(lib_a-mlock.o)
 .debug_frame   0x00009118       0x5c c:/mesh/arm_gcc/bin/../lib/gcc/arm-none-eabi/6.3.1/../../../../arm-none-eabi/lib/thumb/v7e-m/fpv4-sp/hard\libg_nano.a(lib_a-reent.o)
 .debug_frame   0x00009174       0x20 c:/mesh/arm_gcc/bin/../lib/gcc/arm-none-eabi/6.3.1/../../../../arm-none-eabi/lib/thumb/v7e-m/fpv4-sp/hard\libg_nano.a(lib_a-strchr.o)
 .debug_frame   0x00009194       0x20 c:/mesh/arm_gcc/bin/../lib/gcc/arm-none-eabi/6.3.1/../../../../arm-none-eabi/lib/thumb/v7e-m/fpv4-sp/hard\libnosys.a(sbrk.o)
 .debug_frame   0x000091b4       0x20 c:/mesh/arm_gcc/bin/../lib/gcc/arm-none-eabi/6.3.1/../../../../arm-none-eabi/lib/thumb/v7e-m/fpv4-sp/hard\libnosys.a(_exit.o)
